((dp0
S'arm_dbg_args'
p1
S'-via:"e:\\Documents\\Michiel\\Programmeren\\Marmalade\\MVSStage3\\build_mvsstage3_vc12x\\MVSStage3_vc12x_arm_debug.via" -qemu'
p2
sS'game-icf'
p3
S''
p4
sS'dist'
p5
NsS'csproj'
p6
g4
sS'module_path_append'
p7
NsS'global_path'
p8
S'e:\\documents\\michiel\\programmeren\\marmalade'
p9
sS'system_path'
p10
S'c:\\marmalade\\7.4\\s3e\\makefile_builder'
p11
sS'android_x86_dbg_args'
p12
S'../../tools/DeployTool/DeployTool.exe --dir "e:\\Documents\\Michiel\\Programmeren\\Marmalade\\MVSStage3\\build_mvsstage3_vc12x"'
p13
sS'no-emit'
p14
NsS'arm-float-abi'
p15
g4
sS'arm_rel_rtsm_args'
p16
S'-via:"e:\\Documents\\Michiel\\Programmeren\\Marmalade\\MVSStage3\\build_mvsstage3_vc12x\\MVSStage3_vc12x_arm_release.via" -qemu'
p17
sS'amd64'
p18
NsS'line-width'
p19
I80
sS'gcc_dbg_args'
p20
S'-via:"e:\\Documents\\Michiel\\Programmeren\\Marmalade\\MVSStage3\\build_mvsstage3_vc12x\\MVSStage3_vc12x_gcc_debug.via" -qemu'
p21
sS'android-x86'
p22
NsS'x86_dbg_exe'
p23
S'c:/marmalade/7.4/s3e\\win32\\s3e_simulator_debug.exe'
p24
sS'disable-runtime-checks'
p25
NsS'release'
p26
NsS'no-make'
p27
NsS'xcode-x86-build-settings'
p28
g4
sS'optimise-size'
p29
NsS'output-name-debug'
p30
g4
sS'arm-fpu'
p31
g4
sS'proj_name'
p32
S'MVSStage3_vc12x'
p33
sS'enable-stdinc'
p34
NsS'compiler'
p35
g4
sS'execute'
p36
NsS'compile-static'
p37
NsS'msvc-project'
p38
NsS'buildenv'
p39
S'VC12X'
p40
sS'quick'
p41
NsS'module_path'
p42
(lp43
S'C:/Marmalade/7.4/examples/GameTutorial/CPP/modules'
p44
asS'use-release-std-libs'
p45
NsS'using_perforce'
p46
I00
sS'tizen-x86'
p47
NsS'mips-s3e'
p48
NsS's3e-api-lib-name'
p49
S's3e_api_iwgl'
p50
sS'ios-no-pic'
p51
NsS'shared-arm-lib'
p52
NsS'arm-cpu'
p53
g4
sS'compile-thumb'
p54
NsS'no-ide'
p55
I01
sS'msvc-version'
p56
S'6.0'
p57
sS'arm'
p58
NsS'builddir'
p59
g4
sS'compile-debug-as-release'
p60
I0
sS'arm-arch'
p61
g4
sS'brief'
p62
NsS'dll'
p63
NsS'buildenv-toolset'
p64
g4
sS'version'
p65
NsS'ccache'
p66
I0
sS'offline'
p67
NsS'ios-version'
p68
g4
sS'hub_data'
p69
g4
sS'fake_vc_call'
p70
NsS'jobs'
p71
I0
sS'linkflags'
p72
NsS'debug'
p73
I01
sS'xcode-build-order'
p74
g4
sS'gcc_rel_rtsm_args'
p75
S'-via:"e:\\Documents\\Michiel\\Programmeren\\Marmalade\\MVSStage3\\build_mvsstage3_vc12x\\MVSStage3_vc12x_gcc_release.via" -qemu'
p76
sS'done_defaults'
p77
I1
sS'path'
p78
NsS's3e-data-dir'
p79
S'e:/Documents/Michiel/Programmeren/Marmalade/MVSStage3\\data'
p80
sS'enable-exceptions'
p81
NsS'osx-dll'
p82
NsS'extension'
p83
g4
sS'no-vc6'
p84
NsS'non-interactive'
p85
NsS'win32-console'
p86
NsS'dist-format'
p87
g4
sS's3e-force-arch'
p88
NsS'dump_defines'
p89
NsS'use_prebuilt'
p90
NsS'gcc-version'
p91
g4
sS'x86_dbg_args'
p92
S'-via:"e:\\Documents\\Michiel\\Programmeren\\Marmalade\\MVSStage3\\build_mvsstage3_vc12x\\MVSStage3_vc12x_debug.via"'
p93
sS'tizen_x86_dbg_args'
p94
g13
sS'arm-debugger'
p95
g4
sS'use_temp_extension'
p96
NsS'verbose'
p97
I0
sS'log'
p98
NsS'no-strip'
p99
NsS'rebuild'
p100
NsS'win32-simulator-dll'
p101
NsS'strict'
p102
NsS'mips_dbg_args'
p103
g13
sS'enable-global-path'
p104
NsS'cflags'
p105
NsS'dist-dir'
p106
g4
sS'xcode-arm-build-settings'
p107
g4
sS'jflags'
p108
NsS'csprojSDKRefs'
p109
g4
sS'tizen_x86_rel_exe'
p110
S'c:\\marmalade\\7.4\\s3e\\makefile_builder\\tool_launcher.exe'
p111
sS'test-assets'
p112
g4
sS'distcc'
p113
NsS'external-compiler'
p114
NsS'no-distcc'
p115
NsS'preinclude'
p116
NsS'using_sdk'
p117
I01
sS'nologo'
p118
NsS'warn-level'
p119
I2
sS'mips_dbg_exe'
p120
g111
sS'mkb_in'
p121
S'e:/Documents/Michiel/Programmeren/Marmalade/MVSStage3/MVSStage3.mkb'
p122
sS'tizen_x86_dbg_exe'
p123
g111
sS'arm_dbg_exe'
p124
S'c:/marmalade/7.4/s3e\\bin\\armdebug.exe'
p125
sS'csprojDLLRef'
p126
NsS'tizen_x86_rel_args'
p127
g13
sS'android_x86_dbg_exe'
p128
g111
sS'test-config'
p129
g4
sS'list-targets'
p130
NsS'arm_rel_exe'
p131
g111
sS'arm_rel_args'
p132
g13
sS'makedeps'
p133
NsS'android_x86_rel_exe'
p134
g111
sS'default-buildenv'
p135
S'VC12X'
p136
sS'x86_rel_exe'
p137
g24
sS'preprocess-java'
p138
NsS'mips_rel_args'
p139
g13
sS'defines'
p140
NsS'lib'
p141
NsS'global_argv'
p142
(lp143
S'C:\\Marmalade\\7.4\\s3e\\makefile_builder\\mkb.py'
p144
aS'E:/Documents/Michiel/Programmeren/Marmalade/MVSStage3/MVSStage3.mkb'
p145
aS'--buildenv=VC12X'
p146
aS'--debug'
p147
aS'--x86'
p148
aS'--no-ide'
p149
aS'--make'
p150
asS'make'
p151
I01
sS'optimise-speed'
p152
NsS'internal'
p153
NsS'rvct-version'
p154
g4
sS'deploy-only'
p155
NsS'x86'
p156
I01
sS'deploy'
p157
g4
sS'x86_run_exe'
p158
S'c:/marmalade/7.4/s3e\\win32\\s3e_console.exe'
p159
sS'x86_rel_args'
p160
S'-via:"e:\\Documents\\Michiel\\Programmeren\\Marmalade\\MVSStage3\\build_mvsstage3_vc12x\\MVSStage3_vc12x_release.via"'
p161
sS'gcc_rel_args'
p162
g13
sS'mips'
p163
NsS'xcode-build-settings'
p164
g4
sS'incredibuild'
p165
NsS'strict-compile'
p166
NsS'use-auto-subdirs'
p167
NsS'mips_rel_exe'
p168
g111
sS'android_x86_rel_args'
p169
g13
sS'app-icf'
p170
g4
sS'deployargs'
p171
NsS'iosnativedebug'
p172
NsS'mkf_in'
p173
(lp174
S'c:\\marmalade\\7.4\\modules\\iw2d\\iw2d.mkf'
p175
aS'c:\\marmalade\\7.4\\modules\\iwgx\\iwgx.mkf'
p176
aS'c:\\marmalade\\7.4\\modules\\iwgl\\iwgl.mkf'
p177
aS'c:\\marmalade\\7.4\\modules\\iwutil\\iwutil.mkf'
p178
aS'c:\\marmalade\\7.4\\modules\\third_party\\libjpeg\\libjpeg.mkf'
p179
aS'c:\\marmalade\\7.4\\modules\\third_party\\libpng\\libpng.mkf'
p180
aS'c:\\marmalade\\7.4\\modules\\third_party\\zlib\\zlib.mkf'
p181
aS'c:\\marmalade\\7.4\\modules\\iwgeom\\iwgeom.mkf'
p182
aS'c:\\marmalade\\7.4\\modules\\iwresmanager\\iwresmanager.mkf'
p183
aS'c:\\marmalade\\7.4\\extensions\\pvrtextool\\pvrtextool.mkf'
p184
aS'c:\\marmalade\\7.4\\modules\\iwgxfont\\iwgxfont.mkf'
p185
aS'c:\\marmalade\\7.4\\modules\\third_party\\tiniconv\\tiniconv.mkf'
p186
aS'c:\\marmalade\\7.4\\modules\\iw2dscenegraph\\iw2dscenegraph.mkf'
p187
aS'c:\\marmalade\\7.4\\modules\\iw2dscenegraphcore\\iw2dscenegraphcore.mkf'
p188
aS'c:\\marmalade\\7.4\\examples\\gametutorial\\cpp\\modules\\soundengine\\soundengine.mkf'
p189
asS'strict-mkb'
p190
NsS'executeargs'
p191
NsS'clean'
p192
NsS'no-asm'
p193
NsS'output-name'
p194
g4
sS'no-modules'
p195
NsS'find_define'
p196
g4
s(dp197
S'c:\\marmalade\\7.4\\s3e\\makefile_builder\\plugins\\Emitter.pyc'
p198
F1411758008.0
sS'c:\\marmalade\\7.4\\s3e\\makefile_builder\\templates\\ws8_ext_sln.pyc'
p199
F1411758010.0
sS'c:\\marmalade\\7.4\\s3e\\makefile_builder\\templates\\MainWindow.xib'
p200
F1411756764.0
sS'c:\\marmalade\\7.4\\s3e\\makefile_builder\\templates\\template.suo'
p201
F1411756764.0
sS'c:\\marmalade\\7.4\\s3e\\makefile_builder\\plugins\\xcode4_schememanagement.py'
p202
F1411756764.0
sS'c:\\marmalade\\7.4\\s3e\\makefile_builder\\templates\\ws81_sln.pyc'
p203
F1411758010.0
sS'c:\\marmalade\\7.4\\s3e\\makefile_builder\\templates\\win8_ext_csproj.pyc'
p204
F1411758010.0
sS'c:\\marmalade\\7.4\\s3e\\makefile_builder\\mkb_option.pyc'
p205
F1411758008.0
sS'c:\\marmalade\\7.4\\s3e\\makefile_builder\\plugins\\s3e_xcode.py'
p206
F1411756764.0
sS'c:\\marmalade\\7.4\\s3e\\makefile_builder\\plugins\\s3e_scons.pyc'
p207
F1411758008.0
sS'c:\\marmalade\\7.4\\s3e\\makefile_builder\\templates\\win8_vcxproj.pyc'
p208
F1411758010.0
sS'c:\\marmalade\\7.4\\s3e\\makefile_builder\\plugins\\null.pyc'
p209
F1411758008.0
sS'c:\\marmalade\\7.4\\s3e\\makefile_builder\\templates\\vc8_user.pyc'
p210
F1411758010.0
sS'c:\\marmalade\\7.4\\s3e\\makefile_builder\\templates\\wp81_ext_sln.pyc'
p211
F1411758010.0
sS'c:\\marmalade\\7.4\\s3e\\makefile_builder\\templates\\scons.pyc'
p212
F1411758010.0
sS'c:\\marmalade\\7.4\\s3e\\makefile_builder\\templates\\wp8_ext_csproj.pyc'
p213
F1411758010.0
sS'c:\\marmalade\\7.4\\s3e\\makefile_builder\\templates\\xcode_pbxuser.py'
p214
F1411756766.0
sS'c:\\marmalade\\7.4\\s3e\\makefile_builder\\plugins\\s3e_qmake.py'
p215
F1411756764.0
sS'c:\\marmalade\\7.4\\s3e\\makefile_builder\\plugins\\iphone.pyc'
p216
F1411758010.0
sS'c:\\marmalade\\7.4\\s3e\\makefile_builder\\templates\\ws81_ext_csproj.pyc'
p217
F1411758010.0
sS'c:\\marmalade\\7.4\\s3e\\makefile_builder\\templates\\vc6_opt.pyc'
p218
F1411758010.0
sS'c:\\marmalade\\7.4\\s3e\\makefile_builder\\plugins\\s3e_win8.pyc'
p219
F1411758010.0
sS'c:\\marmalade\\7.4\\s3e\\makefile_builder\\mkb_main.pyc'
p220
F1411758008.0
sS'c:\\marmalade\\7.4\\s3e\\makefile_builder\\templates\\wp8_csproj.pyc'
p221
F1411758010.0
sS'c:\\marmalade\\7.4\\s3e\\makefile_builder\\templates\\win32_vcproj.pyc'
p222
F1411758010.0
sS'c:\\marmalade\\7.4\\s3e\\makefile_builder\\templates\\win8_sln.pyc'
p223
F1411758010.0
sS'c:\\marmalade\\7.4\\s3e\\makefile_builder\\mkb_launcher.exe'
p224
F1411757118.0
sS'c:\\marmalade\\7.4\\s3e\\makefile_builder\\plugins\\osx_xcode.pyc'
p225
F1411758010.0
sS'c:\\marmalade\\7.4\\s3e\\makefile_builder\\plugins'
p226
F1411803920.271899
sS'c:\\marmalade\\7.4\\s3e\\makefile_builder\\templates\\wp8_csproj_user.pyc'
p227
F1411758010.0
sS'c:\\marmalade\\7.4\\s3e\\makefile_builder\\plugins\\win32_vc6.pyc'
p228
F1411758010.0
sS'c:\\marmalade\\7.4\\s3e\\makefile_builder\\plugins\\s3e_vc6.pyc'
p229
F1411758008.0
sS'c:\\marmalade\\7.4\\s3e\\makefile_builder\\templates\\vc10_user.pyc'
p230
F1411758010.0
sS'c:\\marmalade\\7.4\\s3e\\makefile_builder\\docs\\deprecated.defines.txt'
p231
F1411756764.0
sS'c:\\marmalade\\7.4\\s3e\\makefile_builder\\templates\\wp81_csproj_user.pyc'
p232
F1411758010.0
sS'c:\\marmalade\\7.4\\s3e\\makefile_builder\\templates\\ws81_ext_sln.pyc'
p233
F1411758010.0
sS'c:\\marmalade\\7.4\\s3e\\makefile_builder\\templates\\make.py'
p234
F1411756764.0
sS'c:\\marmalade\\7.4\\s3e\\makefile_builder\\plugins\\wp81_wp81.pyc'
p235
F1411758010.0
sS'c:\\marmalade\\7.4\\s3e\\makefile_builder\\plugins\\s3e_qmake.pyc'
p236
F1411803920.1701696
sS'c:\\marmalade\\7.4\\s3e\\makefile_builder\\templates\\mips_linker_script'
p237
F1411756764.0
sS'c:\\marmalade\\7.4\\s3e\\makefile_builder\\plugins\\deploy.pyc'
p238
F1411758008.0
sS'c:\\marmalade\\7.4\\s3e\\makefile_builder\\plugins\\ws81_ws81.pyc'
p239
F1411758010.0
sS'c:\\marmalade\\7.4\\s3e\\makefile_builder\\mkb.py'
p240
F1411756764.0
sS'c:\\marmalade\\7.4\\s3e\\makefile_builder\\docs\\options.txt'
p241
F1411756764.0
sS'c:\\marmalade\\7.4\\s3e\\makefile_builder\\mkb_parser.pyc'
p242
F1411758008.0
sS'c:\\marmalade\\7.4\\s3e\\makefile_builder\\templates\\qmake_user.py'
p243
F1411756764.0
sS'c:\\marmalade\\7.4\\s3e\\makefile_builder\\docs\\mkb.defines.txt'
p244
F1411756764.0
sS'c:\\marmalade\\7.4\\s3e\\makefile_builder\\deployment.pyc'
p245
F1411758008.0
sS'c:\\marmalade\\7.4\\s3e\\makefile_builder\\plugins\\wp8_wp8.pyc'
p246
F1411758010.0
sS'c:\\marmalade\\7.4\\s3e\\makefile_builder\\plugins\\linux_scons.pyc'
p247
F1411758010.0
sS'c:\\marmalade\\7.4\\s3e\\makefile_builder\\plugins\\s3e_web.pyc'
p248
F1411758008.0
sS'c:\\marmalade\\7.4\\s3e\\makefile_builder\\plugins\\S3EEmitter.pyc'
p249
F1411758008.0
sS'c:\\marmalade\\7.4\\s3e\\makefile_builder\\plugins\\Win8Emitter.pyc'
p250
F1411758010.0
sS'c:\\marmalade\\7.4\\s3e\\makefile_builder\\templates\\xcode4_arm.xcscheme'
p251
F1411756766.0
sS'c:\\marmalade\\7.4\\s3e\\makefile_builder\\plugins\\vc6_utils.pyc'
p252
F1411758010.0
sS'c:\\marmalade\\7.4\\s3e\\makefile_builder\\templates\\wp8_vcxproj.pyc'
p253
F1411758010.0
sS'c:\\marmalade\\7.4\\s3e\\makefile_builder\\templates\\xcode4.xcscheme'
p254
F1411756766.0
sS'c:\\marmalade\\7.4\\s3e\\makefile_builder\\plugins\\MakeEmitter.pyc'
p255
F1411758008.0
sS'c:\\marmalade\\7.4\\s3e\\makefile_builder\\plugins\\java.pyc'
p256
F1411758010.0
sS'c:\\marmalade\\7.4\\s3e\\makefile_builder\\plugins\\XcodeEmitter.pyc'
p257
F1411803919.9116752
sS'c:\\marmalade\\7.4\\s3e\\makefile_builder\\plugins\\XcodeEmitter.py'
p258
F1411756764.0
sS'c:\\marmalade\\7.4\\s3e\\makefile_builder\\mkb_globals.pyc'
p259
F1411758008.0
sS'c:\\marmalade\\7.4\\s3e\\makefile_builder\\tool_launcher.exe'
p260
F1411757118.0
sS'c:\\marmalade\\7.4\\s3e\\makefile_builder\\mkb_util.pyc'
p261
F1411758008.0
sS'c:\\marmalade\\7.4\\s3e\\makefile_builder\\plugins\\xcode4_schememanagement.pyc'
p262
F1411803919.9427035
sS'c:\\marmalade\\7.4\\s3e\\makefile_builder\\templates\\ws8_sln.pyc'
p263
F1411758010.0
sS'c:\\marmalade\\7.4\\s3e\\makefile_builder\\templates\\win32_sln.pyc'
p264
F1411758010.0
sS'c:\\marmalade\\7.4\\s3e\\makefile_builder\\templates\\wp81_ext_csproj.pyc'
p265
F1411758010.0
sS'c:\\marmalade\\7.4\\s3e\\makefile_builder\\plugins\\s3e_wp81.pyc'
p266
F1411758010.0
sS'c:\\marmalade\\7.4\\s3e\\makefile_builder\\plugins\\s3e_wp8.pyc'
p267
F1411758010.0
sS'c:\\marmalade\\7.4\\s3e\\makefile_builder\\templates\\qmake.py'
p268
F1411756764.0
sS'c:\\marmalade\\7.4\\s3e\\makefile_builder\\templates\\gdb_start.txt'
p269
F1411756764.0
sS'c:\\marmalade\\7.4\\s3e\\makefile_builder\\templates'
p270
F1411803678.9534326
sS'c:\\marmalade\\7.4\\s3e\\makefile_builder\\templates\\ws8_ext_csproj.pyc'
p271
F1411758010.0
sS'c:\\marmalade\\7.4\\s3e\\makefile_builder\\templates\\win8_csproj_user.pyc'
p272
F1411758010.0
sS'c:\\marmalade\\7.4\\s3e\\makefile_builder\\templates\\vc7_suo.pyc'
p273
F1411758010.0
sS'c:\\marmalade\\7.4\\s3e\\makefile_builder\\plugins\\VisualStudioEmitter.pyc'
p274
F1411758010.0
sS'c:\\marmalade\\7.4\\s3e\\makefile_builder\\templates\\linker_script'
p275
F1411756764.0
sS'c:\\marmalade\\7.4\\s3e\\makefile_builder\\docs\\deprecated.options.txt'
p276
F1411756764.0
sS'c:\\marmalade\\7.4\\s3e\\makefile_builder\\plugins\\s3e_xcode.pyc'
p277
F1411803920.2749066
sS'c:\\marmalade\\7.4\\s3e\\makefile_builder\\plugins\\s3e_ws8.pyc'
p278
F1411758010.0
sS'c:\\marmalade\\7.4\\s3e\\makefile_builder\\templates\\xcode4_DeployTool.xcscheme'
p279
F1411756766.0
sS'c:\\marmalade\\7.4\\s3e\\makefile_builder\\templates\\ws8_csproj_user.pyc'
p280
F1411758010.0
sS'c:\\marmalade\\7.4\\s3e\\makefile_builder\\plugins\\osx_scons.pyc'
p281
F1411758010.0
sS'c:\\marmalade\\7.4\\s3e\\makefile_builder\\templates\\ws81_csproj.pyc'
p282
F1411758010.0
sS'c:\\marmalade\\7.4\\s3e\\makefile_builder\\templates\\wp8_sln.pyc'
p283
F1411758010.0
sS'c:\\marmalade\\7.4\\s3e\\makefile_builder\\docs'
p284
F1411803679.0535107
sS'c:\\marmalade\\7.4\\s3e\\makefile_builder\\plugins\\ws8_ws8.pyc'
p285
F1411758010.0
sS'c:\\marmalade\\7.4\\s3e\\makefile_builder\\docs\\deployment_options.txt'
p286
F1411756764.0
sS'c:\\marmalade\\7.4\\s3e\\makefile_builder\\templates\\win32_vcxproj_filters.pyc'
p287
F1411758010.0
sS'c:\\marmalade\\7.4\\s3e\\makefile_builder\\templates\\win32_dsw.pyc'
p288
F1411758010.0
sS'c:\\marmalade\\7.4\\s3e\\makefile_builder\\plugins\\s3e_ws81.pyc'
p289
F1411758010.0
sS'c:\\marmalade\\7.4\\s3e\\makefile_builder\\plugins\\SConsEmitter.pyc'
p290
F1411758010.0
sS'c:\\marmalade\\7.4\\s3e\\makefile_builder\\templates\\wp81_vcxproj.pyc'
p291
F1411758010.0
sS'c:\\marmalade\\7.4\\s3e\\makefile_builder\\plugins\\win8_utils.pyc'
p292
F1411758010.0
sS'c:\\marmalade\\7.4\\s3e\\makefile_builder\\templates\\template.opt'
p293
F1411756764.0
sS'c:\\marmalade\\7.4\\s3e\\makefile_builder\\plugins\\vc7_utils.pyc'
p294
F1411758010.0
sS'c:\\marmalade\\7.4\\s3e\\makefile_builder\\templates\\win32_dsp.pyc'
p295
F1411758010.0
sS'c:\\marmalade\\7.4\\s3e\\makefile_builder\\plugins\\s3e_make.pyc'
p296
F1411758008.0
sS'c:\\marmalade\\7.4\\s3e\\makefile_builder\\templates\\rvct_linker_script'
p297
F1411756764.0
sS'c:\\marmalade\\7.4\\s3e\\makefile_builder\\templates\\win8_csproj.pyc'
p298
F1411758010.0
sS'c:\\marmalade\\7.4\\s3e\\makefile_builder\\templates\\xcode.py'
p299
F1411756766.0
sS'c:\\marmalade\\7.4\\s3e\\makefile_builder\\templates\\ws8_vcxproj.pyc'
p300
F1411758010.0
sS'c:\\marmalade\\7.4\\s3e\\makefile_builder\\templates\\wp81_csproj.pyc'
p301
F1411758010.0
sS'c:\\marmalade\\7.4\\s3e\\makefile_builder\\mkb_upstream.pyc'
p302
F1411758008.0
sS'c:\\marmalade\\7.4\\s3e\\makefile_builder\\templates\\win32_vcxproj.pyc'
p303
F1411758010.0
sS'c:\\marmalade\\7.4\\s3e\\makefile_builder\\templates\\ws8_csproj.pyc'
p304
F1411758010.0
sS'c:\\marmalade\\7.4\\s3e\\makefile_builder\\docs\\parse_options.pyc'
p305
F1411758012.0
sS'c:\\marmalade\\7.4\\s3e\\makefile_builder\\templates\\Info.plist'
p306
F1411756764.0
sS'c:\\marmalade\\7.4\\s3e\\makefile_builder\\templates\\wp81_sln.pyc'
p307
F1411758010.0
sS'c:\\marmalade\\7.4\\s3e\\makefile_builder\\templates\\ws81_csproj_user.pyc'
p308
F1411758010.0
sS'c:\\marmalade\\7.4\\s3e\\makefile_builder\\templates\\ws81_vcxproj.pyc'
p309
F1411758010.0
sccopy_reg
_reconstructor
p310
(cmkb_main
MkbFile
p311
c__builtin__
object
p312
Ntp313
Rp314
(dp315
g5
(lp316
sS'target_name'
p317
S'MVSStage3'
p318
sS'current_file'
p319
g122
sS'package_path'
p320
(lp321
sS'post_build'
p322
(lp323
(lp324
S'c:/marmalade/7.4/s3e/tools'
p325
aS'C:\\Marmalade\\7.4\\s3e\\python\\python.exe .\\process_map.py "$(TargetPath)"'
p326
aa(S'c:\\marmalade\\7.4\\s3e\\bin'
p327
S'"s3e_plink" -l "$(TargetPath)" '
p328
g156
tp329
asS'librarys'
p330
(lp331
g310
(cmkb_main
Library
p332
g312
Ntp333
Rp334
(dp335
S'name'
p336
S'vc6_compat.lib'
p337
sS'expand_name'
p338
I00
sS'include_spec_rvct_objs'
p339
(lp340
sS'include_all_objs'
p341
I00
sS'share_arm'
p342
I00
sS'arch'
p343
S'x86'
p344
sS'nodebug'
p345
I00
sg35
Nsbag310
(g332
g312
Ntp346
Rp347
(dp348
g336
S'iw2d'
p349
sg338
I01
sg339
(lp350
sg341
Nsg342
Nsg343
Nsg345
I00
sg35
Nsbag310
(g332
g312
Ntp351
Rp352
(dp353
g336
S'ATI_Compress_MT_VC7.lib'
p354
sg338
I00
sg339
g350
sg341
Nsg342
Nsg343
S'x86'
p355
sg345
I00
sg35
Nsbag310
(g332
g312
Ntp356
Rp357
(dp358
g336
S'iwgx'
p359
sg338
I01
sg339
g350
sg341
Nsg342
Nsg343
Nsg345
I00
sg35
Nsbag310
(g332
g312
Ntp360
Rp361
(dp362
g336
S'iwgl'
p363
sg338
I01
sg339
g350
sg341
Nsg342
Nsg343
Nsg345
I00
sg35
Nsbag310
(g332
g312
Ntp364
Rp365
(dp366
g336
S'iwutil'
p367
sg338
I01
sg339
g350
sg341
Nsg342
Nsg343
Nsg345
I00
sg35
Nsbag310
(g332
g312
Ntp368
Rp369
(dp370
g336
S'jpeg'
p371
sg338
I01
sg339
g350
sg341
Nsg342
Nsg343
Nsg345
I00
sg35
Nsbag310
(g332
g312
Ntp372
Rp373
(dp374
g336
S'z'
p375
sg338
I01
sg339
g350
sg341
Nsg342
Nsg343
Nsg345
I00
sg35
Nsbag310
(g332
g312
Ntp376
Rp377
(dp378
g336
S'png'
p379
sg338
I01
sg339
g350
sg341
Nsg342
Nsg343
Nsg345
I00
sg35
Nsbag310
(g332
g312
Ntp380
Rp381
(dp382
g336
S'iwgeom'
p383
sg338
I01
sg339
g350
sg341
Nsg342
Nsg343
Nsg345
I00
sg35
Nsbag310
(g332
g312
Ntp384
Rp385
(dp386
g336
S'iwresmanager'
p387
sg338
I01
sg339
g350
sg341
Nsg342
Nsg343
Nsg345
I00
sg35
Nsbag310
(g332
g312
Ntp388
Rp389
(dp390
g336
S'iwgxfont'
p391
sg338
I01
sg339
g350
sg341
Nsg342
Nsg343
Nsg345
I00
sg35
Nsbag310
(g332
g312
Ntp392
Rp393
(dp394
g336
S'tiniconv'
p395
sg338
I01
sg339
g350
sg341
Nsg342
Nsg343
Nsg345
I00
sg35
Nsbag310
(g332
g312
Ntp396
Rp397
(dp398
g336
S's3e_cpp'
p399
sg338
I01
sg339
g340
sg341
I00
sg342
I00
sg343
Nsg345
I00
sg35
Nsbag310
(g332
g312
Ntp400
Rp401
(dp402
g336
S's3e'
p403
sg338
I01
sg339
(lp404
S'iwcrt.o'
p405
asg341
I00
sg342
I00
sg343
Nsg345
I00
sg35
Nsbag310
(g332
g312
Ntp406
Rp407
(dp408
g336
g50
sg338
I01
sg339
g340
sg341
I00
sg342
I00
sg343
S'x86'
p409
sg345
I01
sg35
Nsbag310
(g332
g312
Ntp410
Rp411
(dp412
g336
g50
sg338
I01
sg339
g340
sg341
I00
sg342
I00
sg343
S'!x86'
p413
sg345
I01
sg35
Nsbag310
(g332
g312
Ntp414
Rp415
(dp416
g336
S'stdc++'
p417
sg338
I00
sg339
g340
sg341
I00
sg342
I00
sg343
S'mips'
p418
sg345
I00
sg35
Nsbag310
(g332
g312
Ntp419
Rp420
(dp421
g336
S'c'
p422
sg338
I00
sg339
g340
sg341
I00
sg342
I00
sg343
S'mips'
p423
sg345
I00
sg35
Nsbag310
(g332
g312
Ntp424
Rp425
(dp426
g336
S'm'
p427
sg338
I00
sg339
g340
sg341
I00
sg342
I00
sg343
S'mips'
p428
sg345
I00
sg35
Nsbag310
(g332
g312
Ntp429
Rp430
(dp431
g336
S'gcc'
p432
sg338
I00
sg339
g340
sg341
I00
sg342
I00
sg343
S'mips'
p433
sg345
I00
sg35
Nsbag310
(g332
g312
Ntp434
Rp435
(dp436
g336
S'stdc++'
p437
sg338
I00
sg339
g340
sg341
I00
sg342
I00
sg343
S'gcc_x86_android'
p438
sg345
I00
sg35
Nsbag310
(g332
g312
Ntp439
Rp440
(dp441
g336
g422
sg338
I00
sg339
g340
sg341
I00
sg342
I00
sg343
S'gcc_x86_android'
p442
sg345
I00
sg35
Nsbag310
(g332
g312
Ntp443
Rp444
(dp445
g336
g427
sg338
I00
sg339
g340
sg341
I00
sg342
I00
sg343
S'gcc_x86_android'
p446
sg345
I00
sg35
Nsbag310
(g332
g312
Ntp447
Rp448
(dp449
g336
g432
sg338
I00
sg339
g340
sg341
I00
sg342
I00
sg343
S'gcc_x86_android'
p450
sg345
I00
sg35
NsbasS'library_paths'
p451
(lp452
g310
(cmkb_main
LibraryPath
p453
g312
Ntp454
Rp455
(dp456
S'expand_path'
p457
I01
sg336
S'c:/marmalade/7.4/modules/iw2d'
p458
sbag310
(g453
g312
Ntp459
Rp460
(dp461
g457
I00
sg336
S'c:/marmalade/7.4/modules/iwgx/atitools'
p462
sbag310
(g453
g312
Ntp463
Rp464
(dp465
g457
I01
sg336
S'c:/marmalade/7.4/modules/iwgx'
p466
sbag310
(g453
g312
Ntp467
Rp468
(dp469
g457
I01
sg336
S'c:/marmalade/7.4/modules/iwgl'
p470
sbag310
(g453
g312
Ntp471
Rp472
(dp473
g457
I01
sg336
S'c:/marmalade/7.4/modules/iwutil'
p474
sbag310
(g453
g312
Ntp475
Rp476
(dp477
g457
I01
sg336
S'c:/marmalade/7.4/modules/third_party/libjpeg'
p478
sbag310
(g453
g312
Ntp479
Rp480
(dp481
g457
I01
sg336
S'c:/marmalade/7.4/modules/third_party/zlib'
p482
sbag310
(g453
g312
Ntp483
Rp484
(dp485
g457
I01
sg336
S'c:/marmalade/7.4/modules/third_party/libpng'
p486
sbag310
(g453
g312
Ntp487
Rp488
(dp489
g457
I01
sg336
S'c:/marmalade/7.4/modules/iwgeom'
p490
sbag310
(g453
g312
Ntp491
Rp492
(dp493
g457
I01
sg336
S'c:/marmalade/7.4/modules/iwresmanager'
p494
sbag310
(g453
g312
Ntp495
Rp496
(dp497
g457
I01
sg336
S'c:/marmalade/7.4/modules/iwgxfont'
p498
sbag310
(g453
g312
Ntp499
Rp500
(dp501
g457
I01
sg336
S'c:/marmalade/7.4/modules/third_party/tiniconv'
p502
sbag310
(g453
g312
Ntp503
Rp504
(dp505
g457
I01
sg336
S'c:/marmalade/7.4/s3e'
p506
sbasS'macros'
p507
(dp508
S'IW_USE_CALLSTACK'
p509
NsS'IW_MKF_IWGEOM'
p510
NsS'I3D_PLATFORM_S3E'
p511
NsS'IW_TRACE_CHANNEL_PVRTEXTOOL_VERBOSE'
p512
S'2'
p513
sS'IW_MKF_LIBJPEG'
p514
NsS'I3D_OS_S3E'
p515
NsS'IW_MKF_PVRTEXTOOL'
p516
NsS'IW_MKF_TINICONV'
p517
NsS'IW_APP_VERSION'
p518
S'"1.0"'
p519
sS'__S3E__'
p520
NsS'IW_MKF_IWRESMANAGER'
p521
NsS'IW_MKF_IWUTIL'
p522
NsS'IW_PLATFORM_S3E'
p523
NsS'IW_ASSERTION_CHANNEL_2D'
p524
S'1'
p525
sS'IW_APP_NAME'
p526
S'"MVSStage3"'
p527
sS'IW_MKF_IWGXFONT'
p528
NsS'IW_MKF_ZLIB'
p529
NsS'IW_MKF_IWGX'
p530
NsS'IW_MKF_IW2DSCENEGRAPH'
p531
NsS'IW_MKF_SOUNDENGINE'
p532
NsS'IW_USE_ASSERTIONS'
p533
NsS'_CRT_SECURE_NO_DEPRECATE'
p534
NsS'IW_MKF_IWGL'
p535
NsS'IW_MKF_LIBPNG'
p536
NsS'IW_TRACE_CHANNEL_IW_2DSCENEGRAPH'
p537
g525
sS'IW_DEBUG'
p538
NsS'IW_USE_TRACING'
p539
NsS'IW_ASSERTION_CHANNEL_IW_2DSCENEGRAPH'
p540
g525
sS'IW_TRACE_CHANNEL_PVRTEXTOOL'
p541
g525
sS'IW_SDK'
p542
NsS'S3E_INCLUDE_LEGACY'
p543
NsS'IW_MKF_IW2DSCENEGRAPHCORE'
p544
NsS'IW_MKF_IW2D'
p545
NsS'IW_ASSERTION_CHANNEL_PVRTEXTOOL'
p546
g525
ssS'done_warnings'
p547
(dp548
sS'subprojects'
p549
(dp550
g188
S'../iw2dscenegraphcore'
p551
sg181
S'zlib'
p552
sg180
S'libpng'
p553
sg179
S'libjpeg'
p554
sg186
S'tiniconv'
p555
sg176
S'iwgx'
p556
sg182
S'iwgeom'
p557
sg178
S'iwutil'
p558
sg187
S'iw2dscenegraph'
p559
sg175
S'iw2d'
p560
sg185
S'iwgxfont'
p561
sg183
S'iwresmanager'
p562
sg189
S'SoundEngine'
p563
sg177
S'iwgl'
p564
sg184
S'PVRTexTool'
p565
ssS'deployments'
p566
(dp567
S'Default'
p568
g310
(cdeployment
Deployment
p569
g312
Ntp570
Rp571
(dp572
S'got_version'
p573
I0
sS'assets'
p574
g568
sS'mkb'
p575
g314
sS'target'
p576
Nsg343
(lp577
sS'options'
p578
(dp579
S'iphone-link-lib'
p580
(lp581
sS'game-icf'
p582
NsS'android-tm'
p583
NsS'winmobile-icon32'
p584
NsS'ws8-logo-image150x150'
p585
NsS'wp81-logo-image150x150'
p586
NsS'ws81-product-version'
p587
NsS'osx-ext-dll'
p588
(lp589
S'c:/marmalade/7.4/extensions/pvrtextool/lib/osx/libPVRTexTool.dylib'
p590
asS'iphone-provisioning-profile'
p591
NsS'ws8-splash-screen-image620x300'
p592
NsS'wp81-extra-pri'
p593
(lp594
sS'ws8-ext-capabilities'
p595
(lp596
sS'android-icon-hdpi'
p597
NsS'brew-icon-large'
p598
NsS'iphone-splash-full-orient'
p599
NsS'wp8-tile-fliptemplate-supports-large'
p600
NsS'iphone-show-status-bar'
p601
NsS'roku-requires-mkv'
p602
NsS'long-caption'
p603
NsS'android-pkgname'
p604
NsS'wp81-publisher-display-name'
p605
NsS'blackberry-permissions-read-device-identifying-information'
p606
NsS'ws81-certificate-end-date'
p607
NsS'psp-dlgcontentid'
p608
NsS'iphone-minimum-ios-version'
p609
NsS'target-folder'
p610
NsS'tizen-dist1-CA-path'
p611
NsS'symbian-icon2-format'
p612
NsS'tizen-author-key'
p613
NsS'firefoxos-icon-128X128'
p614
NsS'iphone-region'
p615
NsS'uiq3-icon3-mask'
p616
NsS'brew-encoding'
p617
NsS'android-x86'
p618
NsS'nds-initialcode'
p619
NsS'iphone-persistent-wifi'
p620
NsS'psp-snd0'
p621
NsS'roku-icon-focus-hd'
p622
NsS'winmobile-install-folder'
p623
NsS'android-external-res'
p624
(lp625
sS'ws8-product-version'
p626
NsS'brew-priviledges'
p627
NsS'iphone-icon-ipad-search'
p628
NsS'iphone-icon-ipad'
p629
NsS'roku-hidden'
p630
NsS'psp-titlename'
p631
NsS'wp81-product-version'
p632
NsS'symbian-icon1-mask'
p633
NsS'psp-parentallevel'
p634
NsS'splashscreen-use-all'
p635
NsS'wp8-author'
p636
NsS'symbian-disable-ecompxl'
p637
NsS'splashscreen-auto-onblack'
p638
NsS'win32-ext-dll'
p639
(lp640
S'c:/marmalade/7.4/extensions/pvrtextool/lib/win32/PVRTexTool.dll'
p641
asS'iphone-development-key'
p642
NsS'winmobile-icon48'
p643
NsS'android-unsigned'
p644
NsS'osx-appstore-category'
p645
NsS'version-revision'
p646
NsS'roku-icon-focus-sd'
p647
NsS'android-keystore'
p648
NsS'winmobile-png90'
p649
NsS'iphone-icon-ipad-high-res'
p650
NsS'iphone-disable-ipad'
p651
NsS'wp8-product-id'
p652
NsS'ws81-splash-screen-background'
p653
NsS'wp8-ext-capabilities'
p654
(lp655
sS'iphone-ipad-only'
p656
NsS'symbian-icon1-mask-black'
p657
NsS'iphone-nosign'
p658
NsS'iphone-bundle-localisations'
p659
NsS'winmobile-png60'
p660
NsS'blackberry-permissions-access-shared'
p661
NsS'blackberry-author'
p662
NsS'android-icon-xxxhdpi'
p663
NsS'olddeploytoolstyle'
p664
NsS'android_icon_gallery'
p665
NsS'wp81-splash-screen-background'
p666
NsS'winmobile-cab-compress'
p667
NsS'iphone-info-plist'
p668
NsS'ws81-ext-managed-dll'
p669
(lp670
sS'playbook-cskpass'
p671
NsS'ws8-distribution-pfx-password'
p672
NsS'symbian-key'
p673
NsS'app-icf'
p674
NsS'blackberry-storepass'
p675
NsS'wp8-tile-fliptemplate-back-title'
p676
NsS'brew-compress-loader'
p677
NsS'win32-pref-windowposy'
p678
NsS'win32-pref-windowposx'
p679
NsS'roku-requires-audiometadata'
p680
NsS'wp8-exclude-low-mem'
p681
NsS'iphone-icon-ipad-search-high-res'
p682
NsS'iphone-link-libdir'
p683
(lp684
sS'wp81-ext-capabilities'
p685
(lp686
sS'blackberry-permissions-read-geolocation'
p687
NsS'ws81-ext-device-capabilities'
p688
(lp689
sS'tizen-signed'
p690
NsS'android-extra-application-manifest'
p691
(lp692
sS'ws8-ext-native-dll'
p693
(lp694
sS'symbian-icon2-mask'
p695
NsS'iphone-backgroundmode-audio'
p696
NsS'webos-memory'
p697
NsS'android-keypass'
p698
NsS'name'
p699
NsS'uiq3-icon2-format'
p700
NsS'roku-splash-screen-sd'
p701
NsS'auto-derbh'
p702
NsS'roku-icon-side-sd'
p703
NsS'android-external-assets'
p704
(lp705
sS'nds-publicsavedatasize'
p706
NsS'splashscreen'
p707
NsS'brew-mif'
p708
NsS'iphone-icon-settings-high-res'
p709
NsS'android-manifest'
p710
NsS'ws81-splash-screen-image620x300'
p711
NsS'wp81-product-name'
p712
NsS's3e-compression'
p713
NsS'tizen-author-password'
p714
NsS'wp8-tile-fliptemplate-back-content'
p715
NsS'blackberry-extra-descriptor'
p716
(lp717
sS'symbian-icon1'
p718
NsS'symbian-icon2'
p719
NsS'android-extra-styles-file'
p720
NsS'wp81-publisher-id'
p721
NsS'nds-bannertitle-jp'
p722
NsS'wp81-logo-image44x44'
p723
NsS'osx-sign-for-store'
p724
NsS'symbian7-uid'
p725
NsS'wp8-tile-fliptemplate-large-back-content'
p726
NsS'wp81-phone-publisher-id'
p727
NsS'nds-bannertitle-cn'
p728
NsS'iphone-distribution-key'
p729
NsS'android-icon-gallery'
p730
NsS'blackberry-keystore'
p731
NsS'ws8-extra-res'
p732
(lp733
sS'caption'
p734
NsS'android-extra-manifest'
p735
(lp736
sS'wp81-ext-sdk-ref'
p737
(lp738
sS'android-icon-xxhdpi'
p739
NsS'version-minor'
p740
NsS'iphone-link-libdirs'
p741
(lp742
sS'iphone-icon-large'
p743
NsS'symbian-keypwd'
p744
NsS'symbian8-uid'
p745
NsS'symbian-cert-key'
p746
NsS'winmobile-ampd-part-number'
p747
NsS'arch'
p748
NsS'nds-romheadertemplate'
p749
NsS'webos-icon'
p750
NsS'wp81-ext-device-capabilities'
p751
(lp752
sS'psp-dlgprotectdocument'
p753
NsS'ws8-splash-screen-background'
p754
NsS'android-icon-mdpi'
p755
NsS'nds-icon'
p756
NsS'ws8-custom-manifest-fill'
p757
NsS'iphone-development-cert'
p758
NsS'blackberry-phone-icon'
p759
NsS'iphone-enable-4inch-retina'
p760
NsS'ws8-custom-manifest'
p761
NsS'version-major'
p762
NsS'wp8-genre-isgame'
p763
NsS'uiq3-uid'
p764
NsS'iphone-splash-retina-generate'
p765
NsS'tizen-hw-acceleration'
p766
NsS'iphone_bundle_localisations'
p767
NsS'tizen-dist1-key'
p768
NsS'wp81-custom-manifest-fill'
p769
NsS'wp8-custom-manifest'
p770
NsS'nds-bannertitle-ge'
p771
NsS'iphone-sign-for-distribution'
p772
NsS'wp8-tile-fliptemplate-medium-back-image'
p773
NsS'wp8-publisher-id'
p774
NsS'icon'
p775
NsS'wp8-exclude-wxga'
p776
NsS'wp81-identity-name'
p777
NsS'uiq3-icon2-mask'
p778
NsS'iphone-splashscreen-portrait'
p779
NsS'iphone-icon-high-res'
p780
NsS'ws81-distribution-pfx-password'
p781
NsS'playbook-author'
p782
NsS'android-icon-xhdpi'
p783
NsS'linux-ext-lib'
p784
(lp785
sS'blackberry-permissions-access-internet'
p786
NsS'wp8-exclude-720p'
p787
NsS'lgtv-use-drm'
p788
NsS'symbian-platsecflags'
p789
NsS'ws8-description'
p790
NsS'blackberry-playbook-icon'
p791
NsS'copyright'
p792
NsS'win32-gles-directory'
p793
NsS'version'
p794
NsS'ws81-logo-image150x150'
p795
NsS'osx-signing-identity-app'
p796
NsS'tizen-project-url'
p797
NsS'symbian-icon-svg'
p798
NsS'android-aliasname'
p799
NsS'psp-dlgmanual'
p800
NsS'brew-uid'
p801
NsS'symbian-locationsupport'
p802
NsS'wp81-logo-image50x50'
p803
NsS'ws8-ext-managed-dll'
p804
(lp805
sS'nds-bannertitle-it'
p806
NsS'ws81-custom-manifest-fill'
p807
NsS'ws8-ext-sdk-manifest-part'
p808
(lp809
sS'uiq3-icon1-mask'
p810
NsS'winmobile-icon16'
p811
NsS'ws8-product-name'
p812
NsS'blackberry-cskpass'
p813
NsS'winmobile-start-menu-folder'
p814
NsS'brew-clsid'
p815
NsS'roku-requires-bluetooth'
p816
NsS'ws8-ext-device-capabilities'
p817
(lp818
sS'blackberry-permissions-use-camera'
p819
NsS'ws81-extra-pri'
p820
(lp821
sS'iphone-prerendered-icon'
p822
NsS'iphone-appid'
p823
NsS'ws8-identity-name'
p824
NsS'tizen-dist2-CA-path'
p825
NsS'android-external-jars'
p826
(lp827
sS'winmobile-icon64'
p828
NsS'blackberry-permissions-post-notification'
p829
NsS'winmobile-setup-dll'
p830
NsS'firefoxos-manifest'
p831
NsS'win8-winrt-extra-res'
p832
(lp833
sS'wp81-ext-sdk-manifest-part'
p834
(lp835
sS'symbian9-uid'
p836
NsS'iphone-icon-ipad-ios7'
p837
NsS'winmobile-trace-file'
p838
NsS'roku-splash-color'
p839
NsS'psp-appversion'
p840
NsS'ws8-publisher-id'
p841
NsS'android-supports-gl-texture'
p842
(lp843
sS'winmobile-png45'
p844
NsS'wp81-extra-res'
p845
(lp846
sS'android-storepass'
p847
NsS'osx-signing-identity-inst'
p848
NsS'android-custom-activity'
p849
NsS'psp-discversion'
p850
NsS'wp81-ext-managed-dll'
p851
(lp852
sS'psp-copyright'
p853
NsS'embed-icf'
p854
NsS'tizen-manifest'
p855
NsS'osx-icon'
p856
NsS'webos-appinfo'
p857
NsS'psp-dlghealthwarning'
p858
NsS'webos-appid'
p859
NsS'roku-icon-side-hd'
p860
NsS'iphone-icon-ipad-search-high-res-ios7'
p861
NsS'ws81-ext-sdk-manifest-part'
p862
(lp863
sS'loader_name_prefix'
p864
NsS'nds-titlename'
p865
NsS'ws81-logo-image50x50'
p866
NsS'wp81-custom-manifest'
p867
NsS'osx-entitlements-plist'
p868
NsS'psp-dlgicon0'
p869
NsS'winmobile-nouninstall'
p870
NsS'psp-discid'
p871
NsS'tizen-dist2-password'
p872
NsS'ws8-ext-sdk-ref'
p873
(lp874
sS'iphone-extra-string'
p875
(lp876
sS'version-string'
p877
NsS'iphone-icon-high-res-ios7'
p878
NsS'blackberry-permissions-record-audio'
p879
NsS'ws8-certificate-end-date'
p880
NsS'tizen-so'
p881
(lp882
sS'wp8-tile-fliptemplate-small-image'
p883
NsS'playbook-authorid'
p884
NsS'iphone-signing-identity'
p885
NsS'roku-persist-quota'
p886
NsS'nds-bannertitle-fr'
p887
NsS'ws8-distribution-pfx'
p888
NsS'ws8-publisher-display-name'
p889
NsS'brew-icon-small'
p890
NsS'psp-dlgpic2'
p891
NsS'psp-dlgpic0'
p892
NsS'psp-pic0'
p893
NsS'psp-pic1'
p894
NsS'win32-pref-windowtitle'
p895
NsS'psp-icon0'
p896
NsS'psp-icon1'
p897
NsS'ws81-identity-name'
p898
NsS'winmobile-icon'
p899
NsS'iphone-no-splash'
p900
NsS'iphone-splash'
p901
NsS'iphone-app-fonts'
p902
NsS'wp8-ext-native-dll'
p903
(lp904
sS'wp81-splash-screen-image480x800'
p905
NsS'ws81-distribution-cer'
p906
NsS'uiq3-icon2'
p907
NsS'uiq3-icon3'
p908
NsS'uiq3-icon1'
p909
NsS'uiq3-icon1-format'
p910
NsS'ws8-logo-image50x50'
p911
NsS'symbian-icon2-mask-black'
p912
NsS'symbian-run-on-install'
p913
NsS'wp81-description'
p914
NsS'ws81-publisher-display-name'
p915
NsS'firefoxos-xulrunner'
p916
NsS'symbian-soundrecordsupport'
p917
NsS'nds-bannertitle-sp'
p918
NsS'psp-producer'
p919
NsS'iphone-apple-wwdr-cert'
p920
NsS'android-icon-nonstandard'
p921
NsS'win32-pref-processtitle'
p922
NsS'nds-bannertitle-hn'
p923
NsS'tizen-dist2-key'
p924
NsS'brew-depends'
p925
NsS'ws81-custom-manifest'
p926
NsS'iphone-icon-ipad-search-ios7'
p927
NsS'brew-icon-medium'
p928
NsS'iphone-bundle-url-name'
p929
NsS'wp8-tile-fliptemplate-large-front-image'
p930
NsS'tizen-dist2-CA-root-path'
p931
NsS'ws81-description'
p932
NsS'uiq3-icon3-format'
p933
NsS'ws81-logo-image30x30'
p934
NsS'win8-phone-extra-res'
p935
(lp936
sS'iphone-signing-host'
p937
NsS'tizen-icon'
p938
NsS'osx-info-plist'
p939
NsS'symbian-icon1-format'
p940
NsS'win8-store-extra-res'
p941
(lp942
sS'blackberry-authorid'
p943
NsS'ws81-publisher-id'
p944
NsS'ws81-distribution-pfx'
p945
NsS'wp8-description'
p946
NsS'iphone-link-opts'
p947
(lp948
sS'ws81-ext-sdk-ref'
p949
(lp950
sS'roku-splash-min-time'
p951
NsS'wp8-tile-fliptemplate-medium-front-image'
p952
NsS'provider'
p953
NsS'playbook-keystore'
p954
NsS'tizen-appid'
p955
NsS'wp8-extra-res'
p956
(lp957
sS'symbian-osexecsupport'
p958
NsS'android-install-location'
p959
NsS'nds-privatesavedatasize'
p960
NsS'playbook-storepass'
p961
NsS'android-icon-ldpi'
p962
NsS'manufacturer'
p963
NsS'itunes-artwork'
p964
NsS'iphone-extra-sections'
p965
NsS'ws81-product-name'
p966
NsS'ws81-ext-native-dll'
p967
(lp968
sS'ws8-extra-pri'
p969
(lp970
sS'win32-icon'
p971
NsS'ws8-logo-image30x30'
p972
NsS'wp8-ext-managed-dll'
p973
(lp974
sS'iphone-splashscreen-landscape'
p975
NsS'symbian-maxheapsize'
p976
NsS'nds-makercode'
p977
NsS'priv-sign-key'
p978
NsS'networking'
p979
NsS'android-icon'
p980
NsS'iphone-icon-settings'
p981
NsS'wp81-phone-product-id'
p982
NsS'firefoxos-icon-60X60'
p983
NsS'iphone-distribution-cert'
p984
NsS'android_extra_strings'
p985
NsS'nds-bannertitle-en'
p986
NsS'wp8-tile-fliptemplate-title'
p987
NsS'android-so'
p988
(lp989
sS'wp8-higher-mem'
p990
NsS'wp8-ext-sdk-ref'
p991
(lp992
sS'roku-splash-screen-hd'
p993
NsS'iphone-bundle-url-schemes'
p994
NsS'roku-screensaver-private'
p995
NsS'osx-extra-res'
p996
(lp997
sS'ws81-extra-res'
p998
(lp999
sS'playbook-icon'
p1000
NsS'uid'
p1001
NsS'pkguid-as-uid'
p1002
NsS'wp81-ext-native-dll'
p1003
(lp1004
sS'tizen-dist1-password'
p1005
NsS'roku-screensaver-title'
p1006
NsS'osx-minimum-osx-version'
p1007
NsS'symbian-cert'
p1008
NsS'iphone-icon'
p1009
NsS'ws81-ext-capabilities'
p1010
(lp1011
sS'ws8-distribution-cer'
p1012
NsS'playbook-access-shared'
p1013
NsS'iphone-icon-ipad-high-res-ios7'
p1014
NsS'iphone-link-libs'
p1015
(lp1016
sS'wp8-exclude-wvga'
p1017
NsS'assets'
p1018
NsS'wp8-tile-fliptemplate-large-back-image'
p1019
NsS'wp8-custom-manifest-fill'
p1020
NsS'pub-sign-key'
p1021
NsS'android-extra-strings'
p1022
NsS'tizen-author-CA-path'
p1023
Nssg336
g568
sbssS'platform'
p1024
S'S3E'
p1025
sg65
S'1.0'
p1026
sS'arcade_platform'
p1027
g4
sS'extensions'
p1028
(dp1029
sS'source_groups_tree'
p1030
(dp1031
S'(libpng)'
p1032
(dp1033
S'h'
p1034
(dp1035
S'c:/marmalade/7.4/modules/third_party/libpng/h/png.h'
p1036
(lp1037
I1
a(dp1038
asS'c:/marmalade/7.4/modules/third_party/libpng/h/pngconf.h'
p1039
(lp1040
I1
ag1038
assS'c:/marmalade/7.4/modules/third_party/libpng/libpng.mkf'
p1041
(lp1042
I1
a(dp1043
assS'(libjpeg)'
p1044
(dp1045
g1034
(dp1046
S'c:/marmalade/7.4/modules/third_party/libjpeg/h/jerror.h'
p1047
(lp1048
I1
a(dp1049
asS'c:/marmalade/7.4/modules/third_party/libjpeg/h/jmemsys.h'
p1050
(lp1051
I1
ag1049
asS'c:/marmalade/7.4/modules/third_party/libjpeg/h/jchuff.h'
p1052
(lp1053
I1
ag1049
asS'c:/marmalade/7.4/modules/third_party/libjpeg/h/jpeglib.h'
p1054
(lp1055
I1
ag1049
asS'c:/marmalade/7.4/modules/third_party/libjpeg/h/cdjpeg.h'
p1056
(lp1057
I1
ag1049
asS'c:/marmalade/7.4/modules/third_party/libjpeg/h/jinclude.h'
p1058
(lp1059
I1
ag1049
asS'c:/marmalade/7.4/modules/third_party/libjpeg/h/jconfig.h'
p1060
(lp1061
I1
ag1049
asS'c:/marmalade/7.4/modules/third_party/libjpeg/h/cderror.h'
p1062
(lp1063
I1
ag1049
asS'c:/marmalade/7.4/modules/third_party/libjpeg/h/jdct.h'
p1064
(lp1065
I1
ag1049
asS'c:/marmalade/7.4/modules/third_party/libjpeg/h/jversion.h'
p1066
(lp1067
I1
ag1049
asS'c:/marmalade/7.4/modules/third_party/libjpeg/h/transupp.h'
p1068
(lp1069
I1
ag1049
asS'c:/marmalade/7.4/modules/third_party/libjpeg/h/jdhuff.h'
p1070
(lp1071
I1
ag1049
asS'c:/marmalade/7.4/modules/third_party/libjpeg/h/jpegint.h'
p1072
(lp1073
I1
ag1049
asS'c:/marmalade/7.4/modules/third_party/libjpeg/h/jmorecfg.h'
p1074
(lp1075
I1
ag1049
assS'c:/marmalade/7.4/modules/third_party/libjpeg/libjpeg.mkf'
p1076
(lp1077
I1
a(dp1078
assS'(tiniconv)'
p1079
(dp1080
S'c:/marmalade/7.4/modules/third_party/tiniconv/source/tiniconv_int.h'
p1081
(lp1082
I1
a(dp1083
asS'c:/marmalade/7.4/modules/third_party/tiniconv/tiniconv.mkf'
p1084
(lp1085
I1
a(dp1086
asS'c:/marmalade/7.4/modules/third_party/tiniconv/source/tiniconv.h'
p1087
(lp1088
I1
ag1083
assS'(SoundEngine)'
p1089
(dp1090
S'c:/marmalade/7.4/examples/gametutorial/cpp/modules/soundengine/h/IwSoundInst.h'
p1091
(lp1092
I1
a(dp1093
asS'c:/marmalade/7.4/examples/gametutorial/cpp/modules/soundengine/h/IwSoundWAV.h'
p1094
(lp1095
I1
ag1093
asS'c:/marmalade/7.4/examples/gametutorial/cpp/modules/soundengine/source/IwSoundParams.cpp'
p1096
(lp1097
I1
ag1093
asS'c:/marmalade/7.4/examples/gametutorial/cpp/modules/soundengine/source/IwSoundManager.cpp'
p1098
(lp1099
I1
ag1093
asS'c:/marmalade/7.4/examples/gametutorial/cpp/modules/soundengine/h/IwSoundPCM.h'
p1100
(lp1101
I1
ag1093
asS'Docs'
p1102
(dp1103
S'c:/marmalade/7.4/examples/gametutorial/cpp/modules/soundengine/docs/iwsound.config.txt'
p1104
(lp1105
I1
ag1093
assS'c:/marmalade/7.4/examples/gametutorial/cpp/modules/soundengine/h/IwSoundGroup.h'
p1106
(lp1107
I1
ag1093
asS'c:/marmalade/7.4/examples/gametutorial/cpp/modules/soundengine/soundengine.mkf'
p1108
(lp1109
I1
a(dp1110
asS'c:/marmalade/7.4/examples/gametutorial/cpp/modules/soundengine/h/IwSoundManager.h'
p1111
(lp1112
I1
ag1093
asS'c:/marmalade/7.4/examples/gametutorial/cpp/modules/soundengine/source/IwSoundGroup.cpp'
p1113
(lp1114
I1
ag1093
asS'c:/marmalade/7.4/examples/gametutorial/cpp/modules/soundengine/source/IwSoundADPCM.cpp'
p1115
(lp1116
I1
ag1093
asS'c:/marmalade/7.4/examples/gametutorial/cpp/modules/soundengine/source/IwSoundPCM.cpp'
p1117
(lp1118
I1
ag1093
asS'c:/marmalade/7.4/examples/gametutorial/cpp/modules/soundengine/h/IwSoundSpec.h'
p1119
(lp1120
I1
ag1093
asS'c:/marmalade/7.4/examples/gametutorial/cpp/modules/soundengine/source/IwSoundData.cpp'
p1121
(lp1122
I1
ag1093
asS'c:/marmalade/7.4/examples/gametutorial/cpp/modules/soundengine/source/IwResHandlerWAV.cpp'
p1123
(lp1124
I1
ag1093
asS'c:/marmalade/7.4/examples/gametutorial/cpp/modules/soundengine/h/IwSoundADPCM.h'
p1125
(lp1126
I1
ag1093
asS'c:/marmalade/7.4/examples/gametutorial/cpp/modules/soundengine/h/IwSoundParams.h'
p1127
(lp1128
I1
ag1093
asS'c:/marmalade/7.4/examples/gametutorial/cpp/modules/soundengine/h/IwSound.h'
p1129
(lp1130
I1
ag1093
asS'c:/marmalade/7.4/examples/gametutorial/cpp/modules/soundengine/source/IwSoundSpec.cpp'
p1131
(lp1132
I1
ag1093
asS'c:/marmalade/7.4/examples/gametutorial/cpp/modules/soundengine/h/IwSoundData.h'
p1133
(lp1134
I1
ag1093
asS'c:/marmalade/7.4/examples/gametutorial/cpp/modules/soundengine/source/IwSoundInst.cpp'
p1135
(lp1136
I1
ag1093
asS'c:/marmalade/7.4/examples/gametutorial/cpp/modules/soundengine/h/IwResHandlerWAV.h'
p1137
(lp1138
I1
ag1093
asS'c:/marmalade/7.4/examples/gametutorial/cpp/modules/soundengine/source/IwSoundWAV.cpp'
p1139
(lp1140
I1
ag1093
assS'source'
p1141
(dp1142
S'e:/Documents/Michiel/Programmeren/Marmalade/MVSStage3/source/audio.cpp'
p1143
(lp1144
I1
a(dp1145
asS'e:/Documents/Michiel/Programmeren/Marmalade/MVSStage3/source/resources.cpp'
p1146
(lp1147
I1
ag1145
asS'e:/Documents/Michiel/Programmeren/Marmalade/MVSStage3/source/input.cpp'
p1148
(lp1149
I1
ag1145
asS'e:/Documents/Michiel/Programmeren/Marmalade/MVSStage3/source/pauseMenu.cpp'
p1150
(lp1151
I1
ag1145
asS'e:/Documents/Michiel/Programmeren/Marmalade/MVSStage3/source/scene.cpp'
p1152
(lp1153
I1
ag1145
asS'e:/Documents/Michiel/Programmeren/Marmalade/MVSStage3/source/game.cpp'
p1154
(lp1155
I1
ag1145
asS'e:/Documents/Michiel/Programmeren/Marmalade/MVSStage3/source/mainMenu.cpp'
p1156
(lp1157
I1
ag1145
asS'e:/Documents/Michiel/Programmeren/Marmalade/MVSStage3/source/MVSStage3_main.cpp'
p1158
(lp1159
I1
ag1145
assS'Extensions'
p1160
(dp1161
S'PVRTexTool'
p1162
(dp1163
S'interface'
p1164
(dp1165
S'c:/marmalade/7.4/extensions/pvrtextool/interface/PVRTexTool_interface.cpp'
p1166
(lp1167
I1
a(dp1168
asS'c:/marmalade/7.4/extensions/pvrtextool/interface/PVRTexTool.defines.txt'
p1169
(lp1170
I1
ag1168
assS'c:/marmalade/7.4/extensions/pvrtextool/pvrtextool.mkf'
p1171
(lp1172
I1
a(dp1173
asS'c:/marmalade/7.4/extensions/pvrtextool/h/PVRTexTool.h'
p1174
(lp1175
I1
ag1168
asssS"'Marmalade Studio'"
p1176
(dp1177
S'iw2dscenegraph'
p1178
(dp1179
S'c:/marmalade/7.4/modules/iw2dscenegraph/h/Iw2DSceneGraph.h'
p1180
(lp1181
I1
a(dp1182
asS'c:/marmalade/7.4/modules/iw2dscenegraph/source/Iw2DSceneGraph.cpp'
p1183
(lp1184
I1
ag1182
asS'c:/marmalade/7.4/modules/iw2dscenegraph/iw2dscenegraph.mkf'
p1185
(lp1186
I1
a(dp1187
asS'c:/marmalade/7.4/modules/iw2dscenegraph/docs/iw2dscenegraph.defines.txt'
p1188
(lp1189
I1
ag1182
assS'iwgl'
p1190
(dp1191
S'c:/marmalade/7.4/modules/iwgl/iwgl.mkf'
p1192
(lp1193
I1
a(dp1194
asS'c:/marmalade/7.4/modules/iwgl/docs/iwgl.config.txt'
p1195
(lp1196
I1
a(dp1197
asS'c:/marmalade/7.4/modules/iwgl/h/IwGL.h'
p1198
(lp1199
I1
ag1197
asS'c:/marmalade/7.4/modules/iwgl/h/IwGLExt.h'
p1200
(lp1201
I1
ag1197
assS'iw2d'
p1202
(dp1203
S'c:/marmalade/7.4/modules/iw2d/docs/iw2d.config.txt'
p1204
(lp1205
I1
a(dp1206
asS'c:/marmalade/7.4/modules/iw2d/iw2d.mkf'
p1207
(lp1208
I1
a(dp1209
asS'c:/marmalade/7.4/modules/iw2d/h/Iw2D.h'
p1210
(lp1211
I1
ag1206
asS'c:/marmalade/7.4/modules/iw2d/docs/iw2d_public.defines.txt'
p1212
(lp1213
I1
ag1206
assS'iwgxfont'
p1214
(dp1215
S'c:/marmalade/7.4/modules/iwgxfont/docs/iwgxfont_public.defines.txt'
p1216
(lp1217
I1
a(dp1218
asS'c:/marmalade/7.4/modules/iwgxfont/h/IwGxFontGlyph.h'
p1219
(lp1220
I1
ag1218
asS'c:/marmalade/7.4/modules/iwgxfont/docs/iwgxfont.config.txt'
p1221
(lp1222
I1
ag1218
asS'c:/marmalade/7.4/modules/iwgxfont/h/IwGxFont.h'
p1223
(lp1224
I1
ag1218
asS'c:/marmalade/7.4/modules/iwgxfont/h/IwGxFontTypes.h'
p1225
(lp1226
I1
ag1218
asS'c:/marmalade/7.4/modules/iwgxfont/h/IwGxFontPreparedData.h'
p1227
(lp1228
I1
ag1218
asS'c:/marmalade/7.4/modules/iwgxfont/h/IwGxFontState.h'
p1229
(lp1230
I1
ag1218
asS'c:/marmalade/7.4/modules/iwgxfont/h/IwGxFontContainer.h'
p1231
(lp1232
I1
ag1218
asS'c:/marmalade/7.4/modules/iwgxfont/iwgxfont.mkf'
p1233
(lp1234
I1
a(dp1235
assS'iwgeom'
p1236
(dp1237
S'c:/marmalade/7.4/modules/iwgeom/docs/iwgeom.config.txt'
p1238
(lp1239
I1
a(dp1240
asS'c:/marmalade/7.4/modules/iwgeom/h/IwGeomFIntersect.h'
p1241
(lp1242
I1
ag1240
asS'c:/marmalade/7.4/modules/iwgeom/h/IwGeomMat2D.h.tpl'
p1243
(lp1244
I1
ag1240
asS'c:/marmalade/7.4/modules/iwgeom/h/IwGeomCore.h'
p1245
(lp1246
I1
ag1240
asS'c:/marmalade/7.4/modules/iwgeom/h/IwGeomVec.h.tpl'
p1247
(lp1248
I1
ag1240
asS'c:/marmalade/7.4/modules/iwgeom/h/IwGeomFSphere.h'
p1249
(lp1250
I1
ag1240
asS'c:/marmalade/7.4/modules/iwgeom/h/IwGeomFQuat.h'
p1251
(lp1252
I1
ag1240
asS'c:/marmalade/7.4/modules/iwgeom/h/IwGeomMenu.h'
p1253
(lp1254
I1
ag1240
asS'c:/marmalade/7.4/modules/iwgeom/h/IwGeomFMat2D.h'
p1255
(lp1256
I1
ag1240
asS'c:/marmalade/7.4/modules/iwgeom/h/IwGeomFVec4.h'
p1257
(lp1258
I1
ag1240
asS'c:/marmalade/7.4/modules/iwgeom/h/IwGeomQuat.h'
p1259
(lp1260
I1
ag1240
asS'c:/marmalade/7.4/modules/iwgeom/h/IwGeomFBBox.h'
p1261
(lp1262
I1
ag1240
asS'c:/marmalade/7.4/modules/iwgeom/h/IwGeomSVec4.h'
p1263
(lp1264
I1
ag1240
asS'c:/marmalade/7.4/modules/iwgeom/h/IwGeomFVec2.h'
p1265
(lp1266
I1
ag1240
asS'c:/marmalade/7.4/modules/iwgeom/h/IwGeomVec.h'
p1267
(lp1268
I1
ag1240
asS'c:/marmalade/7.4/modules/iwgeom/h/IwGeomPlane.h'
p1269
(lp1270
I1
ag1240
asS'c:/marmalade/7.4/modules/iwgeom/h/IwGeomQuat.h.tpl'
p1271
(lp1272
I1
ag1240
asS'c:/marmalade/7.4/modules/iwgeom/h/IwGeomSVec3.h'
p1273
(lp1274
I1
ag1240
asS'c:/marmalade/7.4/modules/iwgeom/h/IwGeomMat.h'
p1275
(lp1276
I1
ag1240
asS'c:/marmalade/7.4/modules/iwgeom/h/IwGeomVec3.h'
p1277
(lp1278
I1
ag1240
asS'c:/marmalade/7.4/modules/iwgeom/h/IwGeomVec2.h'
p1279
(lp1280
I1
ag1240
asS'c:/marmalade/7.4/modules/iwgeom/h/IwGeomLegacy.h'
p1281
(lp1282
I1
ag1240
asS'c:/marmalade/7.4/modules/iwgeom/h/IwGeomSQuat.h'
p1283
(lp1284
I1
ag1240
asS'c:/marmalade/7.4/modules/iwgeom/iwgeom.mkf'
p1285
(lp1286
I1
a(dp1287
asS'c:/marmalade/7.4/modules/iwgeom/h/IwGeomVec4.h'
p1288
(lp1289
I1
ag1240
asS'c:/marmalade/7.4/modules/iwgeom/h/IwGeomBBox.h'
p1290
(lp1291
I1
ag1240
asS'c:/marmalade/7.4/modules/iwgeom/h/IwGeomIntersect.h'
p1292
(lp1293
I1
ag1240
asS'c:/marmalade/7.4/modules/iwgeom/h/IwGeomSVec2.h'
p1294
(lp1295
I1
ag1240
asS'c:/marmalade/7.4/modules/iwgeom/h/IwGeomMat2D.h'
p1296
(lp1297
I1
ag1240
asS'c:/marmalade/7.4/modules/iwgeom/h/IwGeomSphere.h'
p1298
(lp1299
I1
ag1240
asS'c:/marmalade/7.4/modules/iwgeom/h/IwGeomFVec3.h'
p1300
(lp1301
I1
ag1240
asS'c:/marmalade/7.4/modules/iwgeom/h/IwGeom.h'
p1302
(lp1303
I1
ag1240
asS'c:/marmalade/7.4/modules/iwgeom/h/IwGeomMat.h.tpl'
p1304
(lp1305
I1
ag1240
asS'c:/marmalade/7.4/modules/iwgeom/h/IwGeomFPlane.h'
p1306
(lp1307
I1
ag1240
asS'c:/marmalade/7.4/modules/iwgeom/h/IwGeomFMat.h'
p1308
(lp1309
I1
ag1240
asS'c:/marmalade/7.4/modules/iwgeom/h/IwGeomSqrt.h'
p1310
(lp1311
I1
ag1240
assS'iwresmanager'
p1312
(dp1313
S'c:/marmalade/7.4/modules/iwresmanager/h/IwResHandlerITX.h'
p1314
(lp1315
I1
a(dp1316
asS'c:/marmalade/7.4/modules/iwresmanager/h/IwResGroup.h'
p1317
(lp1318
I1
ag1316
asS'c:/marmalade/7.4/modules/iwresmanager/h/IwResManager.h'
p1319
(lp1320
I1
ag1316
asS'c:/marmalade/7.4/modules/iwresmanager/h/IwResManagerClass.h'
p1321
(lp1322
I1
ag1316
asS'c:/marmalade/7.4/modules/iwresmanager/h/IwResSerialise.h'
p1323
(lp1324
I1
ag1316
asS'c:/marmalade/7.4/modules/iwresmanager/h/IwResHandlerGROUP.h'
p1325
(lp1326
I1
ag1316
asS'c:/marmalade/7.4/modules/iwresmanager/iwresmanager.mkf'
p1327
(lp1328
I1
a(dp1329
asS'c:/marmalade/7.4/modules/iwresmanager/h/IwResHandlerImage.h'
p1330
(lp1331
I1
ag1316
asS'c:/marmalade/7.4/modules/iwresmanager/h/IwResHandler.h'
p1332
(lp1333
I1
ag1316
asS'c:/marmalade/7.4/modules/iwresmanager/docs/iwresmanager.config.txt'
p1334
(lp1335
I1
ag1316
assS'iwgx'
p1336
(dp1337
S'c:/marmalade/7.4/modules/iwgx/h/IwDebugPrim.h'
p1338
(lp1339
I1
a(dp1340
asS'c:/marmalade/7.4/modules/iwgx/h/IwGxFuncTable.h'
p1341
(lp1342
I1
ag1340
asS'c:/marmalade/7.4/modules/iwgx/h/IwClip.inl'
p1343
(lp1344
I1
ag1340
asS'c:/marmalade/7.4/modules/iwgx/h/IwGxPrint.h'
p1345
(lp1346
I1
ag1340
asS'c:/marmalade/7.4/modules/iwgx/h/IwGx.h'
p1347
(lp1348
I1
ag1340
asS'c:/marmalade/7.4/modules/iwgx/h/IwTexture.h'
p1349
(lp1350
I1
ag1340
asS'c:/marmalade/7.4/modules/iwgx/h/IwFColour.h'
p1351
(lp1352
I1
ag1340
asS'c:/marmalade/7.4/modules/iwgx/h/IwColour.h'
p1353
(lp1354
I1
ag1340
asS'c:/marmalade/7.4/modules/iwgx/h/IwGxState.h'
p1355
(lp1356
I1
ag1340
asS'c:/marmalade/7.4/modules/iwgx/h/IwClip.h'
p1357
(lp1358
I1
ag1340
asS'c:/marmalade/7.4/modules/iwgx/h/IwTPage.h'
p1359
(lp1360
I1
ag1340
asS'c:/marmalade/7.4/modules/iwgx/h/IwMaterial.h'
p1361
(lp1362
I1
ag1340
asS'c:/marmalade/7.4/modules/iwgx/h/IwGxDebug.h'
p1363
(lp1364
I1
ag1340
asS'c:/marmalade/7.4/modules/iwgx/h/IwMatAnim.h'
p1365
(lp1366
I1
ag1340
asS'c:/marmalade/7.4/modules/iwgx/h/IwGxStream.h'
p1367
(lp1368
I1
ag1340
asS'c:/marmalade/7.4/modules/iwgx/h/IwResHandlerMTL.h'
p1369
(lp1370
I1
ag1340
asS'c:/marmalade/7.4/modules/iwgx/h/IwGxMetrics.h'
p1371
(lp1372
I1
ag1340
asS'c:/marmalade/7.4/modules/iwgx/h/IwGxError.h'
p1373
(lp1374
I1
ag1340
asS'c:/marmalade/7.4/modules/iwgx/docs/iwgx.config.txt'
p1375
(lp1376
I1
ag1340
asS'c:/marmalade/7.4/modules/iwgx/h/IwGxTransformSW.h'
p1377
(lp1378
I1
ag1340
asS'c:/marmalade/7.4/modules/iwgx/iwgx.mkf'
p1379
(lp1380
I1
a(dp1381
asS'c:/marmalade/7.4/modules/iwgx/docs/iwgx_public.defines.txt'
p1382
(lp1383
I1
ag1340
asS'c:/marmalade/7.4/modules/iwgx/h/IwGxShaderTechnique.h'
p1384
(lp1385
I1
ag1340
asS'c:/marmalade/7.4/modules/iwgx/h/IwGxTypes.h'
p1386
(lp1387
I1
ag1340
asS'c:/marmalade/7.4/modules/iwgx/h/IwGxSurface.h'
p1388
(lp1389
I1
ag1340
assS'iw2dscenegraphcore'
p1390
(dp1391
S'c:/marmalade/7.4/modules/iw2dscenegraphcore/iw2dscenegraphcore.mkf'
p1392
(lp1393
I1
a(dp1394
asS'c:/marmalade/7.4/modules/iw2dscenegraphcore/source/Iw2DSceneGraphCore.cpp'
p1395
(lp1396
I1
a(dp1397
asS'c:/marmalade/7.4/modules/iw2dscenegraphcore/h/Iw2DSceneGraphCore.h'
p1398
(lp1399
I1
ag1397
assS'iwutil'
p1400
(dp1401
S'c:/marmalade/7.4/modules/iwutil/h/IwTextParser.h'
p1402
(lp1403
I1
a(dp1404
asS'c:/marmalade/7.4/modules/iwutil/h/IwMenu.h'
p1405
(lp1406
I1
ag1404
asS'c:/marmalade/7.4/modules/iwutil/h/IwUtilInitTerm.h'
p1407
(lp1408
I1
ag1404
asS'c:/marmalade/7.4/modules/iwutil/h/IwCopyingPtr.h'
p1409
(lp1410
I1
ag1404
asS'c:/marmalade/7.4/modules/iwutil/h/IwDebug.h'
p1411
(lp1412
I1
ag1404
asS'c:/marmalade/7.4/modules/iwutil/h/IwDivTable.h'
p1413
(lp1414
I1
ag1404
asS'c:/marmalade/7.4/modules/iwutil/h/IwBuffer.h'
p1415
(lp1416
I1
ag1404
asS'c:/marmalade/7.4/modules/iwutil/h/IwRandom.h'
p1417
(lp1418
I1
ag1404
asS'c:/marmalade/7.4/modules/iwutil/h/IwKeymap.h'
p1419
(lp1420
I1
ag1404
asS'c:/marmalade/7.4/modules/iwutil/h/IwResource.h'
p1421
(lp1422
I1
ag1404
asS'c:/marmalade/7.4/modules/iwutil/h/IwCore.h'
p1423
(lp1424
I1
ag1404
asS'c:/marmalade/7.4/modules/iwutil/h/IwTextParserITX.h'
p1425
(lp1426
I1
ag1404
asS'c:/marmalade/7.4/modules/iwutil/h/IwManaged.h'
p1427
(lp1428
I1
ag1404
asS'c:/marmalade/7.4/modules/iwutil/h/IwHashString.h'
p1429
(lp1430
I1
ag1404
asS'c:/marmalade/7.4/modules/iwutil/h/IwProfileMenu.h'
p1431
(lp1432
I1
ag1404
asS'c:/marmalade/7.4/modules/iwutil/h/IwManagedList.h'
p1433
(lp1434
I1
ag1404
asS'c:/marmalade/7.4/modules/iwutil/h/IwList.h'
p1435
(lp1436
I1
ag1404
asS'c:/marmalade/7.4/modules/iwutil/h/IwSerialise.h'
p1437
(lp1438
I1
ag1404
asS'c:/marmalade/7.4/modules/iwutil/h/IwClassFactory.h'
p1439
(lp1440
I1
ag1404
asS'c:/marmalade/7.4/modules/iwutil/h/IwTypes.h'
p1441
(lp1442
I1
ag1404
asS'c:/marmalade/7.4/modules/iwutil/h/IwAllocator.h'
p1443
(lp1444
I1
ag1404
asS'c:/marmalade/7.4/modules/iwutil/h/IwMemory.h'
p1445
(lp1446
I1
ag1404
asS'c:/marmalade/7.4/modules/iwutil/h/IwTextParseable.h'
p1447
(lp1448
I1
ag1404
asS'c:/marmalade/7.4/modules/iwutil/h/IwFile.h'
p1449
(lp1450
I1
ag1404
asS'c:/marmalade/7.4/modules/iwutil/h/IwRuntime.h'
p1451
(lp1452
I1
ag1404
asS'c:/marmalade/7.4/modules/iwutil/h/IwMemBucketHelpers.h'
p1453
(lp1454
I1
ag1404
asS'c:/marmalade/7.4/modules/iwutil/h/IwUncopyable.h'
p1455
(lp1456
I1
ag1404
asS'c:/marmalade/7.4/modules/iwutil/h/IwChar.h'
p1457
(lp1458
I1
ag1404
asS'c:/marmalade/7.4/modules/iwutil/h/IwOptimiseARM.h'
p1459
(lp1460
I1
ag1404
asS'c:/marmalade/7.4/modules/iwutil/h/IwImage.h'
p1461
(lp1462
I1
ag1404
asS'c:/marmalade/7.4/modules/iwutil/h/IwImageHelper.h'
p1463
(lp1464
I1
ag1404
asS'c:/marmalade/7.4/modules/iwutil/h/IwMemBucket.h'
p1465
(lp1466
I1
ag1404
asS'c:/marmalade/7.4/modules/iwutil/h/IwDivide.h'
p1467
(lp1468
I1
ag1404
asS'c:/marmalade/7.4/modules/iwutil/h/IwOptimiseSpeed.h'
p1469
(lp1470
I1
ag1404
asS'c:/marmalade/7.4/modules/iwutil/h/IwArray.h'
p1471
(lp1472
I1
ag1404
asS'c:/marmalade/7.4/modules/iwutil/docs/iwutil.config.txt'
p1473
(lp1474
I1
ag1404
asS'c:/marmalade/7.4/modules/iwutil/h/IwUTF8.h'
p1475
(lp1476
I1
ag1404
asS'c:/marmalade/7.4/modules/iwutil/h/IwEvent.h'
p1477
(lp1478
I1
ag1404
asS'c:/marmalade/7.4/modules/iwutil/h/IwMath.h'
p1479
(lp1480
I1
ag1404
asS'c:/marmalade/7.4/modules/iwutil/h/IwFibre.h'
p1481
(lp1482
I1
ag1404
asS'c:/marmalade/7.4/modules/iwutil/h/IwString.h'
p1483
(lp1484
I1
ag1404
asS'c:/marmalade/7.4/modules/iwutil/iwutil.mkf'
p1485
(lp1486
I1
a(dp1487
asS'c:/marmalade/7.4/modules/iwutil/h/IwSingleton.h'
p1488
(lp1489
I1
ag1404
asS'c:/marmalade/7.4/modules/iwutil/h/IwAutoFile.h'
p1490
(lp1491
I1
ag1404
asS'c:/marmalade/7.4/modules/iwutil/h/IwOptimiseThumb.h'
p1492
(lp1493
I1
ag1404
asS'c:/marmalade/7.4/modules/iwutil/h/IwUtil.h'
p1494
(lp1495
I1
ag1404
asS'c:/marmalade/7.4/modules/iwutil/h/IwPath.h'
p1496
(lp1497
I1
ag1404
asS'c:/marmalade/7.4/modules/iwutil/h/IwMemManagerDL.h'
p1498
(lp1499
I1
ag1404
asS'c:/marmalade/7.4/modules/iwutil/h/IwVariableBitField.h'
p1500
(lp1501
I1
ag1404
asS'c:/marmalade/7.4/modules/iwutil/h/IwOptimiseSize.h'
p1502
(lp1503
I1
ag1404
asssS'(zlib)'
p1504
(dp1505
g1034
(dp1506
S'c:/marmalade/7.4/modules/third_party/zlib/h/zconf.h'
p1507
(lp1508
I1
a(dp1509
asS'c:/marmalade/7.4/modules/third_party/zlib/h/zlib.h'
p1510
(lp1511
I1
ag1509
assS'c:/marmalade/7.4/modules/third_party/zlib/zlib.mkf'
p1512
(lp1513
I1
a(dp1514
assS'include'
p1515
(dp1516
S'e:/Documents/Michiel/Programmeren/Marmalade/MVSStage3/include/pauseMenu.h'
p1517
(lp1518
I1
ag1145
asS'e:/Documents/Michiel/Programmeren/Marmalade/MVSStage3/include/resources.h'
p1519
(lp1520
I1
ag1145
asS'e:/Documents/Michiel/Programmeren/Marmalade/MVSStage3/include/audio.h'
p1521
(lp1522
I1
ag1145
asS'e:/Documents/Michiel/Programmeren/Marmalade/MVSStage3/include/scene.h'
p1523
(lp1524
I1
ag1145
asS'e:/Documents/Michiel/Programmeren/Marmalade/MVSStage3/include/mainMenu.h'
p1525
(lp1526
I1
ag1145
asS'e:/Documents/Michiel/Programmeren/Marmalade/MVSStage3/include/game.h'
p1527
(lp1528
I1
ag1145
asS'e:/Documents/Michiel/Programmeren/Marmalade/MVSStage3/include/input.h'
p1529
(lp1530
I1
ag1145
asssS'files'
p1531
(dp1532
S'IwGxFontPreparedData.h'
p1533
g310
(cmkb_main
File
p1534
g312
Ntp1535
Rp1536
(dp1537
S'flags'
p1538
g1218
sS'group'
p1539
(lp1540
S"'Marmalade Studio'"
p1541
ag1214
asg336
g1227
sbsS'iterator'
p1542
g310
(g1534
g312
Ntp1543
Rp1544
(dp1545
g1538
(dp1546
sg1539
(lp1547
S"'Marmalade System (S3E)'"
p1548
aS'stdc headers'
p1549
aS'c++'
p1550
asg336
S'c:/marmalade/7.4/s3e/h/std/c++/iterator'
p1551
sbsS'IwGL.h'
p1552
g310
(g1534
g312
Ntp1553
Rp1554
(dp1555
g1538
g1197
sg1539
(lp1556
S"'Marmalade Studio'"
p1557
ag1190
asg336
g1198
sbsS's3e.h'
p1558
g310
(g1534
g312
Ntp1559
Rp1560
(dp1561
g1538
g1546
sg1539
(lp1562
g1548
asg336
S'c:/marmalade/7.4/s3e/h/s3e.h'
p1563
sbsS'errno.h'
p1564
g310
(g1534
g312
Ntp1565
Rp1566
(dp1567
g1538
g1546
sg1539
(lp1568
g1548
aS'stdc headers'
p1569
asg336
S'c:/marmalade/7.4/s3e/h/std/errno.h'
p1570
sbsS'IwSingleton.h'
p1571
g310
(g1534
g312
Ntp1572
Rp1573
(dp1574
g1538
g1404
sg1539
(lp1575
S"'Marmalade Studio'"
p1576
ag1400
asg336
g1488
sbsS'dlfcn.h'
p1577
g310
(g1534
g312
Ntp1578
Rp1579
(dp1580
g1538
g1546
sg1539
g1568
sg336
S'c:/marmalade/7.4/s3e/h/std/dlfcn.h'
p1581
sbsS'MVSStage3_main.cpp'
p1582
g310
(g1534
g312
Ntp1583
Rp1584
(dp1585
g1538
g1145
sg1539
(lp1586
g1141
asg336
g1158
sbsS'IwSoundWAV.cpp'
p1587
g310
(g1534
g312
Ntp1588
Rp1589
(dp1590
g1538
g1093
sg1539
(lp1591
g1089
asg336
g1139
sbsS'sched.h'
p1592
g310
(g1534
g312
Ntp1593
Rp1594
(dp1595
g1538
g1546
sg1539
g1568
sg336
S'c:/marmalade/7.4/s3e/h/std/sched.h'
p1596
sbsS'IwSoundPCM.h'
p1597
g310
(g1534
g312
Ntp1598
Rp1599
(dp1600
g1538
g1093
sg1539
g1591
sg336
g1100
sbsS'IwGeomFMat2D.h'
p1601
g310
(g1534
g312
Ntp1602
Rp1603
(dp1604
g1538
g1240
sg1539
(lp1605
S"'Marmalade Studio'"
p1606
ag1236
asg336
g1255
sbsS'cassert'
p1607
g310
(g1534
g312
Ntp1608
Rp1609
(dp1610
g1538
g1546
sg1539
g1547
sg336
S'c:/marmalade/7.4/s3e/h/std/c++/cassert'
p1611
sbsS'grp.h'
p1612
g310
(g1534
g312
Ntp1613
Rp1614
(dp1615
g1538
g1546
sg1539
g1568
sg336
S'c:/marmalade/7.4/s3e/h/std/grp.h'
p1616
sbsS'list'
p1617
g310
(g1534
g312
Ntp1618
Rp1619
(dp1620
g1538
g1546
sg1539
g1547
sg336
S'c:/marmalade/7.4/s3e/h/std/c++/list'
p1621
sbsS'IwSoundSpec.cpp'
p1622
g310
(g1534
g312
Ntp1623
Rp1624
(dp1625
g1538
g1093
sg1539
g1591
sg336
g1131
sbsS'IwGeomMat.h.tpl'
p1626
g310
(g1534
g312
Ntp1627
Rp1628
(dp1629
g1538
g1240
sg1539
g1605
sg336
g1304
sbsS'istream'
p1630
g310
(g1534
g312
Ntp1631
Rp1632
(dp1633
g1538
g1546
sg1539
g1547
sg336
S'c:/marmalade/7.4/s3e/h/std/c++/istream'
p1634
sbsS'jpeglib.h'
p1635
g310
(g1534
g312
Ntp1636
Rp1637
(dp1638
g1538
g1049
sg1539
(lp1639
g1044
ag1034
asg336
g1054
sbsS'iw2d_public.defines.txt'
p1640
g310
(g1534
g312
Ntp1641
Rp1642
(dp1643
g1538
g1206
sg1539
(lp1644
S"'Marmalade Studio'"
p1645
ag1202
asg336
g1212
sbsS'iostream.h'
p1646
g310
(g1534
g312
Ntp1647
Rp1648
(dp1649
g1538
g1546
sg1539
g1547
sg336
S'c:/marmalade/7.4/s3e/h/std/c++/iostream.h'
p1650
sbsS'IwSoundADPCM.h'
p1651
g310
(g1534
g312
Ntp1652
Rp1653
(dp1654
g1538
g1093
sg1539
g1591
sg336
g1125
sbsS'string'
p1655
g310
(g1534
g312
Ntp1656
Rp1657
(dp1658
g1538
g1546
sg1539
g1547
sg336
S'c:/marmalade/7.4/s3e/h/std/c++/string'
p1659
sbsS'IwMemory.h'
p1660
g310
(g1534
g312
Ntp1661
Rp1662
(dp1663
g1538
g1404
sg1539
g1575
sg336
g1445
sbsS'IwGeomPlane.h'
p1664
g310
(g1534
g312
Ntp1665
Rp1666
(dp1667
g1538
g1240
sg1539
g1605
sg336
g1269
sbsS'iw2d.config.txt'
p1668
g310
(g1534
g312
Ntp1669
Rp1670
(dp1671
g1538
g1206
sg1539
g1644
sg336
g1204
sbsS'iomanip'
p1672
g310
(g1534
g312
Ntp1673
Rp1674
(dp1675
g1538
g1546
sg1539
g1547
sg336
S'c:/marmalade/7.4/s3e/h/std/c++/iomanip'
p1676
sbsS'iwgeom.mkf'
p1677
g310
(g1534
g312
Ntp1678
Rp1679
(dp1680
g1538
g1287
sg1539
g1605
sg336
g1285
sbsS'IwGxError.h'
p1681
g310
(g1534
g312
Ntp1682
Rp1683
(dp1684
g1538
g1340
sg1539
(lp1685
S"'Marmalade Studio'"
p1686
ag1336
asg336
g1373
sbsS'IwGeom.h'
p1687
g310
(g1534
g312
Ntp1688
Rp1689
(dp1690
g1538
g1240
sg1539
g1605
sg336
g1302
sbsS'scene.cpp'
p1691
g310
(g1534
g312
Ntp1692
Rp1693
(dp1694
g1538
g1145
sg1539
g1586
sg336
g1152
sbsS'IwGeomVec4.h'
p1695
g310
(g1534
g312
Ntp1696
Rp1697
(dp1698
g1538
g1240
sg1539
g1605
sg336
g1288
sbsS'dir.h'
p1699
g310
(g1534
g312
Ntp1700
Rp1701
(dp1702
g1538
g1546
sg1539
(lp1703
g1548
aS'stdc headers'
p1704
aS'sys'
p1705
asg336
S'c:/marmalade/7.4/s3e/h/std/sys/dir.h'
p1706
sbsS'locale.h'
p1707
g310
(g1534
g312
Ntp1708
Rp1709
(dp1710
g1538
g1546
sg1539
g1568
sg336
S'c:/marmalade/7.4/s3e/h/std/locale.h'
p1711
sbsS'vector'
p1712
g310
(g1534
g312
Ntp1713
Rp1714
(dp1715
g1538
g1546
sg1539
g1547
sg336
S'c:/marmalade/7.4/s3e/h/std/c++/vector'
p1716
sbsS'IwManaged.h'
p1717
g310
(g1534
g312
Ntp1718
Rp1719
(dp1720
g1538
g1404
sg1539
g1575
sg336
g1427
sbsS's3eCompass.h'
p1721
g310
(g1534
g312
Ntp1722
Rp1723
(dp1724
g1538
g1546
sg1539
g1562
sg336
S'c:/marmalade/7.4/s3e/h/s3eCompass.h'
p1725
sbsS'cderror.h'
p1726
g310
(g1534
g312
Ntp1727
Rp1728
(dp1729
g1538
g1049
sg1539
g1639
sg336
g1062
sbsS'climits'
p1730
g310
(g1534
g312
Ntp1731
Rp1732
(dp1733
g1538
g1546
sg1539
g1547
sg336
S'c:/marmalade/7.4/s3e/h/std/c++/climits'
p1734
sbsS'ipc.h'
p1735
g310
(g1534
g312
Ntp1736
Rp1737
(dp1738
g1538
g1546
sg1539
g1703
sg336
S'c:/marmalade/7.4/s3e/h/std/sys/ipc.h'
p1739
sbsS'jversion.h'
p1740
g310
(g1534
g312
Ntp1741
Rp1742
(dp1743
g1538
g1049
sg1539
g1639
sg336
g1066
sbsS'fnmatch.h'
p1744
g310
(g1534
g312
Ntp1745
Rp1746
(dp1747
g1538
g1546
sg1539
g1568
sg336
S'c:/marmalade/7.4/s3e/h/std/fnmatch.h'
p1748
sbsS'IwGxState.h'
p1749
g310
(g1534
g312
Ntp1750
Rp1751
(dp1752
g1538
g1340
sg1539
g1685
sg336
g1355
sbsS's3eAudio.h'
p1753
g310
(g1534
g312
Ntp1754
Rp1755
(dp1756
g1538
g1546
sg1539
g1562
sg336
S'c:/marmalade/7.4/s3e/h/s3eAudio.h'
p1757
sbsS's3eSurface.h'
p1758
g310
(g1534
g312
Ntp1759
Rp1760
(dp1761
g1538
g1546
sg1539
g1562
sg336
S'c:/marmalade/7.4/s3e/h/s3eSurface.h'
p1762
sbsS'new'
p1763
g310
(g1534
g312
Ntp1764
Rp1765
(dp1766
g1538
g1546
sg1539
g1547
sg336
S'c:/marmalade/7.4/s3e/h/std/c++/new'
p1767
sbsS's3eWindow.h'
p1768
g310
(g1534
g312
Ntp1769
Rp1770
(dp1771
g1538
g1546
sg1539
(lp1772
g1548
aS'Extensions'
p1773
asg336
S'c:/marmalade/7.4/s3e/h/ext/s3eWindow.h'
p1774
sbsS'IwBuffer.h'
p1775
g310
(g1534
g312
Ntp1776
Rp1777
(dp1778
g1538
g1404
sg1539
g1575
sg336
g1415
sbsS'stdio_streambuf'
p1779
g310
(g1534
g312
Ntp1780
Rp1781
(dp1782
g1538
g1546
sg1539
g1547
sg336
S'c:/marmalade/7.4/s3e/h/std/c++/stdio_streambuf'
p1783
sbsS'IwGeomQuat.h.tpl'
p1784
g310
(g1534
g312
Ntp1785
Rp1786
(dp1787
g1538
g1240
sg1539
g1605
sg336
g1271
sbsS's3eOSExec.h'
p1788
g310
(g1534
g312
Ntp1789
Rp1790
(dp1791
g1538
g1546
sg1539
g1772
sg336
S'c:/marmalade/7.4/s3e/h/ext/s3eOSExec.h'
p1792
sbsS'IwGxTransformSW.h'
p1793
g310
(g1534
g312
Ntp1794
Rp1795
(dp1796
g1538
g1340
sg1539
g1685
sg336
g1377
sbsS'IwGxMetrics.h'
p1797
g310
(g1534
g312
Ntp1798
Rp1799
(dp1800
g1538
g1340
sg1539
g1685
sg336
g1371
sbsS'iwgxfont.config.txt'
p1801
g310
(g1534
g312
Ntp1802
Rp1803
(dp1804
g1538
g1218
sg1539
g1540
sg336
g1221
sbsS'gl2platform.h'
p1805
g310
(g1534
g312
Ntp1806
Rp1807
(dp1808
g1538
g1546
sg1539
(lp1809
g1548
aS'GL'
p1810
aS'GLES 2.0'
p1811
asg336
S'c:/marmalade/7.4/s3e/h/GLES2/gl2platform.h'
p1812
sbsS'IwResManagerClass.h'
p1813
g310
(g1534
g312
Ntp1814
Rp1815
(dp1816
g1538
g1316
sg1539
(lp1817
g1176
ag1312
asg336
g1321
sbsS'queue'
p1818
g310
(g1534
g312
Ntp1819
Rp1820
(dp1821
g1538
g1546
sg1539
g1547
sg336
S'c:/marmalade/7.4/s3e/h/std/c++/queue'
p1822
sbsS'time_1.h'
p1823
g310
(g1534
g312
Ntp1824
Rp1825
(dp1826
g1538
g1546
sg1539
g1703
sg336
S'c:/marmalade/7.4/s3e/h/std/sys/time.h'
p1827
sbsS'Iw2D.h'
p1828
g310
(g1534
g312
Ntp1829
Rp1830
(dp1831
g1538
g1206
sg1539
g1644
sg336
g1210
sbsS'IwGeomVec2.h'
p1832
g310
(g1534
g312
Ntp1833
Rp1834
(dp1835
g1538
g1240
sg1539
g1605
sg336
g1279
sbsS's3eDevice.h'
p1836
g310
(g1534
g312
Ntp1837
Rp1838
(dp1839
g1538
g1546
sg1539
g1562
sg336
S'c:/marmalade/7.4/s3e/h/s3eDevice.h'
p1840
sbsS'malloc.h'
p1841
g310
(g1534
g312
Ntp1842
Rp1843
(dp1844
g1538
g1546
sg1539
g1568
sg336
S'c:/marmalade/7.4/s3e/h/std/malloc.h'
p1845
sbsS'stdarg.h'
p1846
g310
(g1534
g312
Ntp1847
Rp1848
(dp1849
g1538
g1546
sg1539
g1568
sg336
S'c:/marmalade/7.4/s3e/h/std/stdarg.h'
p1850
sbsS'IwGeomCore.h'
p1851
g310
(g1534
g312
Ntp1852
Rp1853
(dp1854
g1538
g1240
sg1539
g1605
sg336
g1245
sbsS'Iw2DSceneGraph.h'
p1855
g310
(g1534
g312
Ntp1856
Rp1857
(dp1858
g1538
g1182
sg1539
(lp1859
S"'Marmalade Studio'"
p1860
ag1178
asg336
g1180
sbsS'endian.h'
p1861
g310
(g1534
g312
Ntp1862
Rp1863
(dp1864
g1538
g1546
sg1539
g1568
sg336
S'c:/marmalade/7.4/s3e/h/std/endian.h'
p1865
sbsS'gl3ext.h'
p1866
g310
(g1534
g312
Ntp1867
Rp1868
(dp1869
g1538
g1546
sg1539
(lp1870
g1548
aS'GL'
p1871
aS'GLES 3.0'
p1872
asg336
S'c:/marmalade/7.4/s3e/h/GLES3/gl3ext.h'
p1873
sbsS'glob.h'
p1874
g310
(g1534
g312
Ntp1875
Rp1876
(dp1877
g1538
g1546
sg1539
g1568
sg336
S'c:/marmalade/7.4/s3e/h/std/glob.h'
p1878
sbsS'fstream'
p1879
g310
(g1534
g312
Ntp1880
Rp1881
(dp1882
g1538
g1546
sg1539
g1547
sg336
S'c:/marmalade/7.4/s3e/h/std/c++/fstream'
p1883
sbsS's3eCamera.h'
p1884
g310
(g1534
g312
Ntp1885
Rp1886
(dp1887
g1538
g1546
sg1539
g1562
sg336
S'c:/marmalade/7.4/s3e/h/s3eCamera.h'
p1888
sbsS'jconfig.h'
p1889
g310
(g1534
g312
Ntp1890
Rp1891
(dp1892
g1538
g1049
sg1539
g1639
sg336
g1060
sbsS'memory'
p1893
g310
(g1534
g312
Ntp1894
Rp1895
(dp1896
g1538
g1546
sg1539
g1547
sg336
S'c:/marmalade/7.4/s3e/h/std/c++/memory'
p1897
sbsS'egl.h'
p1898
g310
(g1534
g312
Ntp1899
Rp1900
(dp1901
g1538
g1546
sg1539
(lp1902
g1548
aS'GL'
p1903
aS'EGL'
p1904
asg336
S'c:/marmalade/7.4/s3e/h/EGL/egl.h'
p1905
sbsS'egl_1.h'
p1906
g310
(g1534
g312
Ntp1907
Rp1908
(dp1909
g1538
g1546
sg1539
(lp1910
g1548
aS'GL'
p1911
aS'GLES 1.x'
p1912
asg336
S'c:/marmalade/7.4/s3e/h/GLES/egl.h'
p1913
sbsS'IwMemManagerDL.h'
p1914
g310
(g1534
g312
Ntp1915
Rp1916
(dp1917
g1538
g1404
sg1539
g1575
sg336
g1498
sbsS'deque'
p1918
g310
(g1534
g312
Ntp1919
Rp1920
(dp1921
g1538
g1546
sg1539
g1547
sg336
S'c:/marmalade/7.4/s3e/h/std/c++/deque'
p1922
sbsS'IwString.h'
p1923
g310
(g1534
g312
Ntp1924
Rp1925
(dp1926
g1538
g1404
sg1539
g1575
sg336
g1483
sbsS'cwchar'
p1927
g310
(g1534
g312
Ntp1928
Rp1929
(dp1930
g1538
g1546
sg1539
g1547
sg336
S'c:/marmalade/7.4/s3e/h/std/c++/cwchar'
p1931
sbsS'iwutil.mkf'
p1932
g310
(g1534
g312
Ntp1933
Rp1934
(dp1935
g1538
g1487
sg1539
g1575
sg336
g1485
sbsS'csignal'
p1936
g310
(g1534
g312
Ntp1937
Rp1938
(dp1939
g1538
g1546
sg1539
g1547
sg336
S'c:/marmalade/7.4/s3e/h/std/c++/csignal'
p1940
sbsS'float.h'
p1941
g310
(g1534
g312
Ntp1942
Rp1943
(dp1944
g1538
g1546
sg1539
g1568
sg336
S'c:/marmalade/7.4/s3e/h/std/float.h'
p1945
sbsS'pthread_alloc'
p1946
g310
(g1534
g312
Ntp1947
Rp1948
(dp1949
g1538
g1546
sg1539
g1547
sg336
S'c:/marmalade/7.4/s3e/h/std/c++/pthread_alloc'
p1950
sbsS'getopt.h'
p1951
g310
(g1534
g312
Ntp1952
Rp1953
(dp1954
g1538
g1546
sg1539
g1568
sg336
S'c:/marmalade/7.4/s3e/h/std/getopt.h'
p1955
sbsS'IwOptimiseARM.h'
p1956
g310
(g1534
g312
Ntp1957
Rp1958
(dp1959
g1538
g1404
sg1539
g1575
sg336
g1459
sbsS'times.h'
p1960
g310
(g1534
g312
Ntp1961
Rp1962
(dp1963
g1538
g1546
sg1539
g1703
sg336
S'c:/marmalade/7.4/s3e/h/std/sys/times.h'
p1964
sbsS'IwGeomFSphere.h'
p1965
g310
(g1534
g312
Ntp1966
Rp1967
(dp1968
g1538
g1240
sg1539
g1605
sg336
g1249
sbsS'game.h'
p1969
g310
(g1534
g312
Ntp1970
Rp1971
(dp1972
g1538
g1145
sg1539
(lp1973
g1515
asg336
g1527
sbsS'IwTypes.h'
p1974
g310
(g1534
g312
Ntp1975
Rp1976
(dp1977
g1538
g1404
sg1539
g1575
sg336
g1441
sbsS'unistd.h'
p1978
g310
(g1534
g312
Ntp1979
Rp1980
(dp1981
g1538
g1546
sg1539
g1568
sg336
S'c:/marmalade/7.4/s3e/h/std/unistd.h'
p1982
sbsS'audio.cpp'
p1983
g310
(g1534
g312
Ntp1984
Rp1985
(dp1986
g1538
g1145
sg1539
g1586
sg336
g1143
sbsS's3eCompression.h'
p1987
g310
(g1534
g312
Ntp1988
Rp1989
(dp1990
g1538
g1546
sg1539
g1562
sg336
S'c:/marmalade/7.4/s3e/h/s3eCompression.h'
p1991
sbsS'langinfo.h'
p1992
g310
(g1534
g312
Ntp1993
Rp1994
(dp1995
g1538
g1546
sg1539
g1568
sg336
S'c:/marmalade/7.4/s3e/h/std/langinfo.h'
p1996
sbsS's3edebugHeap.h'
p1997
g310
(g1534
g312
Ntp1998
Rp1999
(dp2000
g1538
g1546
sg1539
g1772
sg336
S'c:/marmalade/7.4/s3e/h/ext/s3edebugHeap.h'
p2001
sbsS'AirplayVersion.h'
p2002
g310
(g1534
g312
Ntp2003
Rp2004
(dp2005
g1538
g1546
sg1539
g1562
sg336
S'c:/marmalade/7.4/s3e/h/AirplayVersion.h'
p2006
sbsS'gl2extimg.h'
p2007
g310
(g1534
g312
Ntp2008
Rp2009
(dp2010
g1538
g1546
sg1539
g1809
sg336
S'c:/marmalade/7.4/s3e/h/GLES2/gl2extimg.h'
p2011
sbsS'app.config.txt'
p2012
g310
(g1534
g312
Ntp2013
Rp2014
(dp2015
g1538
(dp2016
sg1539
g4
sg336
S'e:/Documents/Michiel/Programmeren/Marmalade/MVSStage3/data/app.config.txt'
p2017
sbsS'IwGeomSqrt.h'
p2018
g310
(g1534
g312
Ntp2019
Rp2020
(dp2021
g1538
g1240
sg1539
g1605
sg336
g1310
sbsS'tiniconv_int.h'
p2022
g310
(g1534
g312
Ntp2023
Rp2024
(dp2025
g1538
g1083
sg1539
(lp2026
g1079
asg336
g1081
sbsS'syslog.h'
p2027
g310
(g1534
g312
Ntp2028
Rp2029
(dp2030
g1538
g1546
sg1539
g1568
sg336
S'c:/marmalade/7.4/s3e/h/std/syslog.h'
p2031
sbsS'IwGxFontTypes.h'
p2032
g310
(g1534
g312
Ntp2033
Rp2034
(dp2035
g1538
g1218
sg1539
g1540
sg336
g1225
sbsS'IwGeomFIntersect.h'
p2036
g310
(g1534
g312
Ntp2037
Rp2038
(dp2039
g1538
g1240
sg1539
g1605
sg336
g1241
sbsS'hash_map'
p2040
g310
(g1534
g312
Ntp2041
Rp2042
(dp2043
g1538
g1546
sg1539
g1547
sg336
S'c:/marmalade/7.4/s3e/h/std/c++/hash_map'
p2044
sbsS's3e.mkf'
p2045
g310
(g1534
g312
Ntp2046
Rp2047
(dp2048
g1538
(dp2049
sg1539
g1562
sg336
S'c:/marmalade/7.4/s3e/s3e.mkf'
p2050
sbsS'IwGeomMat2D.h.tpl'
p2051
g310
(g1534
g312
Ntp2052
Rp2053
(dp2054
g1538
g1240
sg1539
g1605
sg336
g1243
sbsS's3eOSReadString.h'
p2055
g310
(g1534
g312
Ntp2056
Rp2057
(dp2058
g1538
g1546
sg1539
g1772
sg336
S'c:/marmalade/7.4/s3e/h/ext/s3eOSReadString.h'
p2059
sbsS'IwSound.h'
p2060
g310
(g1534
g312
Ntp2061
Rp2062
(dp2063
g1538
g1093
sg1539
g1591
sg336
g1129
sbsS'map'
p2064
g310
(g1534
g312
Ntp2065
Rp2066
(dp2067
g1538
g1546
sg1539
g1547
sg336
S'c:/marmalade/7.4/s3e/h/std/c++/map'
p2068
sbsS'IwOptimiseSpeed.h'
p2069
g310
(g1534
g312
Ntp2070
Rp2071
(dp2072
g1538
g1404
sg1539
g1575
sg336
g1469
sbsS'ostream'
p2073
g310
(g1534
g312
Ntp2074
Rp2075
(dp2076
g1538
g1546
sg1539
g1547
sg336
S'c:/marmalade/7.4/s3e/h/std/c++/ostream'
p2077
sbsS'msl_string.h'
p2078
g310
(g1534
g312
Ntp2079
Rp2080
(dp2081
g1538
g1546
sg1539
g1547
sg336
S'c:/marmalade/7.4/s3e/h/std/c++/msl_string.h'
p2082
sbsS'select.h'
p2083
g310
(g1534
g312
Ntp2084
Rp2085
(dp2086
g1538
g1546
sg1539
g1703
sg336
S'c:/marmalade/7.4/s3e/h/std/sys/select.h'
p2087
sbsS'zlib.mkf'
p2088
g310
(g1534
g312
Ntp2089
Rp2090
(dp2091
g1538
g1514
sg1539
(lp2092
g1504
asg336
g1512
sbsS'signal.h'
p2093
g310
(g1534
g312
Ntp2094
Rp2095
(dp2096
g1538
g1546
sg1539
g1568
sg336
S'c:/marmalade/7.4/s3e/h/std/signal.h'
p2097
sbsS'sigcontext.h'
p2098
g310
(g1534
g312
Ntp2099
Rp2100
(dp2101
g1538
g1546
sg1539
g1568
sg336
S'c:/marmalade/7.4/s3e/h/std/sigcontext.h'
p2102
sbsS'libpng.mkf'
p2103
g310
(g1534
g312
Ntp2104
Rp2105
(dp2106
g1538
g1043
sg1539
(lp2107
g1032
asg336
g1041
sbsS's3eClipboard.h'
p2108
g310
(g1534
g312
Ntp2109
Rp2110
(dp2111
g1538
g1546
sg1539
g1562
sg336
S'c:/marmalade/7.4/s3e/h/s3eClipboard.h'
p2112
sbsS'IwGxFuncTable.h'
p2113
g310
(g1534
g312
Ntp2114
Rp2115
(dp2116
g1538
g1340
sg1539
g1685
sg336
g1341
sbsS'IwResHandlerGROUP.h'
p2117
g310
(g1534
g312
Ntp2118
Rp2119
(dp2120
g1538
g1316
sg1539
g1817
sg336
g1325
sbsS's3eDebug.h'
p2121
g310
(g1534
g312
Ntp2122
Rp2123
(dp2124
g1538
g1546
sg1539
g1562
sg336
S'c:/marmalade/7.4/s3e/h/s3eDebug.h'
p2125
sbsS'socket.h'
p2126
g310
(g1534
g312
Ntp2127
Rp2128
(dp2129
g1538
g1546
sg1539
g1703
sg336
S'c:/marmalade/7.4/s3e/h/std/sys/socket.h'
p2130
sbsS'glext.h'
p2131
g310
(g1534
g312
Ntp2132
Rp2133
(dp2134
g1538
g1546
sg1539
g1910
sg336
S'c:/marmalade/7.4/s3e/h/GLES/glext.h'
p2135
sbsS'typeinfo.h'
p2136
g310
(g1534
g312
Ntp2137
Rp2138
(dp2139
g1538
g1546
sg1539
g1547
sg336
S'c:/marmalade/7.4/s3e/h/std/c++/typeinfo.h'
p2140
sbsS'typeinfo'
p2141
g310
(g1534
g312
Ntp2142
Rp2143
(dp2144
g1538
g1546
sg1539
g1547
sg336
S'c:/marmalade/7.4/s3e/h/std/c++/typeinfo'
p2145
sbsS'iwsound.config.txt'
p2146
g310
(g1534
g312
Ntp2147
Rp2148
(dp2149
g1538
g1093
sg1539
(lp2150
g1089
ag1102
asg336
g1104
sbsS'fstream.h'
p2151
g310
(g1534
g312
Ntp2152
Rp2153
(dp2154
g1538
g1546
sg1539
g1547
sg336
S'c:/marmalade/7.4/s3e/h/std/c++/fstream.h'
p2155
sbsS'IwGeomMat.h'
p2156
g310
(g1534
g312
Ntp2157
Rp2158
(dp2159
g1538
g1240
sg1539
g1605
sg336
g1275
sbsS's3ePointer.h'
p2160
g310
(g1534
g312
Ntp2161
Rp2162
(dp2163
g1538
g1546
sg1539
g1562
sg336
S'c:/marmalade/7.4/s3e/h/s3ePointer.h'
p2164
sbsS'iw2d.mkf'
p2165
g310
(g1534
g312
Ntp2166
Rp2167
(dp2168
g1538
g1209
sg1539
g1644
sg336
g1207
sbsS'PVRTexTool.h'
p2169
g310
(g1534
g312
Ntp2170
Rp2171
(dp2172
g1538
g1168
sg1539
(lp2173
g1160
ag1162
asg336
g1174
sbsS's3eGL.h'
p2174
g310
(g1534
g312
Ntp2175
Rp2176
(dp2177
g1538
g1546
sg1539
g1562
sg336
S'c:/marmalade/7.4/s3e/h/s3eGL.h'
p2178
sbsS'IwGeomFVec2.h'
p2179
g310
(g1534
g312
Ntp2180
Rp2181
(dp2182
g1538
g1240
sg1539
g1605
sg336
g1265
sbsS'IwGeomSVec4.h'
p2183
g310
(g1534
g312
Ntp2184
Rp2185
(dp2186
g1538
g1240
sg1539
g1605
sg336
g1263
sbsS'poll.h'
p2187
g310
(g1534
g312
Ntp2188
Rp2189
(dp2190
g1538
g1546
sg1539
g1568
sg336
S'c:/marmalade/7.4/s3e/h/std/poll.h'
p2191
sbsS'IwMatAnim.h'
p2192
g310
(g1534
g312
Ntp2193
Rp2194
(dp2195
g1538
g1340
sg1539
g1685
sg336
g1365
sbsS'IwGeomFVec4.h'
p2196
g310
(g1534
g312
Ntp2197
Rp2198
(dp2199
g1538
g1240
sg1539
g1605
sg336
g1257
sbsS'IwGx.h'
p2200
g310
(g1534
g312
Ntp2201
Rp2202
(dp2203
g1538
g1340
sg1539
g1685
sg336
g1347
sbsS'valarray'
p2204
g310
(g1534
g312
Ntp2205
Rp2206
(dp2207
g1538
g1546
sg1539
g1547
sg336
S'c:/marmalade/7.4/s3e/h/std/c++/valarray'
p2208
sbsS'iosfwd'
p2209
g310
(g1534
g312
Ntp2210
Rp2211
(dp2212
g1538
g1546
sg1539
g1547
sg336
S'c:/marmalade/7.4/s3e/h/std/c++/iosfwd'
p2213
sbsS'gl2.h'
p2214
g310
(g1534
g312
Ntp2215
Rp2216
(dp2217
g1538
g1546
sg1539
g1809
sg336
S'c:/marmalade/7.4/s3e/h/GLES2/gl2.h'
p2218
sbsS'jpegint.h'
p2219
g310
(g1534
g312
Ntp2220
Rp2221
(dp2222
g1538
g1049
sg1539
g1639
sg336
g1072
sbsS'stdiostream.h'
p2223
g310
(g1534
g312
Ntp2224
Rp2225
(dp2226
g1538
g1546
sg1539
g1547
sg336
S'c:/marmalade/7.4/s3e/h/std/c++/stdiostream.h'
p2227
sbsS'mem.h'
p2228
g310
(g1534
g312
Ntp2229
Rp2230
(dp2231
g1538
g1546
sg1539
g1547
sg336
S'c:/marmalade/7.4/s3e/h/std/c++/mem.h'
p2232
sbsS'jerror.h'
p2233
g310
(g1534
g312
Ntp2234
Rp2235
(dp2236
g1538
g1049
sg1539
g1639
sg336
g1047
sbsS'zconf.h'
p2237
g310
(g1534
g312
Ntp2238
Rp2239
(dp2240
g1538
g1509
sg1539
(lp2241
g1504
ag1034
asg336
g1507
sbsS's3e.config.txt'
p2242
g310
(g1534
g312
Ntp2243
Rp2244
(dp2245
g1538
g1546
sg1539
g1562
sg336
S'c:/marmalade/7.4/s3e/s3e.config.txt'
p2246
sbsS'numeric'
p2247
g310
(g1534
g312
Ntp2248
Rp2249
(dp2250
g1538
g1546
sg1539
g1547
sg336
S'c:/marmalade/7.4/s3e/h/std/c++/numeric'
p2251
sbsS'utime.h'
p2252
g310
(g1534
g312
Ntp2253
Rp2254
(dp2255
g1538
g1546
sg1539
g1568
sg336
S'c:/marmalade/7.4/s3e/h/std/utime.h'
p2256
sbsS'jdhuff.h'
p2257
g310
(g1534
g312
Ntp2258
Rp2259
(dp2260
g1538
g1049
sg1539
g1639
sg336
g1070
sbsS'IwResHandlerWAV.cpp'
p2261
g310
(g1534
g312
Ntp2262
Rp2263
(dp2264
g1538
g1093
sg1539
g1591
sg336
g1123
sbsS'un.h'
p2265
g310
(g1534
g312
Ntp2266
Rp2267
(dp2268
g1538
g1546
sg1539
g1703
sg336
S'c:/marmalade/7.4/s3e/h/std/sys/un.h'
p2269
sbsS'IwImage.h'
p2270
g310
(g1534
g312
Ntp2271
Rp2272
(dp2273
g1538
g1404
sg1539
g1575
sg336
g1461
sbsS's3eImagePicker.h'
p2274
g310
(g1534
g312
Ntp2275
Rp2276
(dp2277
g1538
g1546
sg1539
g1772
sg336
S'c:/marmalade/7.4/s3e/h/ext/s3eImagePicker.h'
p2278
sbsS'stdlib.h'
p2279
g310
(g1534
g312
Ntp2280
Rp2281
(dp2282
g1538
g1546
sg1539
g1568
sg336
S'c:/marmalade/7.4/s3e/h/std/stdlib.h'
p2283
sbsS'IwCopyingPtr.h'
p2284
g310
(g1534
g312
Ntp2285
Rp2286
(dp2287
g1538
g1404
sg1539
g1575
sg336
g1409
sbsS'iostream'
p2288
g310
(g1534
g312
Ntp2289
Rp2290
(dp2291
g1538
g1546
sg1539
g1547
sg336
S'c:/marmalade/7.4/s3e/h/std/c++/iostream'
p2292
sbsS'png.h'
p2293
g310
(g1534
g312
Ntp2294
Rp2295
(dp2296
g1538
g1038
sg1539
(lp2297
g1032
ag1034
asg336
g1036
sbsS'stddef.h'
p2298
g310
(g1534
g312
Ntp2299
Rp2300
(dp2301
g1538
g1546
sg1539
g1568
sg336
S'c:/marmalade/7.4/s3e/h/std/stddef.h'
p2302
sbsS'setjmp_win32.h'
p2303
g310
(g1534
g312
Ntp2304
Rp2305
(dp2306
g1538
g1546
sg1539
g1568
sg336
S'c:/marmalade/7.4/s3e/h/std/setjmp_win32.h'
p2307
sbsS'pauseMenu.h'
p2308
g310
(g1534
g312
Ntp2309
Rp2310
(dp2311
g1538
g1145
sg1539
g1973
sg336
g1517
sbsS'IwGxPrint.h'
p2312
g310
(g1534
g312
Ntp2313
Rp2314
(dp2315
g1538
g1340
sg1539
g1685
sg336
g1345
sbsS'iwgx_public.defines.txt'
p2316
g310
(g1534
g312
Ntp2317
Rp2318
(dp2319
g1538
g1340
sg1539
g1685
sg336
g1382
sbsS'streambuf.h'
p2320
g310
(g1534
g312
Ntp2321
Rp2322
(dp2323
g1538
g1546
sg1539
g1547
sg336
S'c:/marmalade/7.4/s3e/h/std/c++/streambuf.h'
p2324
sbsS'resources.cpp'
p2325
g310
(g1534
g312
Ntp2326
Rp2327
(dp2328
g1538
g1145
sg1539
g1586
sg336
g1146
sbsS'IwGeomFPlane.h'
p2329
g310
(g1534
g312
Ntp2330
Rp2331
(dp2332
g1538
g1240
sg1539
g1605
sg336
g1306
sbsS'wchar.h'
p2333
g310
(g1534
g312
Ntp2334
Rp2335
(dp2336
g1538
g1546
sg1539
g1568
sg336
S'c:/marmalade/7.4/s3e/h/std/wchar.h'
p2337
sbsS's3eCameraCapture.h'
p2338
g310
(g1534
g312
Ntp2339
Rp2340
(dp2341
g1538
g1546
sg1539
g1772
sg336
S'c:/marmalade/7.4/s3e/h/ext/s3eCameraCapture.h'
p2342
sbsS'eglext.h'
p2343
g310
(g1534
g312
Ntp2344
Rp2345
(dp2346
g1538
g1546
sg1539
g1902
sg336
S'c:/marmalade/7.4/s3e/h/EGL/eglext.h'
p2347
sbsS'IwResHandlerImage.h'
p2348
g310
(g1534
g312
Ntp2349
Rp2350
(dp2351
g1538
g1316
sg1539
g1817
sg336
g1330
sbsS'strstream.h'
p2352
g310
(g1534
g312
Ntp2353
Rp2354
(dp2355
g1538
g1546
sg1539
g1547
sg336
S'c:/marmalade/7.4/s3e/h/std/c++/strstream.h'
p2356
sbsS'tiniconv.h'
p2357
g310
(g1534
g312
Ntp2358
Rp2359
(dp2360
g1538
g1083
sg1539
g2026
sg336
g1087
sbsS'IwGLExt.h'
p2361
g310
(g1534
g312
Ntp2362
Rp2363
(dp2364
g1538
g1197
sg1539
g1556
sg336
g1200
sbsS'app.icf'
p2365
g310
(g1534
g312
Ntp2366
Rp2367
(dp2368
g1538
(dp2369
sg1539
g4
sg336
S'e:/Documents/Michiel/Programmeren/Marmalade/MVSStage3/data/app.icf'
p2370
sbsS'IwClassFactory.h'
p2371
g310
(g1534
g312
Ntp2372
Rp2373
(dp2374
g1538
g1404
sg1539
g1575
sg336
g1439
sbsS'file.h'
p2375
g310
(g1534
g312
Ntp2376
Rp2377
(dp2378
g1538
g1546
sg1539
g1703
sg336
S'c:/marmalade/7.4/s3e/h/std/sys/file.h'
p2379
sbsS'cstring'
p2380
g310
(g1534
g312
Ntp2381
Rp2382
(dp2383
g1538
g1546
sg1539
g1547
sg336
S'c:/marmalade/7.4/s3e/h/std/c++/cstring'
p2384
sbsS'IwSoundInst.cpp'
p2385
g310
(g1534
g312
Ntp2386
Rp2387
(dp2388
g1538
g1093
sg1539
g1591
sg336
g1135
sbsS'iwutil.config.txt'
p2389
g310
(g1534
g312
Ntp2390
Rp2391
(dp2392
g1538
g1404
sg1539
g1575
sg336
g1473
sbsS's3eSMS.h'
p2393
g310
(g1534
g312
Ntp2394
Rp2395
(dp2396
g1538
g1546
sg1539
g1772
sg336
S'c:/marmalade/7.4/s3e/h/ext/s3eSMS.h'
p2397
sbsS'limits.h'
p2398
g310
(g1534
g312
Ntp2399
Rp2400
(dp2401
g1538
g1546
sg1539
g1568
sg336
S'c:/marmalade/7.4/s3e/h/std/limits.h'
p2402
sbsS'scene.h'
p2403
g310
(g1534
g312
Ntp2404
Rp2405
(dp2406
g1538
g1145
sg1539
g1973
sg336
g1523
sbsS'IwMaterial.h'
p2407
g310
(g1534
g312
Ntp2408
Rp2409
(dp2410
g1538
g1340
sg1539
g1685
sg336
g1361
sbsS'PVRTexTool_interface.cpp'
p2411
g310
(g1534
g312
Ntp2412
Rp2413
(dp2414
g1538
g1168
sg1539
(lp2415
g1160
ag1162
ag1164
asg336
g1166
sbsS'IwGxSurface.h'
p2416
g310
(g1534
g312
Ntp2417
Rp2418
(dp2419
g1538
g1340
sg1539
g1685
sg336
g1388
sbsS's3eSocket.h'
p2420
g310
(g1534
g312
Ntp2421
Rp2422
(dp2423
g1538
g1546
sg1539
g1562
sg336
S'c:/marmalade/7.4/s3e/h/s3eSocket.h'
p2424
sbsS'IwAutoFile.h'
p2425
g310
(g1534
g312
Ntp2426
Rp2427
(dp2428
g1538
g1404
sg1539
g1575
sg336
g1490
sbsS's3eVibra.h'
p2429
g310
(g1534
g312
Ntp2430
Rp2431
(dp2432
g1538
g1546
sg1539
g1562
sg336
S'c:/marmalade/7.4/s3e/h/s3eVibra.h'
p2433
sbsS'poll_1.h'
p2434
g310
(g1534
g312
Ntp2435
Rp2436
(dp2437
g1538
g1546
sg1539
g1703
sg336
S'c:/marmalade/7.4/s3e/h/std/sys/poll.h'
p2438
sbsS's3eThread.h'
p2439
g310
(g1534
g312
Ntp2440
Rp2441
(dp2442
g1538
g1546
sg1539
g1562
sg336
S'c:/marmalade/7.4/s3e/h/s3eThread.h'
p2443
sbsS'ucontext.h'
p2444
g310
(g1534
g312
Ntp2445
Rp2446
(dp2447
g1538
g1546
sg1539
g1568
sg336
S'c:/marmalade/7.4/s3e/h/std/ucontext.h'
p2448
sbsS'time.h'
p2449
g310
(g1534
g312
Ntp2450
Rp2451
(dp2452
g1538
g1546
sg1539
g1568
sg336
S'c:/marmalade/7.4/s3e/h/std/time.h'
p2453
sbsS'jchuff.h'
p2454
g310
(g1534
g312
Ntp2455
Rp2456
(dp2457
g1538
g1049
sg1539
g1639
sg336
g1052
sbsS'IwSoundPCM.cpp'
p2458
g310
(g1534
g312
Ntp2459
Rp2460
(dp2461
g1538
g1093
sg1539
g1591
sg336
g1117
sbsS's3eSoundRecord.h'
p2462
g310
(g1534
g312
Ntp2463
Rp2464
(dp2465
g1538
g1546
sg1539
g1562
sg336
S'c:/marmalade/7.4/s3e/h/s3eSoundRecord.h'
p2466
sbsS'IwFibre.h'
p2467
g310
(g1534
g312
Ntp2468
Rp2469
(dp2470
g1538
g1404
sg1539
g1575
sg336
g1481
sbsS's3eVersion.h'
p2471
g310
(g1534
g312
Ntp2472
Rp2473
(dp2474
g1538
g1546
sg1539
g1562
sg336
S'c:/marmalade/7.4/s3e/h/s3eVersion.h'
p2475
sbsS'input.cpp'
p2476
g310
(g1534
g312
Ntp2477
Rp2478
(dp2479
g1538
g1145
sg1539
g1586
sg336
g1148
sbsS'IwSoundGroup.h'
p2480
g310
(g1534
g312
Ntp2481
Rp2482
(dp2483
g1538
g1093
sg1539
g1591
sg336
g1106
sbsS'IwSoundWAV.h'
p2484
g310
(g1534
g312
Ntp2485
Rp2486
(dp2487
g1538
g1093
sg1539
g1591
sg336
g1094
sbsS'IwGxFontGlyph.h'
p2488
g310
(g1534
g312
Ntp2489
Rp2490
(dp2491
g1538
g1218
sg1539
g1540
sg336
g1219
sbsS's3eTypes.h'
p2492
g310
(g1534
g312
Ntp2493
Rp2494
(dp2495
g1538
g1546
sg1539
g1562
sg336
S'c:/marmalade/7.4/s3e/h/s3eTypes.h'
p2496
sbsS'IwSoundSpec.h'
p2497
g310
(g1534
g312
Ntp2498
Rp2499
(dp2500
g1538
g1093
sg1539
g1591
sg336
g1119
sbsS'signal_2.h'
p2501
g310
(g1534
g312
Ntp2502
Rp2503
(dp2504
g1538
g1546
sg1539
g1547
sg336
S'c:/marmalade/7.4/s3e/h/std/c++/signal.h'
p2505
sbsS'termios.h'
p2506
g310
(g1534
g312
Ntp2507
Rp2508
(dp2509
g1538
g1546
sg1539
g1568
sg336
S'c:/marmalade/7.4/s3e/h/std/termios.h'
p2510
sbsS'iw2dscenegraph.mkf'
p2511
g310
(g1534
g312
Ntp2512
Rp2513
(dp2514
g1538
g1187
sg1539
g1859
sg336
g1185
sbsS'slist'
p2515
g310
(g1534
g312
Ntp2516
Rp2517
(dp2518
g1538
g1546
sg1539
g1547
sg336
S'c:/marmalade/7.4/s3e/h/std/c++/slist'
p2519
sbsS'cstdlib'
p2520
g310
(g1534
g312
Ntp2521
Rp2522
(dp2523
g1538
g1546
sg1539
g1547
sg336
S'c:/marmalade/7.4/s3e/h/std/c++/cstdlib'
p2524
sbsS's3eLocation.h'
p2525
g310
(g1534
g312
Ntp2526
Rp2527
(dp2528
g1538
g1546
sg1539
g1562
sg336
S'c:/marmalade/7.4/s3e/h/s3eLocation.h'
p2529
sbsS'IwMemBucketHelpers.h'
p2530
g310
(g1534
g312
Ntp2531
Rp2532
(dp2533
g1538
g1404
sg1539
g1575
sg336
g1453
sbsS's3eHash.h'
p2534
g310
(g1534
g312
Ntp2535
Rp2536
(dp2537
g1538
g1546
sg1539
g1562
sg336
S'c:/marmalade/7.4/s3e/h/s3eHash.h'
p2538
sbsS'IwSoundGroup.cpp'
p2539
g310
(g1534
g312
Ntp2540
Rp2541
(dp2542
g1538
g1093
sg1539
g1591
sg336
g1113
sbsS'IwGeomFMat.h'
p2543
g310
(g1534
g312
Ntp2544
Rp2545
(dp2546
g1538
g1240
sg1539
g1605
sg336
g1308
sbsS'type_traits.h'
p2547
g310
(g1534
g312
Ntp2548
Rp2549
(dp2550
g1538
g1546
sg1539
g1547
sg336
S'c:/marmalade/7.4/s3e/h/std/c++/type_traits.h'
p2551
sbsS'IwMenu.h'
p2552
g310
(g1534
g312
Ntp2553
Rp2554
(dp2555
g1538
g1404
sg1539
g1575
sg336
g1405
sbsS'IwResHandlerITX.h'
p2556
g310
(g1534
g312
Ntp2557
Rp2558
(dp2559
g1538
g1316
sg1539
g1817
sg336
g1314
sbsS'IwSoundData.h'
p2560
g310
(g1534
g312
Ntp2561
Rp2562
(dp2563
g1538
g1093
sg1539
g1591
sg336
g1133
sbsS'IwArray.h'
p2564
g310
(g1534
g312
Ntp2565
Rp2566
(dp2567
g1538
g1404
sg1539
g1575
sg336
g1471
sbsS'IwUTF8.h'
p2568
g310
(g1534
g312
Ntp2569
Rp2570
(dp2571
g1538
g1404
sg1539
g1575
sg336
g1475
sbsS'math_rvct.h'
p2572
g310
(g1534
g312
Ntp2573
Rp2574
(dp2575
g1538
g1546
sg1539
g1568
sg336
S'c:/marmalade/7.4/s3e/h/std/math_rvct.h'
p2576
sbsS'IwUtil.h'
p2577
g310
(g1534
g312
Ntp2578
Rp2579
(dp2580
g1538
g1404
sg1539
g1575
sg336
g1494
sbsS'IwFColour.h'
p2581
g310
(g1534
g312
Ntp2582
Rp2583
(dp2584
g1538
g1340
sg1539
g1685
sg336
g1351
sbsS'wctype.h'
p2585
g310
(g1534
g312
Ntp2586
Rp2587
(dp2588
g1538
g1546
sg1539
g1568
sg336
S'c:/marmalade/7.4/s3e/h/std/wctype.h'
p2589
sbsS'mainMenu.h'
p2590
g310
(g1534
g312
Ntp2591
Rp2592
(dp2593
g1538
g1145
sg1539
g1973
sg336
g1525
sbsS'cstddef'
p2594
g310
(g1534
g312
Ntp2595
Rp2596
(dp2597
g1538
g1546
sg1539
g1547
sg336
S'c:/marmalade/7.4/s3e/h/std/c++/cstddef'
p2598
sbsS'assert.h'
p2599
g310
(g1534
g312
Ntp2600
Rp2601
(dp2602
g1538
g1546
sg1539
g1568
sg336
S'c:/marmalade/7.4/s3e/h/std/assert.h'
p2603
sbsS'mman.h'
p2604
g310
(g1534
g312
Ntp2605
Rp2606
(dp2607
g1538
g1546
sg1539
g1703
sg336
S'c:/marmalade/7.4/s3e/h/std/sys/mman.h'
p2608
sbsS'IwRandom.h'
p2609
g310
(g1534
g312
Ntp2610
Rp2611
(dp2612
g1538
g1404
sg1539
g1575
sg336
g1417
sbsS'libgen.h'
p2613
g310
(g1534
g312
Ntp2614
Rp2615
(dp2616
g1538
g1546
sg1539
g1568
sg336
S'c:/marmalade/7.4/s3e/h/std/libgen.h'
p2617
sbsS'utsname.h'
p2618
g310
(g1534
g312
Ntp2619
Rp2620
(dp2621
g1538
g1546
sg1539
g1703
sg336
S'c:/marmalade/7.4/s3e/h/std/sys/utsname.h'
p2622
sbsS'wait.h'
p2623
g310
(g1534
g312
Ntp2624
Rp2625
(dp2626
g1538
g1546
sg1539
g1703
sg336
S'c:/marmalade/7.4/s3e/h/std/sys/wait.h'
p2627
sbsS'param.h'
p2628
g310
(g1534
g312
Ntp2629
Rp2630
(dp2631
g1538
g1546
sg1539
g1703
sg336
S'c:/marmalade/7.4/s3e/h/std/sys/param.h'
p2632
sbsS'IwDivide.h'
p2633
g310
(g1534
g312
Ntp2634
Rp2635
(dp2636
g1538
g1404
sg1539
g1575
sg336
g1467
sbsS'Iw2DSceneGraphCore.cpp'
p2637
g310
(g1534
g312
Ntp2638
Rp2639
(dp2640
g1538
g1397
sg1539
(lp2641
S"'Marmalade Studio'"
p2642
ag1390
asg336
g1395
sbsS'resources.h'
p2643
g310
(g1534
g312
Ntp2644
Rp2645
(dp2646
g1538
g1145
sg1539
g1973
sg336
g1519
sbsS'IwResManager.h'
p2647
g310
(g1534
g312
Ntp2648
Rp2649
(dp2650
g1538
g1316
sg1539
g1817
sg336
g1319
sbsS'IwSoundManager.h'
p2651
g310
(g1534
g312
Ntp2652
Rp2653
(dp2654
g1538
g1093
sg1539
g1591
sg336
g1111
sbsS'cwctype'
p2655
g310
(g1534
g312
Ntp2656
Rp2657
(dp2658
g1538
g1546
sg1539
g1547
sg336
S'c:/marmalade/7.4/s3e/h/std/c++/cwctype'
p2659
sbsS'set'
p2660
g310
(g1534
g312
Ntp2661
Rp2662
(dp2663
g1538
g1546
sg1539
g1547
sg336
S'c:/marmalade/7.4/s3e/h/std/c++/set'
p2664
sbsS'IwGeomSQuat.h'
p2665
g310
(g1534
g312
Ntp2666
Rp2667
(dp2668
g1538
g1240
sg1539
g1605
sg336
g1283
sbsS'locale'
p2669
g310
(g1534
g312
Ntp2670
Rp2671
(dp2672
g1538
g1546
sg1539
g1547
sg336
S'c:/marmalade/7.4/s3e/h/std/c++/locale'
p2673
sbsS'cstdio'
p2674
g310
(g1534
g312
Ntp2675
Rp2676
(dp2677
g1538
g1546
sg1539
g1547
sg336
S'c:/marmalade/7.4/s3e/h/std/c++/cstdio'
p2678
sbsS'cdjpeg.h'
p2679
g310
(g1534
g312
Ntp2680
Rp2681
(dp2682
g1538
g1049
sg1539
g1639
sg336
g1056
sbsS'audio.h'
p2683
g310
(g1534
g312
Ntp2684
Rp2685
(dp2686
g1538
g1145
sg1539
g1973
sg336
g1521
sbsS'IwList.h'
p2687
g310
(g1534
g312
Ntp2688
Rp2689
(dp2690
g1538
g1404
sg1539
g1575
sg336
g1435
sbsS'pauseMenu.cpp'
p2691
g310
(g1534
g312
Ntp2692
Rp2693
(dp2694
g1538
g1145
sg1539
g1586
sg336
g1150
sbsS'inttypes.h'
p2695
g310
(g1534
g312
Ntp2696
Rp2697
(dp2698
g1538
g1546
sg1539
g1568
sg336
S'c:/marmalade/7.4/s3e/h/std/inttypes.h'
p2699
sbsS'dirent.h'
p2700
g310
(g1534
g312
Ntp2701
Rp2702
(dp2703
g1538
g1546
sg1539
g1568
sg336
S'c:/marmalade/7.4/s3e/h/std/dirent.h'
p2704
sbsS'IwGeomVec3.h'
p2705
g310
(g1534
g312
Ntp2706
Rp2707
(dp2708
g1538
g1240
sg1539
g1605
sg336
g1277
sbsS'transupp.h'
p2709
g310
(g1534
g312
Ntp2710
Rp2711
(dp2712
g1538
g1049
sg1539
g1639
sg336
g1068
sbsS'IwMath.h'
p2713
g310
(g1534
g312
Ntp2714
Rp2715
(dp2716
g1538
g1404
sg1539
g1575
sg336
g1479
sbsS'IwGeomQuat.h'
p2717
g310
(g1534
g312
Ntp2718
Rp2719
(dp2720
g1538
g1240
sg1539
g1605
sg336
g1259
sbsS'glplatform.h'
p2721
g310
(g1534
g312
Ntp2722
Rp2723
(dp2724
g1538
g1546
sg1539
g1910
sg336
S'c:/marmalade/7.4/s3e/h/GLES/glplatform.h'
p2725
sbsS'iwgl.config.txt'
p2726
g310
(g1534
g312
Ntp2727
Rp2728
(dp2729
g1538
g1197
sg1539
g1556
sg336
g1195
sbsS'bitset'
p2730
g310
(g1534
g312
Ntp2731
Rp2732
(dp2733
g1538
g1546
sg1539
g1547
sg336
S'c:/marmalade/7.4/s3e/h/std/c++/bitset'
p2734
sbsS'alloca.h'
p2735
g310
(g1534
g312
Ntp2736
Rp2737
(dp2738
g1538
g1546
sg1539
g1568
sg336
S'c:/marmalade/7.4/s3e/h/std/alloca.h'
p2739
sbsS'IwResHandler.h'
p2740
g310
(g1534
g312
Ntp2741
Rp2742
(dp2743
g1538
g1316
sg1539
g1817
sg336
g1332
sbsS'IwResHandlerMTL.h'
p2744
g310
(g1534
g312
Ntp2745
Rp2746
(dp2747
g1538
g1340
sg1539
g1685
sg336
g1369
sbsS'IwRuntime.h'
p2748
g310
(g1534
g312
Ntp2749
Rp2750
(dp2751
g1538
g1404
sg1539
g1575
sg336
g1451
sbsS'limits'
p2752
g310
(g1534
g312
Ntp2753
Rp2754
(dp2755
g1538
g1546
sg1539
g1547
sg336
S'c:/marmalade/7.4/s3e/h/std/c++/limits'
p2756
sbsS'IwGeomBBox.h'
p2757
g310
(g1534
g312
Ntp2758
Rp2759
(dp2760
g1538
g1240
sg1539
g1605
sg336
g1290
sbsS's3eContacts.h'
p2761
g310
(g1534
g312
Ntp2762
Rp2763
(dp2764
g1538
g1546
sg1539
g1562
sg336
S'c:/marmalade/7.4/s3e/h/s3eContacts.h'
p2765
sbsS's3eLicense.h'
p2766
g310
(g1534
g312
Ntp2767
Rp2768
(dp2769
g1538
g1546
sg1539
g1562
sg336
S'c:/marmalade/7.4/s3e/h/s3eLicense.h'
p2770
sbsS'iwgx.config.txt'
p2771
g310
(g1534
g312
Ntp2772
Rp2773
(dp2774
g1538
g1340
sg1539
g1685
sg336
g1375
sbsS'IwTextParser.h'
p2775
g310
(g1534
g312
Ntp2776
Rp2777
(dp2778
g1538
g1404
sg1539
g1575
sg336
g1402
sbsS's3eTimer.h'
p2779
g310
(g1534
g312
Ntp2780
Rp2781
(dp2782
g1538
g1546
sg1539
g1562
sg336
S'c:/marmalade/7.4/s3e/h/s3eTimer.h'
p2783
sbsS'IwGeomVec.h'
p2784
g310
(g1534
g312
Ntp2785
Rp2786
(dp2787
g1538
g1240
sg1539
g1605
sg336
g1267
sbsS'IwSerialise.h'
p2788
g310
(g1534
g312
Ntp2789
Rp2790
(dp2791
g1538
g1404
sg1539
g1575
sg336
g1437
sbsS'cstdarg'
p2792
g310
(g1534
g312
Ntp2793
Rp2794
(dp2795
g1538
g1546
sg1539
g1547
sg336
S'c:/marmalade/7.4/s3e/h/std/c++/cstdarg'
p2796
sbsS'gl2ext.h'
p2797
g310
(g1534
g312
Ntp2798
Rp2799
(dp2800
g1538
g1546
sg1539
g1809
sg336
S'c:/marmalade/7.4/s3e/h/GLES2/gl2ext.h'
p2801
sbsS'IwChar.h'
p2802
g310
(g1534
g312
Ntp2803
Rp2804
(dp2805
g1538
g1404
sg1539
g1575
sg336
g1457
sbsS's3eSound.h'
p2806
g310
(g1534
g312
Ntp2807
Rp2808
(dp2809
g1538
g1546
sg1539
g1562
sg336
S'c:/marmalade/7.4/s3e/h/s3eSound.h'
p2810
sbsS's3eIOSBackgroundAudio.h'
p2811
g310
(g1534
g312
Ntp2812
Rp2813
(dp2814
g1538
g1546
sg1539
g1772
sg336
S'c:/marmalade/7.4/s3e/h/ext/s3eIOSBackgroundAudio.h'
p2815
sbsS'exception.h'
p2816
g310
(g1534
g312
Ntp2817
Rp2818
(dp2819
g1538
g1546
sg1539
g1547
sg336
S'c:/marmalade/7.4/s3e/h/std/c++/exception.h'
p2820
sbsS'iwgeom.config.txt'
p2821
g310
(g1534
g312
Ntp2822
Rp2823
(dp2824
g1538
g1240
sg1539
g1605
sg336
g1238
sbsS'iwgx.mkf'
p2825
g310
(g1534
g312
Ntp2826
Rp2827
(dp2828
g1538
g1381
sg1539
g1685
sg336
g1379
sbsS'gl.h'
p2829
g310
(g1534
g312
Ntp2830
Rp2831
(dp2832
g1538
g1546
sg1539
g1910
sg336
S'c:/marmalade/7.4/s3e/h/GLES/gl.h'
p2833
sbsS'zlib.h'
p2834
g310
(g1534
g312
Ntp2835
Rp2836
(dp2837
g1538
g1509
sg1539
g2241
sg336
g1510
sbsS'temp_defines_release.h'
p2838
g310
(g1534
g312
Ntp2839
Rp2840
(dp2841
g1538
(lp2842
sg1539
(lp2843
S"'generated files'"
p2844
asg336
S'e:/Documents/Michiel/Programmeren/Marmalade/MVSStage3/build_mvsstage3_vc12x/temp_defines_release.h'
p2845
sbsS'iwgl.mkf'
p2846
g310
(g1534
g312
Ntp2847
Rp2848
(dp2849
g1538
g1194
sg1539
g1556
sg336
g1192
sbsS'IwColour.h'
p2850
g310
(g1534
g312
Ntp2851
Rp2852
(dp2853
g1538
g1340
sg1539
g1685
sg336
g1353
sbsS's3eLibrary.h'
p2854
g310
(g1534
g312
Ntp2855
Rp2856
(dp2857
g1538
g1546
sg1539
g1772
sg336
S'c:/marmalade/7.4/s3e/h/ext/s3eLibrary.h'
p2858
sbsS'types.h'
p2859
g310
(g1534
g312
Ntp2860
Rp2861
(dp2862
g1538
g1546
sg1539
g1703
sg336
S'c:/marmalade/7.4/s3e/h/std/sys/types.h'
p2863
sbsS'ifaddrs.h'
p2864
g310
(g1534
g312
Ntp2865
Rp2866
(dp2867
g1538
g1546
sg1539
g1568
sg336
S'c:/marmalade/7.4/s3e/h/std/ifaddrs.h'
p2868
sbsS'strstream'
p2869
g310
(g1534
g312
Ntp2870
Rp2871
(dp2872
g1538
g1546
sg1539
g1547
sg336
S'c:/marmalade/7.4/s3e/h/std/c++/strstream'
p2873
sbsS'exception'
p2874
g310
(g1534
g312
Ntp2875
Rp2876
(dp2877
g1538
g1546
sg1539
g1547
sg336
S'c:/marmalade/7.4/s3e/h/std/c++/exception'
p2878
sbsS'rlocks.h'
p2879
g310
(g1534
g312
Ntp2880
Rp2881
(dp2882
g1538
g1546
sg1539
g1547
sg336
S'c:/marmalade/7.4/s3e/h/std/c++/rlocks.h'
p2883
sbsS'ioctl.h'
p2884
g310
(g1534
g312
Ntp2885
Rp2886
(dp2887
g1538
g1546
sg1539
g1703
sg336
S'c:/marmalade/7.4/s3e/h/std/sys/ioctl.h'
p2888
sbsS'rope'
p2889
g310
(g1534
g312
Ntp2890
Rp2891
(dp2892
g1538
g1546
sg1539
g1547
sg336
S'c:/marmalade/7.4/s3e/h/std/c++/rope'
p2893
sbsS'jinclude.h'
p2894
g310
(g1534
g312
Ntp2895
Rp2896
(dp2897
g1538
g1049
sg1539
g1639
sg336
g1058
sbsS'IwEvent.h'
p2898
g310
(g1534
g312
Ntp2899
Rp2900
(dp2901
g1538
g1404
sg1539
g1575
sg336
g1477
sbsS'IwOptimiseSize.h'
p2902
g310
(g1534
g312
Ntp2903
Rp2904
(dp2905
g1538
g1404
sg1539
g1575
sg336
g1502
sbsS'iwgxfont_public.defines.txt'
p2906
g310
(g1534
g312
Ntp2907
Rp2908
(dp2909
g1538
g1218
sg1539
g1540
sg336
g1216
sbsS'iconv.h'
p2910
g310
(g1534
g312
Ntp2911
Rp2912
(dp2913
g1538
g1546
sg1539
g1568
sg336
S'c:/marmalade/7.4/s3e/h/std/iconv.h'
p2914
sbsS'sendfile.h'
p2915
g310
(g1534
g312
Ntp2916
Rp2917
(dp2918
g1538
g1546
sg1539
g1703
sg336
S'c:/marmalade/7.4/s3e/h/std/sys/sendfile.h'
p2919
sbsS'IwGeomSphere.h'
p2920
g310
(g1534
g312
Ntp2921
Rp2922
(dp2923
g1538
g1240
sg1539
g1605
sg336
g1298
sbsS'tiniconv.mkf'
p2924
g310
(g1534
g312
Ntp2925
Rp2926
(dp2927
g1538
g1086
sg1539
g2026
sg336
g1084
sbsS'iw2dscenegraph.defines.txt'
p2928
g310
(g1534
g312
Ntp2929
Rp2930
(dp2931
g1538
g1182
sg1539
g1859
sg336
g1188
sbsS'jdct.h'
p2932
g310
(g1534
g312
Ntp2933
Rp2934
(dp2935
g1538
g1049
sg1539
g1639
sg336
g1064
sbsS'cctype'
p2936
g310
(g1534
g312
Ntp2937
Rp2938
(dp2939
g1538
g1546
sg1539
g1547
sg336
S'c:/marmalade/7.4/s3e/h/std/c++/cctype'
p2940
sbsS'IwSoundADPCM.cpp'
p2941
g310
(g1534
g312
Ntp2942
Rp2943
(dp2944
g1538
g1093
sg1539
g1591
sg336
g1115
sbsS's3eConfig.h'
p2945
g310
(g1534
g312
Ntp2946
Rp2947
(dp2948
g1538
g1546
sg1539
g1562
sg336
S'c:/marmalade/7.4/s3e/h/s3eConfig.h'
p2949
sbsS'IwHashString.h'
p2950
g310
(g1534
g312
Ntp2951
Rp2952
(dp2953
g1538
g1404
sg1539
g1575
sg336
g1429
sbsS'stat.h'
p2954
g310
(g1534
g312
Ntp2955
Rp2956
(dp2957
g1538
g1546
sg1539
g1703
sg336
S'c:/marmalade/7.4/s3e/h/std/sys/stat.h'
p2958
sbsS'byteswap.h'
p2959
g310
(g1534
g312
Ntp2960
Rp2961
(dp2962
g1538
g1546
sg1539
g1568
sg336
S'c:/marmalade/7.4/s3e/h/std/byteswap.h'
p2963
sbsS'iwresmanager.mkf'
p2964
g310
(g1534
g312
Ntp2965
Rp2966
(dp2967
g1538
g1329
sg1539
g1817
sg336
g1327
sbsS'IwUtilInitTerm.h'
p2968
g310
(g1534
g312
Ntp2969
Rp2970
(dp2971
g1538
g1404
sg1539
g1575
sg336
g1407
sbsS'pthread_1.h'
p2972
g310
(g1534
g312
Ntp2973
Rp2974
(dp2975
g1538
g1546
sg1539
g1547
sg336
S'c:/marmalade/7.4/s3e/h/std/c++/pthread.h'
p2976
sbsS'IwMemBucket.h'
p2977
g310
(g1534
g312
Ntp2978
Rp2979
(dp2980
g1538
g1404
sg1539
g1575
sg336
g1465
sbsS'complex'
p2981
g310
(g1534
g312
Ntp2982
Rp2983
(dp2984
g1538
g1546
sg1539
g1547
sg336
S'c:/marmalade/7.4/s3e/h/std/c++/complex'
p2985
sbsS'game.cpp'
p2986
g310
(g1534
g312
Ntp2987
Rp2988
(dp2989
g1538
g1145
sg1539
g1586
sg336
g1154
sbsS'algorithm'
p2990
g310
(g1534
g312
Ntp2991
Rp2992
(dp2993
g1538
g1546
sg1539
g1547
sg336
S'c:/marmalade/7.4/s3e/h/std/c++/algorithm'
p2994
sbsS's3e.icf'
p2995
g310
(g1534
g312
Ntp2996
Rp2997
(dp2998
g1538
g1546
sg1539
g1562
sg336
S'c:/marmalade/7.4/s3e/s3e.icf'
p2999
sbsS'IwVariableBitField.h'
p3000
g310
(g1534
g312
Ntp3001
Rp3002
(dp3003
g1538
g1404
sg1539
g1575
sg336
g1500
sbsS'sem.h'
p3004
g310
(g1534
g312
Ntp3005
Rp3006
(dp3007
g1538
g1546
sg1539
g1703
sg336
S'c:/marmalade/7.4/s3e/h/std/sys/sem.h'
p3008
sbsS'IwGxFontState.h'
p3009
g310
(g1534
g312
Ntp3010
Rp3011
(dp3012
g1538
g1218
sg1539
g1540
sg336
g1229
sbsS'stdio.h'
p3013
g310
(g1534
g312
Ntp3014
Rp3015
(dp3016
g1538
g1546
sg1539
g1568
sg336
S'c:/marmalade/7.4/s3e/h/std/stdio.h'
p3017
sbsS'jmemsys.h'
p3018
g310
(g1534
g312
Ntp3019
Rp3020
(dp3021
g1538
g1049
sg1539
g1639
sg336
g1050
sbsS'ios'
p3022
g310
(g1534
g312
Ntp3023
Rp3024
(dp3025
g1538
g1546
sg1539
g1547
sg336
S'c:/marmalade/7.4/s3e/h/std/c++/ios'
p3026
sbsS'PVRTexTool.defines.txt'
p3027
g310
(g1534
g312
Ntp3028
Rp3029
(dp3030
g1538
g1168
sg1539
g2415
sg336
g1169
sbsS'stack'
p3031
g310
(g1534
g312
Ntp3032
Rp3033
(dp3034
g1538
g1546
sg1539
g1547
sg336
S'c:/marmalade/7.4/s3e/h/std/c++/stack'
p3035
sbsS'IwSoundParams.h'
p3036
g310
(g1534
g312
Ntp3037
Rp3038
(dp3039
g1538
g1093
sg1539
g1591
sg336
g1127
sbsS'new.h'
p3040
g310
(g1534
g312
Ntp3041
Rp3042
(dp3043
g1538
g1546
sg1539
g1547
sg336
S'c:/marmalade/7.4/s3e/h/std/c++/new.h'
p3044
sbsS's3eEMail.h'
p3045
g310
(g1534
g312
Ntp3046
Rp3047
(dp3048
g1538
g1546
sg1539
g1772
sg336
S'c:/marmalade/7.4/s3e/h/ext/s3eEMail.h'
p3049
sbsS's3eVideo.h'
p3050
g310
(g1534
g312
Ntp3051
Rp3052
(dp3053
g1538
g1546
sg1539
g1562
sg336
S'c:/marmalade/7.4/s3e/h/s3eVideo.h'
p3054
sbsS'pngconf.h'
p3055
g310
(g1534
g312
Ntp3056
Rp3057
(dp3058
g1538
g1038
sg1539
g2297
sg336
g1039
sbsS'pwd.h'
p3059
g310
(g1534
g312
Ntp3060
Rp3061
(dp3062
g1538
g1546
sg1539
g1568
sg336
S'c:/marmalade/7.4/s3e/h/std/pwd.h'
p3063
sbsS'gl3.h'
p3064
g310
(g1534
g312
Ntp3065
Rp3066
(dp3067
g1538
g1546
sg1539
g1870
sg336
S'c:/marmalade/7.4/s3e/h/GLES3/gl3.h'
p3068
sbsS'IwClip.h'
p3069
g310
(g1534
g312
Ntp3070
Rp3071
(dp3072
g1538
g1340
sg1539
g1685
sg336
g1357
sbsS'IwSoundInst.h'
p3073
g310
(g1534
g312
Ntp3074
Rp3075
(dp3076
g1538
g1093
sg1539
g1591
sg336
g1091
sbsS'iwresmanager.config.txt'
p3077
g310
(g1534
g312
Ntp3078
Rp3079
(dp3080
g1538
g1316
sg1539
g1817
sg336
g1334
sbsS'IwGxShaderTechnique.h'
p3081
g310
(g1534
g312
Ntp3082
Rp3083
(dp3084
g1538
g1340
sg1539
g1685
sg336
g1384
sbsS'IwCore.h'
p3085
g310
(g1534
g312
Ntp3086
Rp3087
(dp3088
g1538
g1404
sg1539
g1575
sg336
g1423
sbsS'cfloat'
p3089
g310
(g1534
g312
Ntp3090
Rp3091
(dp3092
g1538
g1546
sg1539
g1547
sg336
S'c:/marmalade/7.4/s3e/h/std/c++/cfloat'
p3093
sbsS'IwGeomMat2D.h'
p3094
g310
(g1534
g312
Ntp3095
Rp3096
(dp3097
g1538
g1240
sg1539
g1605
sg336
g1296
sbsS'IwAllocator.h'
p3098
g310
(g1534
g312
Ntp3099
Rp3100
(dp3101
g1538
g1404
sg1539
g1575
sg336
g1443
sbsS'IwPath.h'
p3102
g310
(g1534
g312
Ntp3103
Rp3104
(dp3105
g1538
g1404
sg1539
g1575
sg336
g1496
sbsS'iwgxfont.mkf'
p3106
g310
(g1534
g312
Ntp3107
Rp3108
(dp3109
g1538
g1235
sg1539
g1540
sg336
g1233
sbsS'IwTexture.h'
p3110
g310
(g1534
g312
Ntp3111
Rp3112
(dp3113
g1538
g1340
sg1539
g1685
sg336
g1349
sbsS'IwGeomVec.h.tpl'
p3114
g310
(g1534
g312
Ntp3115
Rp3116
(dp3117
g1538
g1240
sg1539
g1605
sg336
g1247
sbsS's3eAccelerometer.h'
p3118
g310
(g1534
g312
Ntp3119
Rp3120
(dp3121
g1538
g1546
sg1539
g1562
sg336
S'c:/marmalade/7.4/s3e/h/s3eAccelerometer.h'
p3122
sbsS'setjmp.h'
p3123
g310
(g1534
g312
Ntp3124
Rp3125
(dp3126
g1538
g1546
sg1539
g1568
sg336
S'c:/marmalade/7.4/s3e/h/std/setjmp.h'
p3127
sbsS'IwSoundParams.cpp'
p3128
g310
(g1534
g312
Ntp3129
Rp3130
(dp3131
g1538
g1093
sg1539
g1591
sg336
g1096
sbsS'IwFile.h'
p3132
g310
(g1534
g312
Ntp3133
Rp3134
(dp3135
g1538
g1404
sg1539
g1575
sg336
g1449
sbsS'IwTextParseable.h'
p3136
g310
(g1534
g312
Ntp3137
Rp3138
(dp3139
g1538
g1404
sg1539
g1575
sg336
g1447
sbsS'istream.h'
p3140
g310
(g1534
g312
Ntp3141
Rp3142
(dp3143
g1538
g1546
sg1539
g1547
sg336
S'c:/marmalade/7.4/s3e/h/std/c++/istream.h'
p3144
sbsS'stdint.h'
p3145
g310
(g1534
g312
Ntp3146
Rp3147
(dp3148
g1538
g1546
sg1539
g1568
sg336
S'c:/marmalade/7.4/s3e/h/std/stdint.h'
p3149
sbsS'semaphore.h'
p3150
g310
(g1534
g312
Ntp3151
Rp3152
(dp3153
g1538
g1546
sg1539
g1568
sg336
S'c:/marmalade/7.4/s3e/h/std/semaphore.h'
p3154
sbsS'ctime'
p3155
g310
(g1534
g312
Ntp3156
Rp3157
(dp3158
g1538
g1546
sg1539
g1547
sg336
S'c:/marmalade/7.4/s3e/h/std/c++/ctime'
p3159
sbsS'sstream'
p3160
g310
(g1534
g312
Ntp3161
Rp3162
(dp3163
g1538
g1546
sg1539
g1547
sg336
S'c:/marmalade/7.4/s3e/h/std/c++/sstream'
p3164
sbsS'IwGeomFBBox.h'
p3165
g310
(g1534
g312
Ntp3166
Rp3167
(dp3168
g1538
g1240
sg1539
g1605
sg336
g1261
sbsS'IwDebugPrim.h'
p3169
g310
(g1534
g312
Ntp3170
Rp3171
(dp3172
g1538
g1340
sg1539
g1685
sg336
g1338
sbsS'IwGxFontContainer.h'
p3173
g310
(g1534
g312
Ntp3174
Rp3175
(dp3176
g1538
g1218
sg1539
g1540
sg336
g1231
sbsS'IwGeomSVec3.h'
p3177
g310
(g1534
g312
Ntp3178
Rp3179
(dp3180
g1538
g1240
sg1539
g1605
sg336
g1273
sbsS'iw2dscenegraphcore.mkf'
p3181
g310
(g1534
g312
Ntp3182
Rp3183
(dp3184
g1538
g1394
sg1539
g2641
sg336
g1392
sbsS's3eExt.h'
p3185
g310
(g1534
g312
Ntp3186
Rp3187
(dp3188
g1538
g1546
sg1539
g1562
sg336
S'c:/marmalade/7.4/s3e/h/s3eExt.h'
p3189
sbsS'IwGeomFVec3.h'
p3190
g310
(g1534
g312
Ntp3191
Rp3192
(dp3193
g1538
g1240
sg1539
g1605
sg336
g1300
sbsS'streambuf'
p3194
g310
(g1534
g312
Ntp3195
Rp3196
(dp3197
g1538
g1546
sg1539
g1547
sg336
S'c:/marmalade/7.4/s3e/h/std/c++/streambuf'
p3198
sbsS's3eMetrics.h'
p3199
g310
(g1534
g312
Ntp3200
Rp3201
(dp3202
g1538
g1546
sg1539
g1772
sg336
S'c:/marmalade/7.4/s3e/h/ext/s3eMetrics.h'
p3203
sbsS'IwGxFont.h'
p3204
g310
(g1534
g312
Ntp3205
Rp3206
(dp3207
g1538
g1218
sg1539
g1540
sg336
g1223
sbsS's3eSecureStorage.h'
p3208
g310
(g1534
g312
Ntp3209
Rp3210
(dp3211
g1538
g1546
sg1539
g1562
sg336
S'c:/marmalade/7.4/s3e/h/s3eSecureStorage.h'
p3212
sbsS'string.h'
p3213
g310
(g1534
g312
Ntp3214
Rp3215
(dp3216
g1538
g1546
sg1539
g1568
sg336
S'c:/marmalade/7.4/s3e/h/std/string.h'
p3217
sbsS'IwResource.h'
p3218
g310
(g1534
g312
Ntp3219
Rp3220
(dp3221
g1538
g1404
sg1539
g1575
sg336
g1421
sbsS'IwGeomSVec2.h'
p3222
g310
(g1534
g312
Ntp3223
Rp3224
(dp3225
g1538
g1240
sg1539
g1605
sg336
g1294
sbsS'libjpeg.mkf'
p3226
g310
(g1534
g312
Ntp3227
Rp3228
(dp3229
g1538
g1078
sg1539
(lp3230
g1044
asg336
g1076
sbsS'IwGxDebug.h'
p3231
g310
(g1534
g312
Ntp3232
Rp3233
(dp3234
g1538
g1340
sg1539
g1685
sg336
g1363
sbsS'pthread_types.h'
p3235
g310
(g1534
g312
Ntp3236
Rp3237
(dp3238
g1538
g1546
sg1539
g1568
sg336
S'c:/marmalade/7.4/s3e/h/std/pthread_types.h'
p3239
sbsS'iomanip.h'
p3240
g310
(g1534
g312
Ntp3241
Rp3242
(dp3243
g1538
g1546
sg1539
g1547
sg336
S'c:/marmalade/7.4/s3e/h/std/c++/iomanip.h'
p3244
sbsS'IwKeymap.h'
p3245
g310
(g1534
g312
Ntp3246
Rp3247
(dp3248
g1538
g1404
sg1539
g1575
sg336
g1419
sbsS'IwDebug.h'
p3249
g310
(g1534
g312
Ntp3250
Rp3251
(dp3252
g1538
g1404
sg1539
g1575
sg336
g1411
sbsS'IwOptimiseThumb.h'
p3253
g310
(g1534
g312
Ntp3254
Rp3255
(dp3256
g1538
g1404
sg1539
g1575
sg336
g1492
sbsS'IwGeomMenu.h'
p3257
g310
(g1534
g312
Ntp3258
Rp3259
(dp3260
g1538
g1240
sg1539
g1605
sg336
g1253
sbsS'IwDivTable.h'
p3261
g310
(g1534
g312
Ntp3262
Rp3263
(dp3264
g1538
g1404
sg1539
g1575
sg336
g1413
sbsS'ctype.h'
p3265
g310
(g1534
g312
Ntp3266
Rp3267
(dp3268
g1538
g1546
sg1539
g1568
sg336
S'c:/marmalade/7.4/s3e/h/std/ctype.h'
p3269
sbsS'mainMenu.cpp'
p3270
g310
(g1534
g312
Ntp3271
Rp3272
(dp3273
g1538
g1145
sg1539
g1586
sg336
g1156
sbsS'IwResGroup.h'
p3274
g310
(g1534
g312
Ntp3275
Rp3276
(dp3277
g1538
g1316
sg1539
g1817
sg336
g1317
sbsS'signal_1.h'
p3278
g310
(g1534
g312
Ntp3279
Rp3280
(dp3281
g1538
g1546
sg1539
g1703
sg336
S'c:/marmalade/7.4/s3e/h/std/sys/signal.h'
p3282
sbsS'IwSoundData.cpp'
p3283
g310
(g1534
g312
Ntp3284
Rp3285
(dp3286
g1538
g1093
sg1539
g1591
sg336
g1121
sbsS'functional'
p3287
g310
(g1534
g312
Ntp3288
Rp3289
(dp3290
g1538
g1546
sg1539
g1547
sg336
S'c:/marmalade/7.4/s3e/h/std/c++/functional'
p3291
sbsS'shm.h'
p3292
g310
(g1534
g312
Ntp3293
Rp3294
(dp3295
g1538
g1546
sg1539
g1703
sg336
S'c:/marmalade/7.4/s3e/h/std/sys/shm.h'
p3296
sbsS'IwManagedList.h'
p3297
g310
(g1534
g312
Ntp3298
Rp3299
(dp3300
g1538
g1404
sg1539
g1575
sg336
g1433
sbsS'prctl.h'
p3301
g310
(g1534
g312
Ntp3302
Rp3303
(dp3304
g1538
g1546
sg1539
g1703
sg336
S'c:/marmalade/7.4/s3e/h/std/sys/prctl.h'
p3305
sbsS'IwGxStream.h'
p3306
g310
(g1534
g312
Ntp3307
Rp3308
(dp3309
g1538
g1340
sg1539
g1685
sg336
g1367
sbsS'temp_defines_debug.h'
p3310
g310
(g1534
g312
Ntp3311
Rp3312
(dp3313
g1538
(lp3314
sg1539
(lp3315
g2844
asg336
S'e:/Documents/Michiel/Programmeren/Marmalade/MVSStage3/build_mvsstage3_vc12x/temp_defines_debug.h'
p3316
sbsS'utility'
p3317
g310
(g1534
g312
Ntp3318
Rp3319
(dp3320
g1538
g1546
sg1539
g1547
sg336
S'c:/marmalade/7.4/s3e/h/std/c++/utility'
p3321
sbsS'input.h'
p3322
g310
(g1534
g312
Ntp3323
Rp3324
(dp3325
g1538
g1145
sg1539
g1973
sg336
g1529
sbsS'IwGeomLegacy.h'
p3326
g310
(g1534
g312
Ntp3327
Rp3328
(dp3329
g1538
g1240
sg1539
g1605
sg336
g1281
sbsS'IwTPage.h'
p3330
g310
(g1534
g312
Ntp3331
Rp3332
(dp3333
g1538
g1340
sg1539
g1685
sg336
g1359
sbsS'IwResSerialise.h'
p3334
g310
(g1534
g312
Ntp3335
Rp3336
(dp3337
g1538
g1316
sg1539
g1817
sg336
g1323
sbsS's3eCrypto.h'
p3338
g310
(g1534
g312
Ntp3339
Rp3340
(dp3341
g1538
g1546
sg1539
g1562
sg336
S'c:/marmalade/7.4/s3e/h/s3eCrypto.h'
p3342
sbsS's3eKeyboard.h'
p3343
g310
(g1534
g312
Ntp3344
Rp3345
(dp3346
g1538
g1546
sg1539
g1562
sg336
S'c:/marmalade/7.4/s3e/h/s3eKeyboard.h'
p3347
sbsS'fcntl.h'
p3348
g310
(g1534
g312
Ntp3349
Rp3350
(dp3351
g1538
g1546
sg1539
g1568
sg336
S'c:/marmalade/7.4/s3e/h/std/fcntl.h'
p3352
sbsS'Iw2DSceneGraphCore.h'
p3353
g310
(g1534
g312
Ntp3354
Rp3355
(dp3356
g1538
g1397
sg1539
g2641
sg336
g1398
sbsS'memory.h'
p3357
g310
(g1534
g312
Ntp3358
Rp3359
(dp3360
g1538
g1546
sg1539
g1568
sg336
S'c:/marmalade/7.4/s3e/h/std/memory.h'
p3361
sbsS'pthread.h'
p3362
g310
(g1534
g312
Ntp3363
Rp3364
(dp3365
g1538
g1546
sg1539
g1568
sg336
S'c:/marmalade/7.4/s3e/h/std/pthread.h'
p3366
sbsS'IwGeomIntersect.h'
p3367
g310
(g1534
g312
Ntp3368
Rp3369
(dp3370
g1538
g1240
sg1539
g1605
sg336
g1292
sbsS'IwTextParserITX.h'
p3371
g310
(g1534
g312
Ntp3372
Rp3373
(dp3374
g1538
g1404
sg1539
g1575
sg336
g1425
sbsS'IwClip.inl'
p3375
g310
(g1534
g312
Ntp3376
Rp3377
(dp3378
g1538
g1340
sg1539
g1685
sg336
g1343
sbsS'Iw2DSceneGraph.cpp'
p3379
g310
(g1534
g312
Ntp3380
Rp3381
(dp3382
g1538
g1182
sg1539
g1859
sg336
g1183
sbsS'ostream.h'
p3383
g310
(g1534
g312
Ntp3384
Rp3385
(dp3386
g1538
g1546
sg1539
g1547
sg336
S'c:/marmalade/7.4/s3e/h/std/c++/ostream.h'
p3387
sbsS'stl_user_config.h'
p3388
g310
(g1534
g312
Ntp3389
Rp3390
(dp3391
g1538
g1546
sg1539
g1547
sg336
S'c:/marmalade/7.4/s3e/h/std/c++/stl_user_config.h'
p3392
sbsS'IwProfileMenu.h'
p3393
g310
(g1534
g312
Ntp3394
Rp3395
(dp3396
g1538
g1404
sg1539
g1575
sg336
g1431
sbsS'MarmaladeVersion.h'
p3397
g310
(g1534
g312
Ntp3398
Rp3399
(dp3400
g1538
g1546
sg1539
g1562
sg336
S'c:/marmalade/7.4/s3e/h/MarmaladeVersion.h'
p3401
sbsS'IwResHandlerWAV.h'
p3402
g310
(g1534
g312
Ntp3403
Rp3404
(dp3405
g1538
g1093
sg1539
g1591
sg336
g1137
sbsS'gl3platform.h'
p3406
g310
(g1534
g312
Ntp3407
Rp3408
(dp3409
g1538
g1546
sg1539
g1870
sg336
S'c:/marmalade/7.4/s3e/h/GLES3/gl3platform.h'
p3410
sbsS'ios.h'
p3411
g310
(g1534
g312
Ntp3412
Rp3413
(dp3414
g1538
g1546
sg1539
g1547
sg336
S'c:/marmalade/7.4/s3e/h/std/c++/ios.h'
p3415
sbsS'IwImageHelper.h'
p3416
g310
(g1534
g312
Ntp3417
Rp3418
(dp3419
g1538
g1404
sg1539
g1575
sg336
g1463
sbsS'hash_set'
p3420
g310
(g1534
g312
Ntp3421
Rp3422
(dp3423
g1538
g1546
sg1539
g1547
sg336
S'c:/marmalade/7.4/s3e/h/std/c++/hash_set'
p3424
sbsS'IwGeomFQuat.h'
p3425
g310
(g1534
g312
Ntp3426
Rp3427
(dp3428
g1538
g1240
sg1539
g1605
sg336
g1251
sbsS'jmorecfg.h'
p3429
g310
(g1534
g312
Ntp3430
Rp3431
(dp3432
g1538
g1049
sg1539
g1639
sg336
g1074
sbsS'eglplatform.h'
p3433
g310
(g1534
g312
Ntp3434
Rp3435
(dp3436
g1538
g1546
sg1539
g1902
sg336
S'c:/marmalade/7.4/s3e/h/EGL/eglplatform.h'
p3437
sbsS'cmath'
p3438
g310
(g1534
g312
Ntp3439
Rp3440
(dp3441
g1538
g1546
sg1539
g1547
sg336
S'c:/marmalade/7.4/s3e/h/std/c++/cmath'
p3442
sbsS'math_gcc.h'
p3443
g310
(g1534
g312
Ntp3444
Rp3445
(dp3446
g1538
g1546
sg1539
g1568
sg336
S'c:/marmalade/7.4/s3e/h/std/math_gcc.h'
p3447
sbsS's3eMemory.h'
p3448
g310
(g1534
g312
Ntp3449
Rp3450
(dp3451
g1538
g1546
sg1539
g1562
sg336
S'c:/marmalade/7.4/s3e/h/s3eMemory.h'
p3452
sbsS'strings.h'
p3453
g310
(g1534
g312
Ntp3454
Rp3455
(dp3456
g1538
g1546
sg1539
g1568
sg336
S'c:/marmalade/7.4/s3e/h/std/strings.h'
p3457
sbsS's3eFile.h'
p3458
g310
(g1534
g312
Ntp3459
Rp3460
(dp3461
g1538
g1546
sg1539
g1562
sg336
S'c:/marmalade/7.4/s3e/h/s3eFile.h'
p3462
sbsS'IwGxTypes.h'
p3463
g310
(g1534
g312
Ntp3464
Rp3465
(dp3466
g1538
g1340
sg1539
g1685
sg336
g1386
sbsS'cerrno'
p3467
g310
(g1534
g312
Ntp3468
Rp3469
(dp3470
g1538
g1546
sg1539
g1547
sg336
S'c:/marmalade/7.4/s3e/h/std/c++/cerrno'
p3471
sbsS'IwSoundManager.cpp'
p3472
g310
(g1534
g312
Ntp3473
Rp3474
(dp3475
g1538
g1093
sg1539
g1591
sg336
g1098
sbsS'soundengine.mkf'
p3476
g310
(g1534
g312
Ntp3477
Rp3478
(dp3479
g1538
g1110
sg1539
g1591
sg336
g1108
sbsS'resource.h'
p3480
g310
(g1534
g312
Ntp3481
Rp3482
(dp3483
g1538
g1546
sg1539
g1703
sg336
S'c:/marmalade/7.4/s3e/h/std/sys/resource.h'
p3484
sbsS'clocale'
p3485
g310
(g1534
g312
Ntp3486
Rp3487
(dp3488
g1538
g1546
sg1539
g1547
sg336
S'c:/marmalade/7.4/s3e/h/std/c++/clocale'
p3489
sbsS'pvrtextool.mkf'
p3490
g310
(g1534
g312
Ntp3491
Rp3492
(dp3493
g1538
g1173
sg1539
g2173
sg336
g1171
sbsS'csetjmp'
p3494
g310
(g1534
g312
Ntp3495
Rp3496
(dp3497
g1538
g1546
sg1539
g1547
sg336
S'c:/marmalade/7.4/s3e/h/std/c++/csetjmp'
p3498
sbsS'netdb.h'
p3499
g310
(g1534
g312
Ntp3500
Rp3501
(dp3502
g1538
g1546
sg1539
g1568
sg336
S'c:/marmalade/7.4/s3e/h/std/netdb.h'
p3503
sbsS's3eAndroidJNI.h'
p3504
g310
(g1534
g312
Ntp3505
Rp3506
(dp3507
g1538
g1546
sg1539
g1772
sg336
S'c:/marmalade/7.4/s3e/h/ext/s3eAndroidJNI.h'
p3508
sbsS'stdexcept'
p3509
g310
(g1534
g312
Ntp3510
Rp3511
(dp3512
g1538
g1546
sg1539
g1547
sg336
S'c:/marmalade/7.4/s3e/h/std/c++/stdexcept'
p3513
sbsS'math.h'
p3514
g310
(g1534
g312
Ntp3515
Rp3516
(dp3517
g1538
g1546
sg1539
g1568
sg336
S'c:/marmalade/7.4/s3e/h/std/math.h'
p3518
sbsS'stdbool.h'
p3519
g310
(g1534
g312
Ntp3520
Rp3521
(dp3522
g1538
g1546
sg1539
g1568
sg336
S'c:/marmalade/7.4/s3e/h/std/stdbool.h'
p3523
sbsS'uio.h'
p3524
g310
(g1534
g312
Ntp3525
Rp3526
(dp3527
g1538
g1546
sg1539
g1703
sg336
S'c:/marmalade/7.4/s3e/h/std/sys/uio.h'
p3528
sbsS'IwUncopyable.h'
p3529
g310
(g1534
g312
Ntp3530
Rp3531
(dp3532
g1538
g1404
sg1539
g1575
sg336
g1455
sbssS'juice_build_type'
p3533
g4
sS'tests'
p3534
(lp3535
sS'project_name'
p3536
g318
sS'root_file'
p3537
g122
sS'current_root'
p3538
S'e:/Documents/Michiel/Programmeren/Marmalade/MVSStage3'
p3539
sS'dependencies'
p3540
(lp3541
sS'include_paths'
p3542
(lp3543
S'e:/Documents/Michiel/Programmeren/Marmalade/MVSStage3/include'
p3544
aS'c:/marmalade/7.4/modules/iw2d/h'
p3545
aS'c:/marmalade/7.4/modules/iwgx/h'
p3546
aS'c:/marmalade/7.4/modules/iwgl/h'
p3547
aS'c:/marmalade/7.4/modules/iwutil/h'
p3548
aS'c:/marmalade/7.4/modules/third_party/libjpeg/h'
p3549
aS'c:/marmalade/7.4/modules/third_party/zlib/h'
p3550
aS'c:/marmalade/7.4/modules/third_party/libpng/h'
p3551
aS'c:/marmalade/7.4/modules/iwgeom/h'
p3552
aS'c:/marmalade/7.4/modules/iwresmanager/h'
p3553
aS'c:/marmalade/7.4/extensions/pvrtextool/h'
p3554
aS'c:/marmalade/7.4/modules/iwgxfont/h'
p3555
aS'c:/marmalade/7.4/modules/third_party/tiniconv/source'
p3556
aS'c:/marmalade/7.4/modules/iw2dscenegraph/h'
p3557
aS'c:/marmalade/7.4/modules/iw2dscenegraphcore/h'
p3558
aS'c:/marmalade/7.4/examples/gametutorial/cpp/modules/soundengine/h'
p3559
aS'c:/marmalade/7.4/examples/gametutorial/cpp/modules/soundengine/source'
p3560
aS'c:/marmalade/7.4/s3e/h'
p3561
aS'c:/marmalade/7.4/s3e/h/ext'
p3562
aS'c:/marmalade/7.4/s3e/h/std'
p3563
aS'c:/marmalade/7.4/s3e/h/std/c++'
p3564
aS'c:/marmalade/7.4/s3e/h/ext_legacy'
p3565
aS'c:/marmalade/7.4/s3e/h/legacy'
p3566
asS'weak_frameworks'
p3567
(lp3568
sS'extprojects'
p3569
(dp3570
sg574
(dp3571
g568
(lp3572
(S'e:/Documents/Michiel/Programmeren/Marmalade/MVSStage3/data/audio'
p3573
S'audio'
p3574
I0
tp3575
a(S'e:/Documents/Michiel/Programmeren/Marmalade/MVSStage3/data/textures'
p3576
S'textures'
p3577
I0
tp3578
a(S'e:/Documents/Michiel/Programmeren/Marmalade/MVSStage3/data-ram/data-gles1,e:/Documents/Michiel/Programmeren/Marmalade/MVSStage3/data'
p3579
S'.'
p3580
I0
tp3581
assS'macro_types'
p3582
(dp3583
g509
I1
sg510
I0
sg511
I0
sg512
I0
sg514
I0
sg515
I0
sg516
I0
sg517
I0
sg518
I0
sg520
I0
sg521
I0
sg522
I0
sg523
I0
sg524
I0
sg526
I0
sg528
I0
sg529
I0
sg530
I0
sg531
I0
sg532
I0
sg533
I1
sg534
I0
sg535
I0
sg536
I0
sg537
I0
sg538
I01
sg539
I1
sg540
I0
sg541
I0
sg542
I0
sg543
I0
sg544
I0
sg545
I0
sg546
I0
ssS'commands'
p3584
(lp3585
sg576
(g1025
S'VC12X'
p3586
S'X86ARM'
p3587
tp3588
sS'build_libs'
p3589
(dp3590
sg578
g0
sS'frameworks'
p3591
(lp3592
sS'environ'
p3593
(dp3594
sS'target_name_debug'
p3595
g318
sS'builders'
p3596
(dp3597
g568
(dp3598
S'.S'
p3599
(dp3600
S'rvct'
p3601
(lp3602
S'.obj'
p3603
aS'echo ARM Assembling(RVCT) ${SOURCE}...'
p3604
aS'c:/marmalade/7.4/s3e\\rvct\\bin\\armasm -o ${TARGET} ${SOURCE}'
p3605
asg432
(lp3606
g3603
aS'echo ARM Assembling(GCC) ${SOURCE}...'
p3607
aS'c:/marmalade/7.4/s3e\\gcc\\bin\\arm-none-eabi-gcc -c -o ${TARGET} ${SOURCE}'
p3608
asS'ppu'
p3609
(lp3610
S'.a'
p3611
aS'echo PPU Assembling(SNC) ${SOURCE}...'
p3612
aS'c:/marmalade/7.4/s3e\\rvct\\bin\\armasm -o ${TARGET} ${SOURCE}'
p3613
assS'.s'
p3614
g3600
sS'.vp'
p3615
(lp3616
NaS'"C:/Marmalade/7.4/s3e/python/python.exe" "c:/marmalade/7.4/modules/iwgx/tools/compile_shaders.py" ${SOURCE}'
p3617
asssS'extproject_names'
p3618
(lp3619
sbtp3620
.