((dp0
S'arm_dbg_args'
p1
S'-via:"e:\\Documents\\Michiel\\Programmeren\\Marmalade\\MVSStage3\\build_mvsstage3_vc12x\\MVSStage3_vc12x_arm_debug.via" -qemu'
p2
sS'game-icf'
p3
S''
p4
sS'dist'
p5
NsS'csproj'
p6
g4
sS'module_path_append'
p7
NsS'global_path'
p8
S'e:\\documents\\michiel\\programmeren\\marmalade'
p9
sS'system_path'
p10
S'c:\\marmalade\\7.4\\s3e\\makefile_builder'
p11
sS'android_x86_dbg_args'
p12
S'../../tools/DeployTool/DeployTool.exe --dir "e:\\Documents\\Michiel\\Programmeren\\Marmalade\\MVSStage3\\build_mvsstage3_vc12x"'
p13
sS'no-emit'
p14
NsS'arm-float-abi'
p15
g4
sS'arm_rel_rtsm_args'
p16
S'-via:"e:\\Documents\\Michiel\\Programmeren\\Marmalade\\MVSStage3\\build_mvsstage3_vc12x\\MVSStage3_vc12x_arm_release.via" -qemu'
p17
sS'amd64'
p18
NsS'line-width'
p19
I80
sS'gcc_dbg_args'
p20
S'-via:"e:\\Documents\\Michiel\\Programmeren\\Marmalade\\MVSStage3\\build_mvsstage3_vc12x\\MVSStage3_vc12x_gcc_debug.via" -qemu'
p21
sS'android-x86'
p22
NsS'x86_dbg_exe'
p23
S'c:/marmalade/7.4/s3e\\win32\\s3e_simulator_debug.exe'
p24
sS'disable-runtime-checks'
p25
NsS'release'
p26
NsS'no-make'
p27
NsS'xcode-x86-build-settings'
p28
g4
sS'optimise-size'
p29
NsS'output-name-debug'
p30
g4
sS'arm-fpu'
p31
g4
sS'proj_name'
p32
S'MVSStage3_vc12x'
p33
sS'enable-stdinc'
p34
NsS'compiler'
p35
g4
sS'execute'
p36
NsS'compile-static'
p37
NsS'msvc-project'
p38
NsS'buildenv'
p39
g4
sS'quick'
p40
NsS'module_path'
p41
(lp42
S'C:/Marmalade/7.4/examples/GameTutorial/CPP/modules'
p43
asS'use-release-std-libs'
p44
NsS'using_perforce'
p45
I00
sS'tizen-x86'
p46
NsS'mips-s3e'
p47
NsS's3e-api-lib-name'
p48
S's3e_api_iwgl'
p49
sS'ios-no-pic'
p50
NsS'shared-arm-lib'
p51
NsS'arm-cpu'
p52
g4
sS'compile-thumb'
p53
NsS'no-ide'
p54
NsS'msvc-version'
p55
S'6.0'
p56
sS'arm'
p57
NsS'builddir'
p58
g4
sS'compile-debug-as-release'
p59
I0
sS'arm-arch'
p60
g4
sS'brief'
p61
NsS'dll'
p62
NsS'buildenv-toolset'
p63
g4
sS'version'
p64
NsS'ccache'
p65
I0
sS'offline'
p66
NsS'ios-version'
p67
g4
sS'hub_data'
p68
g4
sS'fake_vc_call'
p69
NsS'jobs'
p70
I0
sS'linkflags'
p71
NsS'debug'
p72
NsS'xcode-build-order'
p73
g4
sS'gcc_rel_rtsm_args'
p74
S'-via:"e:\\Documents\\Michiel\\Programmeren\\Marmalade\\MVSStage3\\build_mvsstage3_vc12x\\MVSStage3_vc12x_gcc_release.via" -qemu'
p75
sS'done_defaults'
p76
I1
sS'path'
p77
NsS's3e-data-dir'
p78
S'e:/Documents/Michiel/Programmeren/Marmalade/MVSStage3\\data'
p79
sS'enable-exceptions'
p80
NsS'osx-dll'
p81
NsS'extension'
p82
g4
sS'no-vc6'
p83
NsS'non-interactive'
p84
NsS'win32-console'
p85
NsS'dist-format'
p86
g4
sS's3e-force-arch'
p87
NsS'dump_defines'
p88
NsS'use_prebuilt'
p89
NsS'gcc-version'
p90
g4
sS'x86_dbg_args'
p91
S'-via:"e:\\Documents\\Michiel\\Programmeren\\Marmalade\\MVSStage3\\build_mvsstage3_vc12x\\MVSStage3_vc12x_debug.via"'
p92
sS'tizen_x86_dbg_args'
p93
g13
sS'arm-debugger'
p94
g4
sS'use_temp_extension'
p95
NsS'verbose'
p96
I0
sS'log'
p97
NsS'no-strip'
p98
NsS'rebuild'
p99
NsS'win32-simulator-dll'
p100
NsS'strict'
p101
NsS'mips_dbg_args'
p102
g13
sS'enable-global-path'
p103
NsS'cflags'
p104
NsS'dist-dir'
p105
g4
sS'xcode-arm-build-settings'
p106
g4
sS'jflags'
p107
NsS'csprojSDKRefs'
p108
g4
sS'tizen_x86_rel_exe'
p109
S'c:\\marmalade\\7.4\\s3e\\makefile_builder\\tool_launcher.exe'
p110
sS'test-assets'
p111
g4
sS'distcc'
p112
NsS'external-compiler'
p113
NsS'no-distcc'
p114
NsS'preinclude'
p115
NsS'using_sdk'
p116
I01
sS'nologo'
p117
NsS'warn-level'
p118
I2
sS'mips_dbg_exe'
p119
g110
sS'mkb_in'
p120
S'e:/Documents/Michiel/Programmeren/Marmalade/MVSStage3/MVSStage3.mkb'
p121
sS'tizen_x86_dbg_exe'
p122
g110
sS'arm_dbg_exe'
p123
S'c:/marmalade/7.4/s3e\\bin\\armdebug.exe'
p124
sS'csprojDLLRef'
p125
NsS'tizen_x86_rel_args'
p126
g13
sS'android_x86_dbg_exe'
p127
g110
sS'test-config'
p128
g4
sS'list-targets'
p129
NsS'arm_rel_exe'
p130
g110
sS'arm_rel_args'
p131
g13
sS'makedeps'
p132
NsS'android_x86_rel_exe'
p133
g110
sS'default-buildenv'
p134
S'VC12X'
p135
sS'x86_rel_exe'
p136
g24
sS'preprocess-java'
p137
NsS'mips_rel_args'
p138
g13
sS'defines'
p139
NsS'lib'
p140
NsS'global_argv'
p141
(lp142
S'C:\\Marmalade\\7.4\\s3e\\makefile_builder\\mkb.py'
p143
aS'E:\\Documents\\Michiel\\Programmeren\\Marmalade\\MVSStage3\\MVSStage3.mkb'
p144
asS'make'
p145
NsS'optimise-speed'
p146
NsS'internal'
p147
NsS'rvct-version'
p148
g4
sS'deploy-only'
p149
NsS'x86'
p150
NsS'deploy'
p151
g4
sS'x86_run_exe'
p152
S'c:/marmalade/7.4/s3e\\win32\\s3e_console.exe'
p153
sS'x86_rel_args'
p154
S'-via:"e:\\Documents\\Michiel\\Programmeren\\Marmalade\\MVSStage3\\build_mvsstage3_vc12x\\MVSStage3_vc12x_release.via"'
p155
sS'gcc_rel_args'
p156
g13
sS'mips'
p157
NsS'xcode-build-settings'
p158
g4
sS'incredibuild'
p159
NsS'strict-compile'
p160
NsS'use-auto-subdirs'
p161
NsS'mips_rel_exe'
p162
g110
sS'android_x86_rel_args'
p163
g13
sS'app-icf'
p164
g4
sS'deployargs'
p165
NsS'iosnativedebug'
p166
NsS'mkf_in'
p167
(lp168
S'c:\\marmalade\\7.4\\modules\\iw2d\\iw2d.mkf'
p169
aS'c:\\marmalade\\7.4\\modules\\iwgx\\iwgx.mkf'
p170
aS'c:\\marmalade\\7.4\\modules\\iwgl\\iwgl.mkf'
p171
aS'c:\\marmalade\\7.4\\modules\\iwutil\\iwutil.mkf'
p172
aS'c:\\marmalade\\7.4\\modules\\third_party\\libjpeg\\libjpeg.mkf'
p173
aS'c:\\marmalade\\7.4\\modules\\third_party\\libpng\\libpng.mkf'
p174
aS'c:\\marmalade\\7.4\\modules\\third_party\\zlib\\zlib.mkf'
p175
aS'c:\\marmalade\\7.4\\modules\\iwgeom\\iwgeom.mkf'
p176
aS'c:\\marmalade\\7.4\\modules\\iwresmanager\\iwresmanager.mkf'
p177
aS'c:\\marmalade\\7.4\\extensions\\pvrtextool\\pvrtextool.mkf'
p178
aS'c:\\marmalade\\7.4\\modules\\iwgxfont\\iwgxfont.mkf'
p179
aS'c:\\marmalade\\7.4\\modules\\third_party\\tiniconv\\tiniconv.mkf'
p180
aS'c:\\marmalade\\7.4\\modules\\iw2dscenegraph\\iw2dscenegraph.mkf'
p181
aS'c:\\marmalade\\7.4\\modules\\iw2dscenegraphcore\\iw2dscenegraphcore.mkf'
p182
aS'c:\\marmalade\\7.4\\examples\\gametutorial\\cpp\\modules\\soundengine\\soundengine.mkf'
p183
asS'strict-mkb'
p184
NsS'executeargs'
p185
NsS'clean'
p186
NsS'no-asm'
p187
NsS'output-name'
p188
g4
sS'no-modules'
p189
NsS'find_define'
p190
g4
s(dp191
S'c:\\marmalade\\7.4\\s3e\\makefile_builder\\plugins\\Emitter.pyc'
p192
F1411758008.0
sS'c:\\marmalade\\7.4\\s3e\\makefile_builder\\templates\\ws8_ext_sln.pyc'
p193
F1411758010.0
sS'c:\\marmalade\\7.4\\s3e\\makefile_builder\\templates\\MainWindow.xib'
p194
F1411756764.0
sS'c:\\marmalade\\7.4\\s3e\\makefile_builder\\templates\\template.suo'
p195
F1411756764.0
sS'c:\\marmalade\\7.4\\s3e\\makefile_builder\\plugins\\xcode4_schememanagement.py'
p196
F1411756764.0
sS'c:\\marmalade\\7.4\\s3e\\makefile_builder\\templates\\ws81_sln.pyc'
p197
F1411758010.0
sS'c:\\marmalade\\7.4\\s3e\\makefile_builder\\templates\\win8_ext_csproj.pyc'
p198
F1411758010.0
sS'c:\\marmalade\\7.4\\s3e\\makefile_builder\\mkb_option.pyc'
p199
F1411758008.0
sS'c:\\marmalade\\7.4\\s3e\\makefile_builder\\plugins\\s3e_xcode.py'
p200
F1411756764.0
sS'c:\\marmalade\\7.4\\s3e\\makefile_builder\\plugins\\s3e_scons.pyc'
p201
F1411758008.0
sS'c:\\marmalade\\7.4\\s3e\\makefile_builder\\templates\\win8_vcxproj.pyc'
p202
F1411758010.0
sS'c:\\marmalade\\7.4\\s3e\\makefile_builder\\plugins\\null.pyc'
p203
F1411758008.0
sS'c:\\marmalade\\7.4\\s3e\\makefile_builder\\templates\\vc8_user.pyc'
p204
F1411758010.0
sS'c:\\marmalade\\7.4\\s3e\\makefile_builder\\templates\\wp81_ext_sln.pyc'
p205
F1411758010.0
sS'c:\\marmalade\\7.4\\s3e\\makefile_builder\\templates\\scons.pyc'
p206
F1411758010.0
sS'c:\\marmalade\\7.4\\s3e\\makefile_builder\\templates\\wp8_ext_csproj.pyc'
p207
F1411758010.0
sS'c:\\marmalade\\7.4\\s3e\\makefile_builder\\templates\\xcode_pbxuser.py'
p208
F1411756766.0
sS'c:\\marmalade\\7.4\\s3e\\makefile_builder\\plugins\\s3e_qmake.py'
p209
F1411756764.0
sS'c:\\marmalade\\7.4\\s3e\\makefile_builder\\plugins\\iphone.pyc'
p210
F1411758010.0
sS'c:\\marmalade\\7.4\\s3e\\makefile_builder\\templates\\ws81_ext_csproj.pyc'
p211
F1411758010.0
sS'c:\\marmalade\\7.4\\s3e\\makefile_builder\\templates\\vc6_opt.pyc'
p212
F1411758010.0
sS'c:\\marmalade\\7.4\\s3e\\makefile_builder\\plugins\\s3e_win8.pyc'
p213
F1411758010.0
sS'c:\\marmalade\\7.4\\s3e\\makefile_builder\\mkb_main.pyc'
p214
F1411758008.0
sS'c:\\marmalade\\7.4\\s3e\\makefile_builder\\templates\\wp8_csproj.pyc'
p215
F1411758010.0
sS'c:\\marmalade\\7.4\\s3e\\makefile_builder\\templates\\win32_vcproj.pyc'
p216
F1411758010.0
sS'c:\\marmalade\\7.4\\s3e\\makefile_builder\\templates\\win8_sln.pyc'
p217
F1411758010.0
sS'c:\\marmalade\\7.4\\s3e\\makefile_builder\\mkb_launcher.exe'
p218
F1411757118.0
sS'c:\\marmalade\\7.4\\s3e\\makefile_builder\\plugins\\osx_xcode.pyc'
p219
F1411758010.0
sS'c:\\marmalade\\7.4\\s3e\\makefile_builder\\plugins'
p220
F1411803920.271899
sS'c:\\marmalade\\7.4\\s3e\\makefile_builder\\templates\\wp8_csproj_user.pyc'
p221
F1411758010.0
sS'c:\\marmalade\\7.4\\s3e\\makefile_builder\\plugins\\win32_vc6.pyc'
p222
F1411758010.0
sS'c:\\marmalade\\7.4\\s3e\\makefile_builder\\plugins\\s3e_vc6.pyc'
p223
F1411758008.0
sS'c:\\marmalade\\7.4\\s3e\\makefile_builder\\templates\\vc10_user.pyc'
p224
F1411758010.0
sS'c:\\marmalade\\7.4\\s3e\\makefile_builder\\docs\\deprecated.defines.txt'
p225
F1411756764.0
sS'c:\\marmalade\\7.4\\s3e\\makefile_builder\\templates\\wp81_csproj_user.pyc'
p226
F1411758010.0
sS'c:\\marmalade\\7.4\\s3e\\makefile_builder\\templates\\ws81_ext_sln.pyc'
p227
F1411758010.0
sS'c:\\marmalade\\7.4\\s3e\\makefile_builder\\templates\\make.py'
p228
F1411756764.0
sS'c:\\marmalade\\7.4\\s3e\\makefile_builder\\plugins\\wp81_wp81.pyc'
p229
F1411758010.0
sS'c:\\marmalade\\7.4\\s3e\\makefile_builder\\plugins\\s3e_qmake.pyc'
p230
F1411803920.1701696
sS'c:\\marmalade\\7.4\\s3e\\makefile_builder\\templates\\mips_linker_script'
p231
F1411756764.0
sS'c:\\marmalade\\7.4\\s3e\\makefile_builder\\plugins\\deploy.pyc'
p232
F1411758008.0
sS'c:\\marmalade\\7.4\\s3e\\makefile_builder\\plugins\\ws81_ws81.pyc'
p233
F1411758010.0
sS'c:\\marmalade\\7.4\\s3e\\makefile_builder\\mkb.py'
p234
F1411756764.0
sS'c:\\marmalade\\7.4\\s3e\\makefile_builder\\docs\\options.txt'
p235
F1411756764.0
sS'c:\\marmalade\\7.4\\s3e\\makefile_builder\\mkb_parser.pyc'
p236
F1411758008.0
sS'c:\\marmalade\\7.4\\s3e\\makefile_builder\\templates\\qmake_user.py'
p237
F1411756764.0
sS'c:\\marmalade\\7.4\\s3e\\makefile_builder\\docs\\mkb.defines.txt'
p238
F1411756764.0
sS'c:\\marmalade\\7.4\\s3e\\makefile_builder\\deployment.pyc'
p239
F1411758008.0
sS'c:\\marmalade\\7.4\\s3e\\makefile_builder\\plugins\\wp8_wp8.pyc'
p240
F1411758010.0
sS'c:\\marmalade\\7.4\\s3e\\makefile_builder\\plugins\\linux_scons.pyc'
p241
F1411758010.0
sS'c:\\marmalade\\7.4\\s3e\\makefile_builder\\plugins\\s3e_web.pyc'
p242
F1411758008.0
sS'c:\\marmalade\\7.4\\s3e\\makefile_builder\\plugins\\S3EEmitter.pyc'
p243
F1411758008.0
sS'c:\\marmalade\\7.4\\s3e\\makefile_builder\\plugins\\Win8Emitter.pyc'
p244
F1411758010.0
sS'c:\\marmalade\\7.4\\s3e\\makefile_builder\\templates\\xcode4_arm.xcscheme'
p245
F1411756766.0
sS'c:\\marmalade\\7.4\\s3e\\makefile_builder\\plugins\\vc6_utils.pyc'
p246
F1411758010.0
sS'c:\\marmalade\\7.4\\s3e\\makefile_builder\\templates\\wp8_vcxproj.pyc'
p247
F1411758010.0
sS'c:\\marmalade\\7.4\\s3e\\makefile_builder\\templates\\xcode4.xcscheme'
p248
F1411756766.0
sS'c:\\marmalade\\7.4\\s3e\\makefile_builder\\plugins\\MakeEmitter.pyc'
p249
F1411758008.0
sS'c:\\marmalade\\7.4\\s3e\\makefile_builder\\plugins\\java.pyc'
p250
F1411758010.0
sS'c:\\marmalade\\7.4\\s3e\\makefile_builder\\plugins\\XcodeEmitter.pyc'
p251
F1411803919.9116752
sS'c:\\marmalade\\7.4\\s3e\\makefile_builder\\plugins\\XcodeEmitter.py'
p252
F1411756764.0
sS'c:\\marmalade\\7.4\\s3e\\makefile_builder\\mkb_globals.pyc'
p253
F1411758008.0
sS'c:\\marmalade\\7.4\\s3e\\makefile_builder\\tool_launcher.exe'
p254
F1411757118.0
sS'c:\\marmalade\\7.4\\s3e\\makefile_builder\\mkb_util.pyc'
p255
F1411758008.0
sS'c:\\marmalade\\7.4\\s3e\\makefile_builder\\plugins\\xcode4_schememanagement.pyc'
p256
F1411803919.9427035
sS'c:\\marmalade\\7.4\\s3e\\makefile_builder\\templates\\ws8_sln.pyc'
p257
F1411758010.0
sS'c:\\marmalade\\7.4\\s3e\\makefile_builder\\templates\\win32_sln.pyc'
p258
F1411758010.0
sS'c:\\marmalade\\7.4\\s3e\\makefile_builder\\templates\\wp81_ext_csproj.pyc'
p259
F1411758010.0
sS'c:\\marmalade\\7.4\\s3e\\makefile_builder\\plugins\\s3e_wp81.pyc'
p260
F1411758010.0
sS'c:\\marmalade\\7.4\\s3e\\makefile_builder\\plugins\\s3e_wp8.pyc'
p261
F1411758010.0
sS'c:\\marmalade\\7.4\\s3e\\makefile_builder\\templates\\qmake.py'
p262
F1411756764.0
sS'c:\\marmalade\\7.4\\s3e\\makefile_builder\\templates\\gdb_start.txt'
p263
F1411756764.0
sS'c:\\marmalade\\7.4\\s3e\\makefile_builder\\templates'
p264
F1411803678.9534326
sS'c:\\marmalade\\7.4\\s3e\\makefile_builder\\templates\\ws8_ext_csproj.pyc'
p265
F1411758010.0
sS'c:\\marmalade\\7.4\\s3e\\makefile_builder\\templates\\win8_csproj_user.pyc'
p266
F1411758010.0
sS'c:\\marmalade\\7.4\\s3e\\makefile_builder\\templates\\vc7_suo.pyc'
p267
F1411758010.0
sS'c:\\marmalade\\7.4\\s3e\\makefile_builder\\plugins\\VisualStudioEmitter.pyc'
p268
F1411758010.0
sS'c:\\marmalade\\7.4\\s3e\\makefile_builder\\templates\\linker_script'
p269
F1411756764.0
sS'c:\\marmalade\\7.4\\s3e\\makefile_builder\\docs\\deprecated.options.txt'
p270
F1411756764.0
sS'c:\\marmalade\\7.4\\s3e\\makefile_builder\\plugins\\s3e_xcode.pyc'
p271
F1411803920.2749066
sS'c:\\marmalade\\7.4\\s3e\\makefile_builder\\plugins\\s3e_ws8.pyc'
p272
F1411758010.0
sS'c:\\marmalade\\7.4\\s3e\\makefile_builder\\templates\\xcode4_DeployTool.xcscheme'
p273
F1411756766.0
sS'c:\\marmalade\\7.4\\s3e\\makefile_builder\\templates\\ws8_csproj_user.pyc'
p274
F1411758010.0
sS'c:\\marmalade\\7.4\\s3e\\makefile_builder\\plugins\\osx_scons.pyc'
p275
F1411758010.0
sS'c:\\marmalade\\7.4\\s3e\\makefile_builder\\templates\\ws81_csproj.pyc'
p276
F1411758010.0
sS'c:\\marmalade\\7.4\\s3e\\makefile_builder\\templates\\wp8_sln.pyc'
p277
F1411758010.0
sS'c:\\marmalade\\7.4\\s3e\\makefile_builder\\docs'
p278
F1411803679.0535107
sS'c:\\marmalade\\7.4\\s3e\\makefile_builder\\plugins\\ws8_ws8.pyc'
p279
F1411758010.0
sS'c:\\marmalade\\7.4\\s3e\\makefile_builder\\docs\\deployment_options.txt'
p280
F1411756764.0
sS'c:\\marmalade\\7.4\\s3e\\makefile_builder\\templates\\win32_vcxproj_filters.pyc'
p281
F1411758010.0
sS'c:\\marmalade\\7.4\\s3e\\makefile_builder\\templates\\win32_dsw.pyc'
p282
F1411758010.0
sS'c:\\marmalade\\7.4\\s3e\\makefile_builder\\plugins\\s3e_ws81.pyc'
p283
F1411758010.0
sS'c:\\marmalade\\7.4\\s3e\\makefile_builder\\plugins\\SConsEmitter.pyc'
p284
F1411758010.0
sS'c:\\marmalade\\7.4\\s3e\\makefile_builder\\templates\\wp81_vcxproj.pyc'
p285
F1411758010.0
sS'c:\\marmalade\\7.4\\s3e\\makefile_builder\\plugins\\win8_utils.pyc'
p286
F1411758010.0
sS'c:\\marmalade\\7.4\\s3e\\makefile_builder\\templates\\template.opt'
p287
F1411756764.0
sS'c:\\marmalade\\7.4\\s3e\\makefile_builder\\plugins\\vc7_utils.pyc'
p288
F1411758010.0
sS'c:\\marmalade\\7.4\\s3e\\makefile_builder\\templates\\win32_dsp.pyc'
p289
F1411758010.0
sS'c:\\marmalade\\7.4\\s3e\\makefile_builder\\plugins\\s3e_make.pyc'
p290
F1411758008.0
sS'c:\\marmalade\\7.4\\s3e\\makefile_builder\\templates\\rvct_linker_script'
p291
F1411756764.0
sS'c:\\marmalade\\7.4\\s3e\\makefile_builder\\templates\\win8_csproj.pyc'
p292
F1411758010.0
sS'c:\\marmalade\\7.4\\s3e\\makefile_builder\\templates\\xcode.py'
p293
F1411756766.0
sS'c:\\marmalade\\7.4\\s3e\\makefile_builder\\templates\\ws8_vcxproj.pyc'
p294
F1411758010.0
sS'c:\\marmalade\\7.4\\s3e\\makefile_builder\\templates\\wp81_csproj.pyc'
p295
F1411758010.0
sS'c:\\marmalade\\7.4\\s3e\\makefile_builder\\mkb_upstream.pyc'
p296
F1411758008.0
sS'c:\\marmalade\\7.4\\s3e\\makefile_builder\\templates\\win32_vcxproj.pyc'
p297
F1411758010.0
sS'c:\\marmalade\\7.4\\s3e\\makefile_builder\\templates\\ws8_csproj.pyc'
p298
F1411758010.0
sS'c:\\marmalade\\7.4\\s3e\\makefile_builder\\docs\\parse_options.pyc'
p299
F1411758012.0
sS'c:\\marmalade\\7.4\\s3e\\makefile_builder\\templates\\Info.plist'
p300
F1411756764.0
sS'c:\\marmalade\\7.4\\s3e\\makefile_builder\\templates\\wp81_sln.pyc'
p301
F1411758010.0
sS'c:\\marmalade\\7.4\\s3e\\makefile_builder\\templates\\ws81_csproj_user.pyc'
p302
F1411758010.0
sS'c:\\marmalade\\7.4\\s3e\\makefile_builder\\templates\\ws81_vcxproj.pyc'
p303
F1411758010.0
sccopy_reg
_reconstructor
p304
(cmkb_main
MkbFile
p305
c__builtin__
object
p306
Ntp307
Rp308
(dp309
g5
(lp310
sS'target_name'
p311
S'MVSStage3'
p312
sS'current_file'
p313
g121
sS'package_path'
p314
(lp315
sS'post_build'
p316
(lp317
(lp318
S'c:/marmalade/7.4/s3e/tools'
p319
aS'C:\\Marmalade\\7.4\\s3e\\python\\python.exe .\\process_map.py "$(TargetPath)"'
p320
aa(S'c:\\marmalade\\7.4\\s3e\\bin'
p321
S'"s3e_plink" -l "$(TargetPath)" '
p322
g150
tp323
asS'librarys'
p324
(lp325
g304
(cmkb_main
Library
p326
g306
Ntp327
Rp328
(dp329
S'name'
p330
S'vc6_compat.lib'
p331
sS'expand_name'
p332
I00
sS'include_spec_rvct_objs'
p333
(lp334
sS'include_all_objs'
p335
I00
sS'share_arm'
p336
I00
sS'arch'
p337
S'x86'
p338
sS'nodebug'
p339
I00
sg35
Nsbag304
(g326
g306
Ntp340
Rp341
(dp342
g330
S'iw2d'
p343
sg332
I01
sg333
(lp344
sg335
Nsg336
Nsg337
Nsg339
I00
sg35
Nsbag304
(g326
g306
Ntp345
Rp346
(dp347
g330
S'ATI_Compress_MT_VC7.lib'
p348
sg332
I00
sg333
g344
sg335
Nsg336
Nsg337
S'x86'
p349
sg339
I00
sg35
Nsbag304
(g326
g306
Ntp350
Rp351
(dp352
g330
S'iwgx'
p353
sg332
I01
sg333
g344
sg335
Nsg336
Nsg337
Nsg339
I00
sg35
Nsbag304
(g326
g306
Ntp354
Rp355
(dp356
g330
S'iwgl'
p357
sg332
I01
sg333
g344
sg335
Nsg336
Nsg337
Nsg339
I00
sg35
Nsbag304
(g326
g306
Ntp358
Rp359
(dp360
g330
S'iwutil'
p361
sg332
I01
sg333
g344
sg335
Nsg336
Nsg337
Nsg339
I00
sg35
Nsbag304
(g326
g306
Ntp362
Rp363
(dp364
g330
S'jpeg'
p365
sg332
I01
sg333
g344
sg335
Nsg336
Nsg337
Nsg339
I00
sg35
Nsbag304
(g326
g306
Ntp366
Rp367
(dp368
g330
S'z'
p369
sg332
I01
sg333
g344
sg335
Nsg336
Nsg337
Nsg339
I00
sg35
Nsbag304
(g326
g306
Ntp370
Rp371
(dp372
g330
S'png'
p373
sg332
I01
sg333
g344
sg335
Nsg336
Nsg337
Nsg339
I00
sg35
Nsbag304
(g326
g306
Ntp374
Rp375
(dp376
g330
S'iwgeom'
p377
sg332
I01
sg333
g344
sg335
Nsg336
Nsg337
Nsg339
I00
sg35
Nsbag304
(g326
g306
Ntp378
Rp379
(dp380
g330
S'iwresmanager'
p381
sg332
I01
sg333
g344
sg335
Nsg336
Nsg337
Nsg339
I00
sg35
Nsbag304
(g326
g306
Ntp382
Rp383
(dp384
g330
S'iwgxfont'
p385
sg332
I01
sg333
g344
sg335
Nsg336
Nsg337
Nsg339
I00
sg35
Nsbag304
(g326
g306
Ntp386
Rp387
(dp388
g330
S'tiniconv'
p389
sg332
I01
sg333
g344
sg335
Nsg336
Nsg337
Nsg339
I00
sg35
Nsbag304
(g326
g306
Ntp390
Rp391
(dp392
g330
S's3e_cpp'
p393
sg332
I01
sg333
g334
sg335
I00
sg336
I00
sg337
Nsg339
I00
sg35
Nsbag304
(g326
g306
Ntp394
Rp395
(dp396
g330
S's3e'
p397
sg332
I01
sg333
(lp398
S'iwcrt.o'
p399
asg335
I00
sg336
I00
sg337
Nsg339
I00
sg35
Nsbag304
(g326
g306
Ntp400
Rp401
(dp402
g330
g49
sg332
I01
sg333
g334
sg335
I00
sg336
I00
sg337
S'x86'
p403
sg339
I01
sg35
Nsbag304
(g326
g306
Ntp404
Rp405
(dp406
g330
g49
sg332
I01
sg333
g334
sg335
I00
sg336
I00
sg337
S'!x86'
p407
sg339
I01
sg35
Nsbag304
(g326
g306
Ntp408
Rp409
(dp410
g330
S'stdc++'
p411
sg332
I00
sg333
g334
sg335
I00
sg336
I00
sg337
S'mips'
p412
sg339
I00
sg35
Nsbag304
(g326
g306
Ntp413
Rp414
(dp415
g330
S'c'
p416
sg332
I00
sg333
g334
sg335
I00
sg336
I00
sg337
S'mips'
p417
sg339
I00
sg35
Nsbag304
(g326
g306
Ntp418
Rp419
(dp420
g330
S'm'
p421
sg332
I00
sg333
g334
sg335
I00
sg336
I00
sg337
S'mips'
p422
sg339
I00
sg35
Nsbag304
(g326
g306
Ntp423
Rp424
(dp425
g330
S'gcc'
p426
sg332
I00
sg333
g334
sg335
I00
sg336
I00
sg337
S'mips'
p427
sg339
I00
sg35
Nsbag304
(g326
g306
Ntp428
Rp429
(dp430
g330
S'stdc++'
p431
sg332
I00
sg333
g334
sg335
I00
sg336
I00
sg337
S'gcc_x86_android'
p432
sg339
I00
sg35
Nsbag304
(g326
g306
Ntp433
Rp434
(dp435
g330
g416
sg332
I00
sg333
g334
sg335
I00
sg336
I00
sg337
S'gcc_x86_android'
p436
sg339
I00
sg35
Nsbag304
(g326
g306
Ntp437
Rp438
(dp439
g330
g421
sg332
I00
sg333
g334
sg335
I00
sg336
I00
sg337
S'gcc_x86_android'
p440
sg339
I00
sg35
Nsbag304
(g326
g306
Ntp441
Rp442
(dp443
g330
g426
sg332
I00
sg333
g334
sg335
I00
sg336
I00
sg337
S'gcc_x86_android'
p444
sg339
I00
sg35
NsbasS'library_paths'
p445
(lp446
g304
(cmkb_main
LibraryPath
p447
g306
Ntp448
Rp449
(dp450
S'expand_path'
p451
I01
sg330
S'c:/marmalade/7.4/modules/iw2d'
p452
sbag304
(g447
g306
Ntp453
Rp454
(dp455
g451
I00
sg330
S'c:/marmalade/7.4/modules/iwgx/atitools'
p456
sbag304
(g447
g306
Ntp457
Rp458
(dp459
g451
I01
sg330
S'c:/marmalade/7.4/modules/iwgx'
p460
sbag304
(g447
g306
Ntp461
Rp462
(dp463
g451
I01
sg330
S'c:/marmalade/7.4/modules/iwgl'
p464
sbag304
(g447
g306
Ntp465
Rp466
(dp467
g451
I01
sg330
S'c:/marmalade/7.4/modules/iwutil'
p468
sbag304
(g447
g306
Ntp469
Rp470
(dp471
g451
I01
sg330
S'c:/marmalade/7.4/modules/third_party/libjpeg'
p472
sbag304
(g447
g306
Ntp473
Rp474
(dp475
g451
I01
sg330
S'c:/marmalade/7.4/modules/third_party/zlib'
p476
sbag304
(g447
g306
Ntp477
Rp478
(dp479
g451
I01
sg330
S'c:/marmalade/7.4/modules/third_party/libpng'
p480
sbag304
(g447
g306
Ntp481
Rp482
(dp483
g451
I01
sg330
S'c:/marmalade/7.4/modules/iwgeom'
p484
sbag304
(g447
g306
Ntp485
Rp486
(dp487
g451
I01
sg330
S'c:/marmalade/7.4/modules/iwresmanager'
p488
sbag304
(g447
g306
Ntp489
Rp490
(dp491
g451
I01
sg330
S'c:/marmalade/7.4/modules/iwgxfont'
p492
sbag304
(g447
g306
Ntp493
Rp494
(dp495
g451
I01
sg330
S'c:/marmalade/7.4/modules/third_party/tiniconv'
p496
sbag304
(g447
g306
Ntp497
Rp498
(dp499
g451
I01
sg330
S'c:/marmalade/7.4/s3e'
p500
sbasS'macros'
p501
(dp502
S'IW_USE_CALLSTACK'
p503
NsS'IW_MKF_IWGEOM'
p504
NsS'I3D_PLATFORM_S3E'
p505
NsS'IW_TRACE_CHANNEL_PVRTEXTOOL_VERBOSE'
p506
S'2'
p507
sS'IW_MKF_LIBJPEG'
p508
NsS'I3D_OS_S3E'
p509
NsS'IW_MKF_PVRTEXTOOL'
p510
NsS'IW_MKF_TINICONV'
p511
NsS'IW_APP_VERSION'
p512
S'"1.0"'
p513
sS'__S3E__'
p514
NsS'IW_MKF_IWRESMANAGER'
p515
NsS'IW_MKF_IWUTIL'
p516
NsS'IW_PLATFORM_S3E'
p517
NsS'IW_ASSERTION_CHANNEL_2D'
p518
S'1'
p519
sS'IW_APP_NAME'
p520
S'"MVSStage3"'
p521
sS'IW_MKF_IWGXFONT'
p522
NsS'IW_MKF_ZLIB'
p523
NsS'IW_MKF_IWGX'
p524
NsS'IW_MKF_IW2DSCENEGRAPH'
p525
NsS'IW_MKF_SOUNDENGINE'
p526
NsS'IW_USE_ASSERTIONS'
p527
NsS'_CRT_SECURE_NO_DEPRECATE'
p528
NsS'IW_MKF_IWGL'
p529
NsS'IW_MKF_LIBPNG'
p530
NsS'IW_TRACE_CHANNEL_IW_2DSCENEGRAPH'
p531
g519
sS'IW_DEBUG'
p532
NsS'IW_USE_TRACING'
p533
NsS'IW_ASSERTION_CHANNEL_IW_2DSCENEGRAPH'
p534
g519
sS'IW_TRACE_CHANNEL_PVRTEXTOOL'
p535
g519
sS'IW_SDK'
p536
NsS'S3E_INCLUDE_LEGACY'
p537
NsS'IW_MKF_IW2DSCENEGRAPHCORE'
p538
NsS'IW_MKF_IW2D'
p539
NsS'IW_ASSERTION_CHANNEL_PVRTEXTOOL'
p540
g519
ssS'done_warnings'
p541
(dp542
sS'subprojects'
p543
(dp544
g182
S'../iw2dscenegraphcore'
p545
sg175
S'zlib'
p546
sg174
S'libpng'
p547
sg173
S'libjpeg'
p548
sg180
S'tiniconv'
p549
sg170
S'iwgx'
p550
sg176
S'iwgeom'
p551
sg172
S'iwutil'
p552
sg181
S'iw2dscenegraph'
p553
sg169
S'iw2d'
p554
sg179
S'iwgxfont'
p555
sg177
S'iwresmanager'
p556
sg183
S'soundengine'
p557
sg171
S'iwgl'
p558
sg178
S'PVRTexTool'
p559
ssS'deployments'
p560
(dp561
S'Default'
p562
g304
(cdeployment
Deployment
p563
g306
Ntp564
Rp565
(dp566
S'got_version'
p567
I0
sS'assets'
p568
g562
sS'mkb'
p569
g308
sS'target'
p570
Nsg337
(lp571
sS'options'
p572
(dp573
S'iphone-link-lib'
p574
(lp575
sS'game-icf'
p576
NsS'android-tm'
p577
NsS'winmobile-icon32'
p578
NsS'ws8-logo-image150x150'
p579
NsS'wp81-logo-image150x150'
p580
NsS'ws81-product-version'
p581
NsS'osx-ext-dll'
p582
(lp583
S'c:/marmalade/7.4/extensions/pvrtextool/lib/osx/libPVRTexTool.dylib'
p584
asS'iphone-provisioning-profile'
p585
NsS'ws8-splash-screen-image620x300'
p586
NsS'wp81-extra-pri'
p587
(lp588
sS'ws8-ext-capabilities'
p589
(lp590
sS'android-icon-hdpi'
p591
NsS'brew-icon-large'
p592
NsS'iphone-splash-full-orient'
p593
NsS'wp8-tile-fliptemplate-supports-large'
p594
NsS'iphone-show-status-bar'
p595
NsS'roku-requires-mkv'
p596
NsS'long-caption'
p597
NsS'android-pkgname'
p598
NsS'wp81-publisher-display-name'
p599
NsS'blackberry-permissions-read-device-identifying-information'
p600
NsS'ws81-certificate-end-date'
p601
NsS'psp-dlgcontentid'
p602
NsS'iphone-minimum-ios-version'
p603
NsS'target-folder'
p604
NsS'tizen-dist1-CA-path'
p605
NsS'symbian-icon2-format'
p606
NsS'tizen-author-key'
p607
NsS'firefoxos-icon-128X128'
p608
NsS'iphone-region'
p609
NsS'uiq3-icon3-mask'
p610
NsS'brew-encoding'
p611
NsS'android-x86'
p612
NsS'nds-initialcode'
p613
NsS'iphone-persistent-wifi'
p614
NsS'psp-snd0'
p615
NsS'roku-icon-focus-hd'
p616
NsS'winmobile-install-folder'
p617
NsS'android-external-res'
p618
(lp619
sS'ws8-product-version'
p620
NsS'brew-priviledges'
p621
NsS'iphone-icon-ipad-search'
p622
NsS'iphone-icon-ipad'
p623
NsS'roku-hidden'
p624
NsS'psp-titlename'
p625
NsS'wp81-product-version'
p626
NsS'symbian-icon1-mask'
p627
NsS'psp-parentallevel'
p628
NsS'splashscreen-use-all'
p629
NsS'wp8-author'
p630
NsS'symbian-disable-ecompxl'
p631
NsS'splashscreen-auto-onblack'
p632
NsS'win32-ext-dll'
p633
(lp634
S'c:/marmalade/7.4/extensions/pvrtextool/lib/win32/PVRTexTool.dll'
p635
asS'iphone-development-key'
p636
NsS'winmobile-icon48'
p637
NsS'android-unsigned'
p638
NsS'osx-appstore-category'
p639
NsS'version-revision'
p640
NsS'roku-icon-focus-sd'
p641
NsS'android-keystore'
p642
NsS'winmobile-png90'
p643
NsS'iphone-icon-ipad-high-res'
p644
NsS'iphone-disable-ipad'
p645
NsS'wp8-product-id'
p646
NsS'ws81-splash-screen-background'
p647
NsS'wp8-ext-capabilities'
p648
(lp649
sS'iphone-ipad-only'
p650
NsS'symbian-icon1-mask-black'
p651
NsS'iphone-nosign'
p652
NsS'iphone-bundle-localisations'
p653
NsS'winmobile-png60'
p654
NsS'blackberry-permissions-access-shared'
p655
NsS'blackberry-author'
p656
NsS'android-icon-xxxhdpi'
p657
NsS'olddeploytoolstyle'
p658
NsS'android_icon_gallery'
p659
NsS'wp81-splash-screen-background'
p660
NsS'winmobile-cab-compress'
p661
NsS'iphone-info-plist'
p662
NsS'ws81-ext-managed-dll'
p663
(lp664
sS'playbook-cskpass'
p665
NsS'ws8-distribution-pfx-password'
p666
NsS'symbian-key'
p667
NsS'app-icf'
p668
NsS'blackberry-storepass'
p669
NsS'wp8-tile-fliptemplate-back-title'
p670
NsS'brew-compress-loader'
p671
NsS'win32-pref-windowposy'
p672
NsS'win32-pref-windowposx'
p673
NsS'roku-requires-audiometadata'
p674
NsS'wp8-exclude-low-mem'
p675
NsS'iphone-icon-ipad-search-high-res'
p676
NsS'iphone-link-libdir'
p677
(lp678
sS'wp81-ext-capabilities'
p679
(lp680
sS'blackberry-permissions-read-geolocation'
p681
NsS'ws81-ext-device-capabilities'
p682
(lp683
sS'tizen-signed'
p684
NsS'android-extra-application-manifest'
p685
(lp686
sS'ws8-ext-native-dll'
p687
(lp688
sS'symbian-icon2-mask'
p689
NsS'iphone-backgroundmode-audio'
p690
NsS'webos-memory'
p691
NsS'android-keypass'
p692
NsS'name'
p693
NsS'uiq3-icon2-format'
p694
NsS'roku-splash-screen-sd'
p695
NsS'auto-derbh'
p696
NsS'roku-icon-side-sd'
p697
NsS'android-external-assets'
p698
(lp699
sS'nds-publicsavedatasize'
p700
NsS'splashscreen'
p701
NsS'brew-mif'
p702
NsS'iphone-icon-settings-high-res'
p703
NsS'android-manifest'
p704
NsS'ws81-splash-screen-image620x300'
p705
NsS'wp81-product-name'
p706
NsS's3e-compression'
p707
NsS'tizen-author-password'
p708
NsS'wp8-tile-fliptemplate-back-content'
p709
NsS'blackberry-extra-descriptor'
p710
(lp711
sS'symbian-icon1'
p712
NsS'symbian-icon2'
p713
NsS'android-extra-styles-file'
p714
NsS'wp81-publisher-id'
p715
NsS'nds-bannertitle-jp'
p716
NsS'wp81-logo-image44x44'
p717
NsS'osx-sign-for-store'
p718
NsS'symbian7-uid'
p719
NsS'wp8-tile-fliptemplate-large-back-content'
p720
NsS'wp81-phone-publisher-id'
p721
NsS'nds-bannertitle-cn'
p722
NsS'iphone-distribution-key'
p723
NsS'android-icon-gallery'
p724
NsS'blackberry-keystore'
p725
NsS'ws8-extra-res'
p726
(lp727
sS'caption'
p728
NsS'android-extra-manifest'
p729
(lp730
sS'wp81-ext-sdk-ref'
p731
(lp732
sS'android-icon-xxhdpi'
p733
NsS'version-minor'
p734
NsS'iphone-link-libdirs'
p735
(lp736
sS'iphone-icon-large'
p737
NsS'symbian-keypwd'
p738
NsS'symbian8-uid'
p739
NsS'symbian-cert-key'
p740
NsS'winmobile-ampd-part-number'
p741
NsS'arch'
p742
NsS'nds-romheadertemplate'
p743
NsS'webos-icon'
p744
NsS'wp81-ext-device-capabilities'
p745
(lp746
sS'psp-dlgprotectdocument'
p747
NsS'ws8-splash-screen-background'
p748
NsS'android-icon-mdpi'
p749
NsS'nds-icon'
p750
NsS'ws8-custom-manifest-fill'
p751
NsS'iphone-development-cert'
p752
NsS'blackberry-phone-icon'
p753
NsS'iphone-enable-4inch-retina'
p754
NsS'ws8-custom-manifest'
p755
NsS'version-major'
p756
NsS'wp8-genre-isgame'
p757
NsS'uiq3-uid'
p758
NsS'iphone-splash-retina-generate'
p759
NsS'tizen-hw-acceleration'
p760
NsS'iphone_bundle_localisations'
p761
NsS'tizen-dist1-key'
p762
NsS'wp81-custom-manifest-fill'
p763
NsS'wp8-custom-manifest'
p764
NsS'nds-bannertitle-ge'
p765
NsS'iphone-sign-for-distribution'
p766
NsS'wp8-tile-fliptemplate-medium-back-image'
p767
NsS'wp8-publisher-id'
p768
NsS'icon'
p769
NsS'wp8-exclude-wxga'
p770
NsS'wp81-identity-name'
p771
NsS'uiq3-icon2-mask'
p772
NsS'iphone-splashscreen-portrait'
p773
NsS'iphone-icon-high-res'
p774
NsS'ws81-distribution-pfx-password'
p775
NsS'playbook-author'
p776
NsS'android-icon-xhdpi'
p777
NsS'linux-ext-lib'
p778
(lp779
sS'blackberry-permissions-access-internet'
p780
NsS'wp8-exclude-720p'
p781
NsS'lgtv-use-drm'
p782
NsS'symbian-platsecflags'
p783
NsS'ws8-description'
p784
NsS'blackberry-playbook-icon'
p785
NsS'copyright'
p786
NsS'win32-gles-directory'
p787
NsS'version'
p788
NsS'ws81-logo-image150x150'
p789
NsS'osx-signing-identity-app'
p790
NsS'tizen-project-url'
p791
NsS'symbian-icon-svg'
p792
NsS'android-aliasname'
p793
NsS'psp-dlgmanual'
p794
NsS'brew-uid'
p795
NsS'symbian-locationsupport'
p796
NsS'wp81-logo-image50x50'
p797
NsS'ws8-ext-managed-dll'
p798
(lp799
sS'nds-bannertitle-it'
p800
NsS'ws81-custom-manifest-fill'
p801
NsS'ws8-ext-sdk-manifest-part'
p802
(lp803
sS'uiq3-icon1-mask'
p804
NsS'winmobile-icon16'
p805
NsS'ws8-product-name'
p806
NsS'blackberry-cskpass'
p807
NsS'winmobile-start-menu-folder'
p808
NsS'brew-clsid'
p809
NsS'roku-requires-bluetooth'
p810
NsS'ws8-ext-device-capabilities'
p811
(lp812
sS'blackberry-permissions-use-camera'
p813
NsS'ws81-extra-pri'
p814
(lp815
sS'iphone-prerendered-icon'
p816
NsS'iphone-appid'
p817
NsS'ws8-identity-name'
p818
NsS'tizen-dist2-CA-path'
p819
NsS'android-external-jars'
p820
(lp821
sS'winmobile-icon64'
p822
NsS'blackberry-permissions-post-notification'
p823
NsS'winmobile-setup-dll'
p824
NsS'firefoxos-manifest'
p825
NsS'win8-winrt-extra-res'
p826
(lp827
sS'wp81-ext-sdk-manifest-part'
p828
(lp829
sS'symbian9-uid'
p830
NsS'iphone-icon-ipad-ios7'
p831
NsS'winmobile-trace-file'
p832
NsS'roku-splash-color'
p833
NsS'psp-appversion'
p834
NsS'ws8-publisher-id'
p835
NsS'android-supports-gl-texture'
p836
(lp837
sS'winmobile-png45'
p838
NsS'wp81-extra-res'
p839
(lp840
sS'android-storepass'
p841
NsS'osx-signing-identity-inst'
p842
NsS'android-custom-activity'
p843
NsS'psp-discversion'
p844
NsS'wp81-ext-managed-dll'
p845
(lp846
sS'psp-copyright'
p847
NsS'embed-icf'
p848
NsS'tizen-manifest'
p849
NsS'osx-icon'
p850
NsS'webos-appinfo'
p851
NsS'psp-dlghealthwarning'
p852
NsS'webos-appid'
p853
NsS'roku-icon-side-hd'
p854
NsS'iphone-icon-ipad-search-high-res-ios7'
p855
NsS'ws81-ext-sdk-manifest-part'
p856
(lp857
sS'loader_name_prefix'
p858
NsS'nds-titlename'
p859
NsS'ws81-logo-image50x50'
p860
NsS'wp81-custom-manifest'
p861
NsS'osx-entitlements-plist'
p862
NsS'psp-dlgicon0'
p863
NsS'winmobile-nouninstall'
p864
NsS'psp-discid'
p865
NsS'tizen-dist2-password'
p866
NsS'ws8-ext-sdk-ref'
p867
(lp868
sS'iphone-extra-string'
p869
(lp870
sS'version-string'
p871
NsS'iphone-icon-high-res-ios7'
p872
NsS'blackberry-permissions-record-audio'
p873
NsS'ws8-certificate-end-date'
p874
NsS'tizen-so'
p875
(lp876
sS'wp8-tile-fliptemplate-small-image'
p877
NsS'playbook-authorid'
p878
NsS'iphone-signing-identity'
p879
NsS'roku-persist-quota'
p880
NsS'nds-bannertitle-fr'
p881
NsS'ws8-distribution-pfx'
p882
NsS'ws8-publisher-display-name'
p883
NsS'brew-icon-small'
p884
NsS'psp-dlgpic2'
p885
NsS'psp-dlgpic0'
p886
NsS'psp-pic0'
p887
NsS'psp-pic1'
p888
NsS'win32-pref-windowtitle'
p889
NsS'psp-icon0'
p890
NsS'psp-icon1'
p891
NsS'ws81-identity-name'
p892
NsS'winmobile-icon'
p893
NsS'iphone-no-splash'
p894
NsS'iphone-splash'
p895
NsS'iphone-app-fonts'
p896
NsS'wp8-ext-native-dll'
p897
(lp898
sS'wp81-splash-screen-image480x800'
p899
NsS'ws81-distribution-cer'
p900
NsS'uiq3-icon2'
p901
NsS'uiq3-icon3'
p902
NsS'uiq3-icon1'
p903
NsS'uiq3-icon1-format'
p904
NsS'ws8-logo-image50x50'
p905
NsS'symbian-icon2-mask-black'
p906
NsS'symbian-run-on-install'
p907
NsS'wp81-description'
p908
NsS'ws81-publisher-display-name'
p909
NsS'firefoxos-xulrunner'
p910
NsS'symbian-soundrecordsupport'
p911
NsS'nds-bannertitle-sp'
p912
NsS'psp-producer'
p913
NsS'iphone-apple-wwdr-cert'
p914
NsS'android-icon-nonstandard'
p915
NsS'win32-pref-processtitle'
p916
NsS'nds-bannertitle-hn'
p917
NsS'tizen-dist2-key'
p918
NsS'brew-depends'
p919
NsS'ws81-custom-manifest'
p920
NsS'iphone-icon-ipad-search-ios7'
p921
NsS'brew-icon-medium'
p922
NsS'iphone-bundle-url-name'
p923
NsS'wp8-tile-fliptemplate-large-front-image'
p924
NsS'tizen-dist2-CA-root-path'
p925
NsS'ws81-description'
p926
NsS'uiq3-icon3-format'
p927
NsS'ws81-logo-image30x30'
p928
NsS'win8-phone-extra-res'
p929
(lp930
sS'iphone-signing-host'
p931
NsS'tizen-icon'
p932
NsS'osx-info-plist'
p933
NsS'symbian-icon1-format'
p934
NsS'win8-store-extra-res'
p935
(lp936
sS'blackberry-authorid'
p937
NsS'ws81-publisher-id'
p938
NsS'ws81-distribution-pfx'
p939
NsS'wp8-description'
p940
NsS'iphone-link-opts'
p941
(lp942
sS'ws81-ext-sdk-ref'
p943
(lp944
sS'roku-splash-min-time'
p945
NsS'wp8-tile-fliptemplate-medium-front-image'
p946
NsS'provider'
p947
NsS'playbook-keystore'
p948
NsS'tizen-appid'
p949
NsS'wp8-extra-res'
p950
(lp951
sS'symbian-osexecsupport'
p952
NsS'android-install-location'
p953
NsS'nds-privatesavedatasize'
p954
NsS'playbook-storepass'
p955
NsS'android-icon-ldpi'
p956
NsS'manufacturer'
p957
NsS'itunes-artwork'
p958
NsS'iphone-extra-sections'
p959
NsS'ws81-product-name'
p960
NsS'ws81-ext-native-dll'
p961
(lp962
sS'ws8-extra-pri'
p963
(lp964
sS'win32-icon'
p965
NsS'ws8-logo-image30x30'
p966
NsS'wp8-ext-managed-dll'
p967
(lp968
sS'iphone-splashscreen-landscape'
p969
NsS'symbian-maxheapsize'
p970
NsS'nds-makercode'
p971
NsS'priv-sign-key'
p972
NsS'networking'
p973
NsS'android-icon'
p974
NsS'iphone-icon-settings'
p975
NsS'wp81-phone-product-id'
p976
NsS'firefoxos-icon-60X60'
p977
NsS'iphone-distribution-cert'
p978
NsS'android_extra_strings'
p979
NsS'nds-bannertitle-en'
p980
NsS'wp8-tile-fliptemplate-title'
p981
NsS'android-so'
p982
(lp983
sS'wp8-higher-mem'
p984
NsS'wp8-ext-sdk-ref'
p985
(lp986
sS'roku-splash-screen-hd'
p987
NsS'iphone-bundle-url-schemes'
p988
NsS'roku-screensaver-private'
p989
NsS'osx-extra-res'
p990
(lp991
sS'ws81-extra-res'
p992
(lp993
sS'playbook-icon'
p994
NsS'uid'
p995
NsS'pkguid-as-uid'
p996
NsS'wp81-ext-native-dll'
p997
(lp998
sS'tizen-dist1-password'
p999
NsS'roku-screensaver-title'
p1000
NsS'osx-minimum-osx-version'
p1001
NsS'symbian-cert'
p1002
NsS'iphone-icon'
p1003
NsS'ws81-ext-capabilities'
p1004
(lp1005
sS'ws8-distribution-cer'
p1006
NsS'playbook-access-shared'
p1007
NsS'iphone-icon-ipad-high-res-ios7'
p1008
NsS'iphone-link-libs'
p1009
(lp1010
sS'wp8-exclude-wvga'
p1011
NsS'assets'
p1012
NsS'wp8-tile-fliptemplate-large-back-image'
p1013
NsS'wp8-custom-manifest-fill'
p1014
NsS'pub-sign-key'
p1015
NsS'android-extra-strings'
p1016
NsS'tizen-author-CA-path'
p1017
Nssg330
g562
sbssS'platform'
p1018
S'S3E'
p1019
sg64
S'1.0'
p1020
sS'arcade_platform'
p1021
g4
sS'extensions'
p1022
(dp1023
sS'source_groups_tree'
p1024
(dp1025
S'(libpng)'
p1026
(dp1027
S'h'
p1028
(dp1029
S'c:/marmalade/7.4/modules/third_party/libpng/h/png.h'
p1030
(lp1031
I1
a(dp1032
asS'c:/marmalade/7.4/modules/third_party/libpng/h/pngconf.h'
p1033
(lp1034
I1
ag1032
assS'c:/marmalade/7.4/modules/third_party/libpng/libpng.mkf'
p1035
(lp1036
I1
a(dp1037
assS'(libjpeg)'
p1038
(dp1039
g1028
(dp1040
S'c:/marmalade/7.4/modules/third_party/libjpeg/h/jerror.h'
p1041
(lp1042
I1
a(dp1043
asS'c:/marmalade/7.4/modules/third_party/libjpeg/h/jmemsys.h'
p1044
(lp1045
I1
ag1043
asS'c:/marmalade/7.4/modules/third_party/libjpeg/h/jchuff.h'
p1046
(lp1047
I1
ag1043
asS'c:/marmalade/7.4/modules/third_party/libjpeg/h/jpeglib.h'
p1048
(lp1049
I1
ag1043
asS'c:/marmalade/7.4/modules/third_party/libjpeg/h/cdjpeg.h'
p1050
(lp1051
I1
ag1043
asS'c:/marmalade/7.4/modules/third_party/libjpeg/h/jinclude.h'
p1052
(lp1053
I1
ag1043
asS'c:/marmalade/7.4/modules/third_party/libjpeg/h/jconfig.h'
p1054
(lp1055
I1
ag1043
asS'c:/marmalade/7.4/modules/third_party/libjpeg/h/cderror.h'
p1056
(lp1057
I1
ag1043
asS'c:/marmalade/7.4/modules/third_party/libjpeg/h/jdct.h'
p1058
(lp1059
I1
ag1043
asS'c:/marmalade/7.4/modules/third_party/libjpeg/h/jversion.h'
p1060
(lp1061
I1
ag1043
asS'c:/marmalade/7.4/modules/third_party/libjpeg/h/transupp.h'
p1062
(lp1063
I1
ag1043
asS'c:/marmalade/7.4/modules/third_party/libjpeg/h/jdhuff.h'
p1064
(lp1065
I1
ag1043
asS'c:/marmalade/7.4/modules/third_party/libjpeg/h/jpegint.h'
p1066
(lp1067
I1
ag1043
asS'c:/marmalade/7.4/modules/third_party/libjpeg/h/jmorecfg.h'
p1068
(lp1069
I1
ag1043
assS'c:/marmalade/7.4/modules/third_party/libjpeg/libjpeg.mkf'
p1070
(lp1071
I1
a(dp1072
assS'(tiniconv)'
p1073
(dp1074
S'c:/marmalade/7.4/modules/third_party/tiniconv/source/tiniconv_int.h'
p1075
(lp1076
I1
a(dp1077
asS'c:/marmalade/7.4/modules/third_party/tiniconv/tiniconv.mkf'
p1078
(lp1079
I1
a(dp1080
asS'c:/marmalade/7.4/modules/third_party/tiniconv/source/tiniconv.h'
p1081
(lp1082
I1
ag1077
assS'(soundengine)'
p1083
(dp1084
S'c:/marmalade/7.4/examples/gametutorial/cpp/modules/soundengine/h/IwSoundInst.h'
p1085
(lp1086
I1
a(dp1087
asS'c:/marmalade/7.4/examples/gametutorial/cpp/modules/soundengine/h/IwSoundWAV.h'
p1088
(lp1089
I1
ag1087
asS'c:/marmalade/7.4/examples/gametutorial/cpp/modules/soundengine/source/IwSoundParams.cpp'
p1090
(lp1091
I1
ag1087
asS'c:/marmalade/7.4/examples/gametutorial/cpp/modules/soundengine/source/IwSoundManager.cpp'
p1092
(lp1093
I1
ag1087
asS'c:/marmalade/7.4/examples/gametutorial/cpp/modules/soundengine/h/IwSoundPCM.h'
p1094
(lp1095
I1
ag1087
asS'Docs'
p1096
(dp1097
S'c:/marmalade/7.4/examples/gametutorial/cpp/modules/soundengine/docs/iwsound.config.txt'
p1098
(lp1099
I1
ag1087
assS'c:/marmalade/7.4/examples/gametutorial/cpp/modules/soundengine/h/IwSoundGroup.h'
p1100
(lp1101
I1
ag1087
asS'c:/marmalade/7.4/examples/gametutorial/cpp/modules/soundengine/soundengine.mkf'
p1102
(lp1103
I1
a(dp1104
asS'c:/marmalade/7.4/examples/gametutorial/cpp/modules/soundengine/h/IwSoundManager.h'
p1105
(lp1106
I1
ag1087
asS'c:/marmalade/7.4/examples/gametutorial/cpp/modules/soundengine/source/IwSoundGroup.cpp'
p1107
(lp1108
I1
ag1087
asS'c:/marmalade/7.4/examples/gametutorial/cpp/modules/soundengine/source/IwSoundADPCM.cpp'
p1109
(lp1110
I1
ag1087
asS'c:/marmalade/7.4/examples/gametutorial/cpp/modules/soundengine/source/IwSoundPCM.cpp'
p1111
(lp1112
I1
ag1087
asS'c:/marmalade/7.4/examples/gametutorial/cpp/modules/soundengine/h/IwSoundSpec.h'
p1113
(lp1114
I1
ag1087
asS'c:/marmalade/7.4/examples/gametutorial/cpp/modules/soundengine/source/IwSoundData.cpp'
p1115
(lp1116
I1
ag1087
asS'c:/marmalade/7.4/examples/gametutorial/cpp/modules/soundengine/source/IwResHandlerWAV.cpp'
p1117
(lp1118
I1
ag1087
asS'c:/marmalade/7.4/examples/gametutorial/cpp/modules/soundengine/h/IwSoundADPCM.h'
p1119
(lp1120
I1
ag1087
asS'c:/marmalade/7.4/examples/gametutorial/cpp/modules/soundengine/h/IwSoundParams.h'
p1121
(lp1122
I1
ag1087
asS'c:/marmalade/7.4/examples/gametutorial/cpp/modules/soundengine/h/IwSound.h'
p1123
(lp1124
I1
ag1087
asS'c:/marmalade/7.4/examples/gametutorial/cpp/modules/soundengine/source/IwSoundSpec.cpp'
p1125
(lp1126
I1
ag1087
asS'c:/marmalade/7.4/examples/gametutorial/cpp/modules/soundengine/h/IwSoundData.h'
p1127
(lp1128
I1
ag1087
asS'c:/marmalade/7.4/examples/gametutorial/cpp/modules/soundengine/source/IwSoundInst.cpp'
p1129
(lp1130
I1
ag1087
asS'c:/marmalade/7.4/examples/gametutorial/cpp/modules/soundengine/h/IwResHandlerWAV.h'
p1131
(lp1132
I1
ag1087
asS'c:/marmalade/7.4/examples/gametutorial/cpp/modules/soundengine/source/IwSoundWAV.cpp'
p1133
(lp1134
I1
ag1087
assS'Extensions'
p1135
(dp1136
S'PVRTexTool'
p1137
(dp1138
S'interface'
p1139
(dp1140
S'c:/marmalade/7.4/extensions/pvrtextool/interface/PVRTexTool_interface.cpp'
p1141
(lp1142
I1
a(dp1143
asS'c:/marmalade/7.4/extensions/pvrtextool/interface/PVRTexTool.defines.txt'
p1144
(lp1145
I1
ag1143
assS'c:/marmalade/7.4/extensions/pvrtextool/pvrtextool.mkf'
p1146
(lp1147
I1
a(dp1148
asS'c:/marmalade/7.4/extensions/pvrtextool/h/PVRTexTool.h'
p1149
(lp1150
I1
ag1143
asssS"'Marmalade Studio'"
p1151
(dp1152
S'iw2dscenegraph'
p1153
(dp1154
S'c:/marmalade/7.4/modules/iw2dscenegraph/h/Iw2DSceneGraph.h'
p1155
(lp1156
I1
a(dp1157
asS'c:/marmalade/7.4/modules/iw2dscenegraph/source/Iw2DSceneGraph.cpp'
p1158
(lp1159
I1
ag1157
asS'c:/marmalade/7.4/modules/iw2dscenegraph/iw2dscenegraph.mkf'
p1160
(lp1161
I1
a(dp1162
asS'c:/marmalade/7.4/modules/iw2dscenegraph/docs/iw2dscenegraph.defines.txt'
p1163
(lp1164
I1
ag1157
assS'iwgl'
p1165
(dp1166
S'c:/marmalade/7.4/modules/iwgl/iwgl.mkf'
p1167
(lp1168
I1
a(dp1169
asS'c:/marmalade/7.4/modules/iwgl/docs/iwgl.config.txt'
p1170
(lp1171
I1
a(dp1172
asS'c:/marmalade/7.4/modules/iwgl/h/IwGL.h'
p1173
(lp1174
I1
ag1172
asS'c:/marmalade/7.4/modules/iwgl/h/IwGLExt.h'
p1175
(lp1176
I1
ag1172
assS'iw2d'
p1177
(dp1178
S'c:/marmalade/7.4/modules/iw2d/docs/iw2d.config.txt'
p1179
(lp1180
I1
a(dp1181
asS'c:/marmalade/7.4/modules/iw2d/docs/iw2d_public.defines.txt'
p1182
(lp1183
I1
ag1181
asS'c:/marmalade/7.4/modules/iw2d/h/Iw2D.h'
p1184
(lp1185
I1
ag1181
asS'c:/marmalade/7.4/modules/iw2d/iw2d.mkf'
p1186
(lp1187
I1
a(dp1188
assS'iwgxfont'
p1189
(dp1190
S'c:/marmalade/7.4/modules/iwgxfont/docs/iwgxfont_public.defines.txt'
p1191
(lp1192
I1
a(dp1193
asS'c:/marmalade/7.4/modules/iwgxfont/h/IwGxFontGlyph.h'
p1194
(lp1195
I1
ag1193
asS'c:/marmalade/7.4/modules/iwgxfont/docs/iwgxfont.config.txt'
p1196
(lp1197
I1
ag1193
asS'c:/marmalade/7.4/modules/iwgxfont/h/IwGxFont.h'
p1198
(lp1199
I1
ag1193
asS'c:/marmalade/7.4/modules/iwgxfont/h/IwGxFontTypes.h'
p1200
(lp1201
I1
ag1193
asS'c:/marmalade/7.4/modules/iwgxfont/h/IwGxFontPreparedData.h'
p1202
(lp1203
I1
ag1193
asS'c:/marmalade/7.4/modules/iwgxfont/h/IwGxFontState.h'
p1204
(lp1205
I1
ag1193
asS'c:/marmalade/7.4/modules/iwgxfont/h/IwGxFontContainer.h'
p1206
(lp1207
I1
ag1193
asS'c:/marmalade/7.4/modules/iwgxfont/iwgxfont.mkf'
p1208
(lp1209
I1
a(dp1210
assS'iwgeom'
p1211
(dp1212
S'c:/marmalade/7.4/modules/iwgeom/docs/iwgeom.config.txt'
p1213
(lp1214
I1
a(dp1215
asS'c:/marmalade/7.4/modules/iwgeom/h/IwGeomFIntersect.h'
p1216
(lp1217
I1
ag1215
asS'c:/marmalade/7.4/modules/iwgeom/h/IwGeomMat2D.h.tpl'
p1218
(lp1219
I1
ag1215
asS'c:/marmalade/7.4/modules/iwgeom/iwgeom.mkf'
p1220
(lp1221
I1
a(dp1222
asS'c:/marmalade/7.4/modules/iwgeom/h/IwGeomVec.h.tpl'
p1223
(lp1224
I1
ag1215
asS'c:/marmalade/7.4/modules/iwgeom/h/IwGeomFSphere.h'
p1225
(lp1226
I1
ag1215
asS'c:/marmalade/7.4/modules/iwgeom/h/IwGeomFQuat.h'
p1227
(lp1228
I1
ag1215
asS'c:/marmalade/7.4/modules/iwgeom/h/IwGeomMenu.h'
p1229
(lp1230
I1
ag1215
asS'c:/marmalade/7.4/modules/iwgeom/h/IwGeomFMat2D.h'
p1231
(lp1232
I1
ag1215
asS'c:/marmalade/7.4/modules/iwgeom/h/IwGeomFVec4.h'
p1233
(lp1234
I1
ag1215
asS'c:/marmalade/7.4/modules/iwgeom/h/IwGeomQuat.h'
p1235
(lp1236
I1
ag1215
asS'c:/marmalade/7.4/modules/iwgeom/h/IwGeomFBBox.h'
p1237
(lp1238
I1
ag1215
asS'c:/marmalade/7.4/modules/iwgeom/h/IwGeomSVec4.h'
p1239
(lp1240
I1
ag1215
asS'c:/marmalade/7.4/modules/iwgeom/h/IwGeomFVec2.h'
p1241
(lp1242
I1
ag1215
asS'c:/marmalade/7.4/modules/iwgeom/h/IwGeomVec.h'
p1243
(lp1244
I1
ag1215
asS'c:/marmalade/7.4/modules/iwgeom/h/IwGeomPlane.h'
p1245
(lp1246
I1
ag1215
asS'c:/marmalade/7.4/modules/iwgeom/h/IwGeomQuat.h.tpl'
p1247
(lp1248
I1
ag1215
asS'c:/marmalade/7.4/modules/iwgeom/h/IwGeomSVec3.h'
p1249
(lp1250
I1
ag1215
asS'c:/marmalade/7.4/modules/iwgeom/h/IwGeomMat.h'
p1251
(lp1252
I1
ag1215
asS'c:/marmalade/7.4/modules/iwgeom/h/IwGeomVec3.h'
p1253
(lp1254
I1
ag1215
asS'c:/marmalade/7.4/modules/iwgeom/h/IwGeomVec2.h'
p1255
(lp1256
I1
ag1215
asS'c:/marmalade/7.4/modules/iwgeom/h/IwGeomLegacy.h'
p1257
(lp1258
I1
ag1215
asS'c:/marmalade/7.4/modules/iwgeom/h/IwGeomSQuat.h'
p1259
(lp1260
I1
ag1215
asS'c:/marmalade/7.4/modules/iwgeom/h/IwGeomCore.h'
p1261
(lp1262
I1
ag1215
asS'c:/marmalade/7.4/modules/iwgeom/h/IwGeomVec4.h'
p1263
(lp1264
I1
ag1215
asS'c:/marmalade/7.4/modules/iwgeom/h/IwGeomBBox.h'
p1265
(lp1266
I1
ag1215
asS'c:/marmalade/7.4/modules/iwgeom/h/IwGeomIntersect.h'
p1267
(lp1268
I1
ag1215
asS'c:/marmalade/7.4/modules/iwgeom/h/IwGeomSVec2.h'
p1269
(lp1270
I1
ag1215
asS'c:/marmalade/7.4/modules/iwgeom/h/IwGeomMat2D.h'
p1271
(lp1272
I1
ag1215
asS'c:/marmalade/7.4/modules/iwgeom/h/IwGeomSphere.h'
p1273
(lp1274
I1
ag1215
asS'c:/marmalade/7.4/modules/iwgeom/h/IwGeomFVec3.h'
p1275
(lp1276
I1
ag1215
asS'c:/marmalade/7.4/modules/iwgeom/h/IwGeom.h'
p1277
(lp1278
I1
ag1215
asS'c:/marmalade/7.4/modules/iwgeom/h/IwGeomMat.h.tpl'
p1279
(lp1280
I1
ag1215
asS'c:/marmalade/7.4/modules/iwgeom/h/IwGeomFPlane.h'
p1281
(lp1282
I1
ag1215
asS'c:/marmalade/7.4/modules/iwgeom/h/IwGeomFMat.h'
p1283
(lp1284
I1
ag1215
asS'c:/marmalade/7.4/modules/iwgeom/h/IwGeomSqrt.h'
p1285
(lp1286
I1
ag1215
assS'iwresmanager'
p1287
(dp1288
S'c:/marmalade/7.4/modules/iwresmanager/h/IwResHandlerITX.h'
p1289
(lp1290
I1
a(dp1291
asS'c:/marmalade/7.4/modules/iwresmanager/h/IwResGroup.h'
p1292
(lp1293
I1
ag1291
asS'c:/marmalade/7.4/modules/iwresmanager/h/IwResManager.h'
p1294
(lp1295
I1
ag1291
asS'c:/marmalade/7.4/modules/iwresmanager/h/IwResManagerClass.h'
p1296
(lp1297
I1
ag1291
asS'c:/marmalade/7.4/modules/iwresmanager/h/IwResSerialise.h'
p1298
(lp1299
I1
ag1291
asS'c:/marmalade/7.4/modules/iwresmanager/h/IwResHandlerGROUP.h'
p1300
(lp1301
I1
ag1291
asS'c:/marmalade/7.4/modules/iwresmanager/iwresmanager.mkf'
p1302
(lp1303
I1
a(dp1304
asS'c:/marmalade/7.4/modules/iwresmanager/h/IwResHandlerImage.h'
p1305
(lp1306
I1
ag1291
asS'c:/marmalade/7.4/modules/iwresmanager/h/IwResHandler.h'
p1307
(lp1308
I1
ag1291
asS'c:/marmalade/7.4/modules/iwresmanager/docs/iwresmanager.config.txt'
p1309
(lp1310
I1
ag1291
assS'iwgx'
p1311
(dp1312
S'c:/marmalade/7.4/modules/iwgx/h/IwDebugPrim.h'
p1313
(lp1314
I1
a(dp1315
asS'c:/marmalade/7.4/modules/iwgx/h/IwGxFuncTable.h'
p1316
(lp1317
I1
ag1315
asS'c:/marmalade/7.4/modules/iwgx/h/IwClip.inl'
p1318
(lp1319
I1
ag1315
asS'c:/marmalade/7.4/modules/iwgx/h/IwGxPrint.h'
p1320
(lp1321
I1
ag1315
asS'c:/marmalade/7.4/modules/iwgx/h/IwGx.h'
p1322
(lp1323
I1
ag1315
asS'c:/marmalade/7.4/modules/iwgx/h/IwTexture.h'
p1324
(lp1325
I1
ag1315
asS'c:/marmalade/7.4/modules/iwgx/h/IwFColour.h'
p1326
(lp1327
I1
ag1315
asS'c:/marmalade/7.4/modules/iwgx/h/IwColour.h'
p1328
(lp1329
I1
ag1315
asS'c:/marmalade/7.4/modules/iwgx/h/IwGxState.h'
p1330
(lp1331
I1
ag1315
asS'c:/marmalade/7.4/modules/iwgx/h/IwClip.h'
p1332
(lp1333
I1
ag1315
asS'c:/marmalade/7.4/modules/iwgx/h/IwTPage.h'
p1334
(lp1335
I1
ag1315
asS'c:/marmalade/7.4/modules/iwgx/h/IwMaterial.h'
p1336
(lp1337
I1
ag1315
asS'c:/marmalade/7.4/modules/iwgx/h/IwGxDebug.h'
p1338
(lp1339
I1
ag1315
asS'c:/marmalade/7.4/modules/iwgx/h/IwMatAnim.h'
p1340
(lp1341
I1
ag1315
asS'c:/marmalade/7.4/modules/iwgx/h/IwGxStream.h'
p1342
(lp1343
I1
ag1315
asS'c:/marmalade/7.4/modules/iwgx/h/IwResHandlerMTL.h'
p1344
(lp1345
I1
ag1315
asS'c:/marmalade/7.4/modules/iwgx/h/IwGxMetrics.h'
p1346
(lp1347
I1
ag1315
asS'c:/marmalade/7.4/modules/iwgx/h/IwGxError.h'
p1348
(lp1349
I1
ag1315
asS'c:/marmalade/7.4/modules/iwgx/docs/iwgx.config.txt'
p1350
(lp1351
I1
ag1315
asS'c:/marmalade/7.4/modules/iwgx/h/IwGxTransformSW.h'
p1352
(lp1353
I1
ag1315
asS'c:/marmalade/7.4/modules/iwgx/iwgx.mkf'
p1354
(lp1355
I1
a(dp1356
asS'c:/marmalade/7.4/modules/iwgx/docs/iwgx_public.defines.txt'
p1357
(lp1358
I1
ag1315
asS'c:/marmalade/7.4/modules/iwgx/h/IwGxShaderTechnique.h'
p1359
(lp1360
I1
ag1315
asS'c:/marmalade/7.4/modules/iwgx/h/IwGxTypes.h'
p1361
(lp1362
I1
ag1315
asS'c:/marmalade/7.4/modules/iwgx/h/IwGxSurface.h'
p1363
(lp1364
I1
ag1315
assS'iw2dscenegraphcore'
p1365
(dp1366
S'c:/marmalade/7.4/modules/iw2dscenegraphcore/iw2dscenegraphcore.mkf'
p1367
(lp1368
I1
a(dp1369
asS'c:/marmalade/7.4/modules/iw2dscenegraphcore/source/Iw2DSceneGraphCore.cpp'
p1370
(lp1371
I1
a(dp1372
asS'c:/marmalade/7.4/modules/iw2dscenegraphcore/h/Iw2DSceneGraphCore.h'
p1373
(lp1374
I1
ag1372
assS'iwutil'
p1375
(dp1376
S'c:/marmalade/7.4/modules/iwutil/h/IwTextParser.h'
p1377
(lp1378
I1
a(dp1379
asS'c:/marmalade/7.4/modules/iwutil/h/IwMenu.h'
p1380
(lp1381
I1
ag1379
asS'c:/marmalade/7.4/modules/iwutil/h/IwUtilInitTerm.h'
p1382
(lp1383
I1
ag1379
asS'c:/marmalade/7.4/modules/iwutil/h/IwCopyingPtr.h'
p1384
(lp1385
I1
ag1379
asS'c:/marmalade/7.4/modules/iwutil/h/IwDebug.h'
p1386
(lp1387
I1
ag1379
asS'c:/marmalade/7.4/modules/iwutil/h/IwDivTable.h'
p1388
(lp1389
I1
ag1379
asS'c:/marmalade/7.4/modules/iwutil/h/IwBuffer.h'
p1390
(lp1391
I1
ag1379
asS'c:/marmalade/7.4/modules/iwutil/h/IwRandom.h'
p1392
(lp1393
I1
ag1379
asS'c:/marmalade/7.4/modules/iwutil/h/IwResource.h'
p1394
(lp1395
I1
ag1379
asS'c:/marmalade/7.4/modules/iwutil/h/IwCore.h'
p1396
(lp1397
I1
ag1379
asS'c:/marmalade/7.4/modules/iwutil/h/IwTextParserITX.h'
p1398
(lp1399
I1
ag1379
asS'c:/marmalade/7.4/modules/iwutil/h/IwManaged.h'
p1400
(lp1401
I1
ag1379
asS'c:/marmalade/7.4/modules/iwutil/h/IwHashString.h'
p1402
(lp1403
I1
ag1379
asS'c:/marmalade/7.4/modules/iwutil/h/IwProfileMenu.h'
p1404
(lp1405
I1
ag1379
asS'c:/marmalade/7.4/modules/iwutil/h/IwManagedList.h'
p1406
(lp1407
I1
ag1379
asS'c:/marmalade/7.4/modules/iwutil/h/IwList.h'
p1408
(lp1409
I1
ag1379
asS'c:/marmalade/7.4/modules/iwutil/h/IwSerialise.h'
p1410
(lp1411
I1
ag1379
asS'c:/marmalade/7.4/modules/iwutil/h/IwClassFactory.h'
p1412
(lp1413
I1
ag1379
asS'c:/marmalade/7.4/modules/iwutil/h/IwTypes.h'
p1414
(lp1415
I1
ag1379
asS'c:/marmalade/7.4/modules/iwutil/h/IwAllocator.h'
p1416
(lp1417
I1
ag1379
asS'c:/marmalade/7.4/modules/iwutil/h/IwMemory.h'
p1418
(lp1419
I1
ag1379
asS'c:/marmalade/7.4/modules/iwutil/h/IwTextParseable.h'
p1420
(lp1421
I1
ag1379
asS'c:/marmalade/7.4/modules/iwutil/h/IwFile.h'
p1422
(lp1423
I1
ag1379
asS'c:/marmalade/7.4/modules/iwutil/h/IwRuntime.h'
p1424
(lp1425
I1
ag1379
asS'c:/marmalade/7.4/modules/iwutil/h/IwMemBucketHelpers.h'
p1426
(lp1427
I1
ag1379
asS'c:/marmalade/7.4/modules/iwutil/h/IwUncopyable.h'
p1428
(lp1429
I1
ag1379
asS'c:/marmalade/7.4/modules/iwutil/h/IwChar.h'
p1430
(lp1431
I1
ag1379
asS'c:/marmalade/7.4/modules/iwutil/h/IwOptimiseARM.h'
p1432
(lp1433
I1
ag1379
asS'c:/marmalade/7.4/modules/iwutil/h/IwImage.h'
p1434
(lp1435
I1
ag1379
asS'c:/marmalade/7.4/modules/iwutil/h/IwImageHelper.h'
p1436
(lp1437
I1
ag1379
asS'c:/marmalade/7.4/modules/iwutil/h/IwMemBucket.h'
p1438
(lp1439
I1
ag1379
asS'c:/marmalade/7.4/modules/iwutil/h/IwDivide.h'
p1440
(lp1441
I1
ag1379
asS'c:/marmalade/7.4/modules/iwutil/h/IwOptimiseSpeed.h'
p1442
(lp1443
I1
ag1379
asS'c:/marmalade/7.4/modules/iwutil/h/IwArray.h'
p1444
(lp1445
I1
ag1379
asS'c:/marmalade/7.4/modules/iwutil/docs/iwutil.config.txt'
p1446
(lp1447
I1
ag1379
asS'c:/marmalade/7.4/modules/iwutil/h/IwUTF8.h'
p1448
(lp1449
I1
ag1379
asS'c:/marmalade/7.4/modules/iwutil/h/IwEvent.h'
p1450
(lp1451
I1
ag1379
asS'c:/marmalade/7.4/modules/iwutil/h/IwMath.h'
p1452
(lp1453
I1
ag1379
asS'c:/marmalade/7.4/modules/iwutil/h/IwFibre.h'
p1454
(lp1455
I1
ag1379
asS'c:/marmalade/7.4/modules/iwutil/h/IwString.h'
p1456
(lp1457
I1
ag1379
asS'c:/marmalade/7.4/modules/iwutil/h/IwKeymap.h'
p1458
(lp1459
I1
ag1379
asS'c:/marmalade/7.4/modules/iwutil/iwutil.mkf'
p1460
(lp1461
I1
a(dp1462
asS'c:/marmalade/7.4/modules/iwutil/h/IwSingleton.h'
p1463
(lp1464
I1
ag1379
asS'c:/marmalade/7.4/modules/iwutil/h/IwAutoFile.h'
p1465
(lp1466
I1
ag1379
asS'c:/marmalade/7.4/modules/iwutil/h/IwOptimiseThumb.h'
p1467
(lp1468
I1
ag1379
asS'c:/marmalade/7.4/modules/iwutil/h/IwUtil.h'
p1469
(lp1470
I1
ag1379
asS'c:/marmalade/7.4/modules/iwutil/h/IwPath.h'
p1471
(lp1472
I1
ag1379
asS'c:/marmalade/7.4/modules/iwutil/h/IwMemManagerDL.h'
p1473
(lp1474
I1
ag1379
asS'c:/marmalade/7.4/modules/iwutil/h/IwVariableBitField.h'
p1475
(lp1476
I1
ag1379
asS'c:/marmalade/7.4/modules/iwutil/h/IwOptimiseSize.h'
p1477
(lp1478
I1
ag1379
asssS'(zlib)'
p1479
(dp1480
g1028
(dp1481
S'c:/marmalade/7.4/modules/third_party/zlib/h/zconf.h'
p1482
(lp1483
I1
a(dp1484
asS'c:/marmalade/7.4/modules/third_party/zlib/h/zlib.h'
p1485
(lp1486
I1
ag1484
assS'c:/marmalade/7.4/modules/third_party/zlib/zlib.mkf'
p1487
(lp1488
I1
a(dp1489
assS'e:/Documents/Michiel/Programmeren/Marmalade/MVSStage3/main.cpp'
p1490
(lp1491
I1
a(dp1492
assS'files'
p1493
(dp1494
S'IwGxFontPreparedData.h'
p1495
g304
(cmkb_main
File
p1496
g306
Ntp1497
Rp1498
(dp1499
S'flags'
p1500
g1193
sS'group'
p1501
(lp1502
S"'Marmalade Studio'"
p1503
ag1189
asg330
g1202
sbsS'iterator'
p1504
g304
(g1496
g306
Ntp1505
Rp1506
(dp1507
g1500
(dp1508
sg1501
(lp1509
S"'Marmalade System (S3E)'"
p1510
aS'stdc headers'
p1511
aS'c++'
p1512
asg330
S'c:/marmalade/7.4/s3e/h/std/c++/iterator'
p1513
sbsS'IwGL.h'
p1514
g304
(g1496
g306
Ntp1515
Rp1516
(dp1517
g1500
g1172
sg1501
(lp1518
S"'Marmalade Studio'"
p1519
ag1165
asg330
g1173
sbsS's3e.h'
p1520
g304
(g1496
g306
Ntp1521
Rp1522
(dp1523
g1500
g1508
sg1501
(lp1524
g1510
asg330
S'c:/marmalade/7.4/s3e/h/s3e.h'
p1525
sbsS'errno.h'
p1526
g304
(g1496
g306
Ntp1527
Rp1528
(dp1529
g1500
g1508
sg1501
(lp1530
g1510
aS'stdc headers'
p1531
asg330
S'c:/marmalade/7.4/s3e/h/std/errno.h'
p1532
sbsS'IwSingleton.h'
p1533
g304
(g1496
g306
Ntp1534
Rp1535
(dp1536
g1500
g1379
sg1501
(lp1537
S"'Marmalade Studio'"
p1538
ag1375
asg330
g1463
sbsS'dlfcn.h'
p1539
g304
(g1496
g306
Ntp1540
Rp1541
(dp1542
g1500
g1508
sg1501
g1530
sg330
S'c:/marmalade/7.4/s3e/h/std/dlfcn.h'
p1543
sbsS'IwSoundWAV.cpp'
p1544
g304
(g1496
g306
Ntp1545
Rp1546
(dp1547
g1500
g1087
sg1501
(lp1548
g1083
asg330
g1133
sbsS'sched.h'
p1549
g304
(g1496
g306
Ntp1550
Rp1551
(dp1552
g1500
g1508
sg1501
g1530
sg330
S'c:/marmalade/7.4/s3e/h/std/sched.h'
p1553
sbsS'IwSoundPCM.h'
p1554
g304
(g1496
g306
Ntp1555
Rp1556
(dp1557
g1500
g1087
sg1501
g1548
sg330
g1094
sbsS'IwGeomFMat2D.h'
p1558
g304
(g1496
g306
Ntp1559
Rp1560
(dp1561
g1500
g1215
sg1501
(lp1562
S"'Marmalade Studio'"
p1563
ag1211
asg330
g1231
sbsS'cassert'
p1564
g304
(g1496
g306
Ntp1565
Rp1566
(dp1567
g1500
g1508
sg1501
g1509
sg330
S'c:/marmalade/7.4/s3e/h/std/c++/cassert'
p1568
sbsS'grp.h'
p1569
g304
(g1496
g306
Ntp1570
Rp1571
(dp1572
g1500
g1508
sg1501
g1530
sg330
S'c:/marmalade/7.4/s3e/h/std/grp.h'
p1573
sbsS'list'
p1574
g304
(g1496
g306
Ntp1575
Rp1576
(dp1577
g1500
g1508
sg1501
g1509
sg330
S'c:/marmalade/7.4/s3e/h/std/c++/list'
p1578
sbsS'IwSoundSpec.cpp'
p1579
g304
(g1496
g306
Ntp1580
Rp1581
(dp1582
g1500
g1087
sg1501
g1548
sg330
g1125
sbsS'IwGeomMat.h.tpl'
p1583
g304
(g1496
g306
Ntp1584
Rp1585
(dp1586
g1500
g1215
sg1501
g1562
sg330
g1279
sbsS'istream'
p1587
g304
(g1496
g306
Ntp1588
Rp1589
(dp1590
g1500
g1508
sg1501
g1509
sg330
S'c:/marmalade/7.4/s3e/h/std/c++/istream'
p1591
sbsS'jpeglib.h'
p1592
g304
(g1496
g306
Ntp1593
Rp1594
(dp1595
g1500
g1043
sg1501
(lp1596
g1038
ag1028
asg330
g1048
sbsS'iw2d_public.defines.txt'
p1597
g304
(g1496
g306
Ntp1598
Rp1599
(dp1600
g1500
g1181
sg1501
(lp1601
S"'Marmalade Studio'"
p1602
ag1177
asg330
g1182
sbsS'iostream.h'
p1603
g304
(g1496
g306
Ntp1604
Rp1605
(dp1606
g1500
g1508
sg1501
g1509
sg330
S'c:/marmalade/7.4/s3e/h/std/c++/iostream.h'
p1607
sbsS'IwSoundADPCM.h'
p1608
g304
(g1496
g306
Ntp1609
Rp1610
(dp1611
g1500
g1087
sg1501
g1548
sg330
g1119
sbsS'string'
p1612
g304
(g1496
g306
Ntp1613
Rp1614
(dp1615
g1500
g1508
sg1501
g1509
sg330
S'c:/marmalade/7.4/s3e/h/std/c++/string'
p1616
sbsS'IwMemory.h'
p1617
g304
(g1496
g306
Ntp1618
Rp1619
(dp1620
g1500
g1379
sg1501
g1537
sg330
g1418
sbsS'IwGeomPlane.h'
p1621
g304
(g1496
g306
Ntp1622
Rp1623
(dp1624
g1500
g1215
sg1501
g1562
sg330
g1245
sbsS'iw2d.config.txt'
p1625
g304
(g1496
g306
Ntp1626
Rp1627
(dp1628
g1500
g1181
sg1501
g1601
sg330
g1179
sbsS'iomanip'
p1629
g304
(g1496
g306
Ntp1630
Rp1631
(dp1632
g1500
g1508
sg1501
g1509
sg330
S'c:/marmalade/7.4/s3e/h/std/c++/iomanip'
p1633
sbsS'iwgeom.mkf'
p1634
g304
(g1496
g306
Ntp1635
Rp1636
(dp1637
g1500
g1222
sg1501
g1562
sg330
g1220
sbsS'IwGxError.h'
p1638
g304
(g1496
g306
Ntp1639
Rp1640
(dp1641
g1500
g1315
sg1501
(lp1642
S"'Marmalade Studio'"
p1643
ag1311
asg330
g1348
sbsS'IwGeom.h'
p1644
g304
(g1496
g306
Ntp1645
Rp1646
(dp1647
g1500
g1215
sg1501
g1562
sg330
g1277
sbsS'IwGeomVec4.h'
p1648
g304
(g1496
g306
Ntp1649
Rp1650
(dp1651
g1500
g1215
sg1501
g1562
sg330
g1263
sbsS'dir.h'
p1652
g304
(g1496
g306
Ntp1653
Rp1654
(dp1655
g1500
g1508
sg1501
(lp1656
g1510
aS'stdc headers'
p1657
aS'sys'
p1658
asg330
S'c:/marmalade/7.4/s3e/h/std/sys/dir.h'
p1659
sbsS'locale.h'
p1660
g304
(g1496
g306
Ntp1661
Rp1662
(dp1663
g1500
g1508
sg1501
g1530
sg330
S'c:/marmalade/7.4/s3e/h/std/locale.h'
p1664
sbsS'vector'
p1665
g304
(g1496
g306
Ntp1666
Rp1667
(dp1668
g1500
g1508
sg1501
g1509
sg330
S'c:/marmalade/7.4/s3e/h/std/c++/vector'
p1669
sbsS'IwManaged.h'
p1670
g304
(g1496
g306
Ntp1671
Rp1672
(dp1673
g1500
g1379
sg1501
g1537
sg330
g1400
sbsS's3eCompass.h'
p1674
g304
(g1496
g306
Ntp1675
Rp1676
(dp1677
g1500
g1508
sg1501
g1524
sg330
S'c:/marmalade/7.4/s3e/h/s3eCompass.h'
p1678
sbsS'cderror.h'
p1679
g304
(g1496
g306
Ntp1680
Rp1681
(dp1682
g1500
g1043
sg1501
g1596
sg330
g1056
sbsS'climits'
p1683
g304
(g1496
g306
Ntp1684
Rp1685
(dp1686
g1500
g1508
sg1501
g1509
sg330
S'c:/marmalade/7.4/s3e/h/std/c++/climits'
p1687
sbsS'ipc.h'
p1688
g304
(g1496
g306
Ntp1689
Rp1690
(dp1691
g1500
g1508
sg1501
g1656
sg330
S'c:/marmalade/7.4/s3e/h/std/sys/ipc.h'
p1692
sbsS'jversion.h'
p1693
g304
(g1496
g306
Ntp1694
Rp1695
(dp1696
g1500
g1043
sg1501
g1596
sg330
g1060
sbsS'fnmatch.h'
p1697
g304
(g1496
g306
Ntp1698
Rp1699
(dp1700
g1500
g1508
sg1501
g1530
sg330
S'c:/marmalade/7.4/s3e/h/std/fnmatch.h'
p1701
sbsS'IwGxState.h'
p1702
g304
(g1496
g306
Ntp1703
Rp1704
(dp1705
g1500
g1315
sg1501
g1642
sg330
g1330
sbsS's3eAudio.h'
p1706
g304
(g1496
g306
Ntp1707
Rp1708
(dp1709
g1500
g1508
sg1501
g1524
sg330
S'c:/marmalade/7.4/s3e/h/s3eAudio.h'
p1710
sbsS's3eSurface.h'
p1711
g304
(g1496
g306
Ntp1712
Rp1713
(dp1714
g1500
g1508
sg1501
g1524
sg330
S'c:/marmalade/7.4/s3e/h/s3eSurface.h'
p1715
sbsS'new'
p1716
g304
(g1496
g306
Ntp1717
Rp1718
(dp1719
g1500
g1508
sg1501
g1509
sg330
S'c:/marmalade/7.4/s3e/h/std/c++/new'
p1720
sbsS's3eWindow.h'
p1721
g304
(g1496
g306
Ntp1722
Rp1723
(dp1724
g1500
g1508
sg1501
(lp1725
g1510
aS'Extensions'
p1726
asg330
S'c:/marmalade/7.4/s3e/h/ext/s3eWindow.h'
p1727
sbsS'IwBuffer.h'
p1728
g304
(g1496
g306
Ntp1729
Rp1730
(dp1731
g1500
g1379
sg1501
g1537
sg330
g1390
sbsS'stdio_streambuf'
p1732
g304
(g1496
g306
Ntp1733
Rp1734
(dp1735
g1500
g1508
sg1501
g1509
sg330
S'c:/marmalade/7.4/s3e/h/std/c++/stdio_streambuf'
p1736
sbsS'IwGeomQuat.h.tpl'
p1737
g304
(g1496
g306
Ntp1738
Rp1739
(dp1740
g1500
g1215
sg1501
g1562
sg330
g1247
sbsS's3eOSExec.h'
p1741
g304
(g1496
g306
Ntp1742
Rp1743
(dp1744
g1500
g1508
sg1501
g1725
sg330
S'c:/marmalade/7.4/s3e/h/ext/s3eOSExec.h'
p1745
sbsS'IwGxTransformSW.h'
p1746
g304
(g1496
g306
Ntp1747
Rp1748
(dp1749
g1500
g1315
sg1501
g1642
sg330
g1352
sbsS'IwGxMetrics.h'
p1750
g304
(g1496
g306
Ntp1751
Rp1752
(dp1753
g1500
g1315
sg1501
g1642
sg330
g1346
sbsS'iwgxfont.config.txt'
p1754
g304
(g1496
g306
Ntp1755
Rp1756
(dp1757
g1500
g1193
sg1501
g1502
sg330
g1196
sbsS'gl2platform.h'
p1758
g304
(g1496
g306
Ntp1759
Rp1760
(dp1761
g1500
g1508
sg1501
(lp1762
g1510
aS'GL'
p1763
aS'GLES 2.0'
p1764
asg330
S'c:/marmalade/7.4/s3e/h/GLES2/gl2platform.h'
p1765
sbsS'IwResManagerClass.h'
p1766
g304
(g1496
g306
Ntp1767
Rp1768
(dp1769
g1500
g1291
sg1501
(lp1770
g1151
ag1287
asg330
g1296
sbsS'queue'
p1771
g304
(g1496
g306
Ntp1772
Rp1773
(dp1774
g1500
g1508
sg1501
g1509
sg330
S'c:/marmalade/7.4/s3e/h/std/c++/queue'
p1775
sbsS'time_1.h'
p1776
g304
(g1496
g306
Ntp1777
Rp1778
(dp1779
g1500
g1508
sg1501
g1656
sg330
S'c:/marmalade/7.4/s3e/h/std/sys/time.h'
p1780
sbsS'Iw2D.h'
p1781
g304
(g1496
g306
Ntp1782
Rp1783
(dp1784
g1500
g1181
sg1501
g1601
sg330
g1184
sbsS'IwGeomVec2.h'
p1785
g304
(g1496
g306
Ntp1786
Rp1787
(dp1788
g1500
g1215
sg1501
g1562
sg330
g1255
sbsS's3eDevice.h'
p1789
g304
(g1496
g306
Ntp1790
Rp1791
(dp1792
g1500
g1508
sg1501
g1524
sg330
S'c:/marmalade/7.4/s3e/h/s3eDevice.h'
p1793
sbsS'malloc.h'
p1794
g304
(g1496
g306
Ntp1795
Rp1796
(dp1797
g1500
g1508
sg1501
g1530
sg330
S'c:/marmalade/7.4/s3e/h/std/malloc.h'
p1798
sbsS'stdarg.h'
p1799
g304
(g1496
g306
Ntp1800
Rp1801
(dp1802
g1500
g1508
sg1501
g1530
sg330
S'c:/marmalade/7.4/s3e/h/std/stdarg.h'
p1803
sbsS'IwGeomCore.h'
p1804
g304
(g1496
g306
Ntp1805
Rp1806
(dp1807
g1500
g1215
sg1501
g1562
sg330
g1261
sbsS'Iw2DSceneGraph.h'
p1808
g304
(g1496
g306
Ntp1809
Rp1810
(dp1811
g1500
g1157
sg1501
(lp1812
S"'Marmalade Studio'"
p1813
ag1153
asg330
g1155
sbsS'endian.h'
p1814
g304
(g1496
g306
Ntp1815
Rp1816
(dp1817
g1500
g1508
sg1501
g1530
sg330
S'c:/marmalade/7.4/s3e/h/std/endian.h'
p1818
sbsS'gl3ext.h'
p1819
g304
(g1496
g306
Ntp1820
Rp1821
(dp1822
g1500
g1508
sg1501
(lp1823
g1510
aS'GL'
p1824
aS'GLES 3.0'
p1825
asg330
S'c:/marmalade/7.4/s3e/h/GLES3/gl3ext.h'
p1826
sbsS'glob.h'
p1827
g304
(g1496
g306
Ntp1828
Rp1829
(dp1830
g1500
g1508
sg1501
g1530
sg330
S'c:/marmalade/7.4/s3e/h/std/glob.h'
p1831
sbsS'fstream'
p1832
g304
(g1496
g306
Ntp1833
Rp1834
(dp1835
g1500
g1508
sg1501
g1509
sg330
S'c:/marmalade/7.4/s3e/h/std/c++/fstream'
p1836
sbsS's3eCamera.h'
p1837
g304
(g1496
g306
Ntp1838
Rp1839
(dp1840
g1500
g1508
sg1501
g1524
sg330
S'c:/marmalade/7.4/s3e/h/s3eCamera.h'
p1841
sbsS'jconfig.h'
p1842
g304
(g1496
g306
Ntp1843
Rp1844
(dp1845
g1500
g1043
sg1501
g1596
sg330
g1054
sbsS'memory'
p1846
g304
(g1496
g306
Ntp1847
Rp1848
(dp1849
g1500
g1508
sg1501
g1509
sg330
S'c:/marmalade/7.4/s3e/h/std/c++/memory'
p1850
sbsS'egl.h'
p1851
g304
(g1496
g306
Ntp1852
Rp1853
(dp1854
g1500
g1508
sg1501
(lp1855
g1510
aS'GL'
p1856
aS'EGL'
p1857
asg330
S'c:/marmalade/7.4/s3e/h/EGL/egl.h'
p1858
sbsS'IwClip.inl'
p1859
g304
(g1496
g306
Ntp1860
Rp1861
(dp1862
g1500
g1315
sg1501
g1642
sg330
g1318
sbsS'IwMemManagerDL.h'
p1863
g304
(g1496
g306
Ntp1864
Rp1865
(dp1866
g1500
g1379
sg1501
g1537
sg330
g1473
sbsS'deque'
p1867
g304
(g1496
g306
Ntp1868
Rp1869
(dp1870
g1500
g1508
sg1501
g1509
sg330
S'c:/marmalade/7.4/s3e/h/std/c++/deque'
p1871
sbsS'IwString.h'
p1872
g304
(g1496
g306
Ntp1873
Rp1874
(dp1875
g1500
g1379
sg1501
g1537
sg330
g1456
sbsS'cwchar'
p1876
g304
(g1496
g306
Ntp1877
Rp1878
(dp1879
g1500
g1508
sg1501
g1509
sg330
S'c:/marmalade/7.4/s3e/h/std/c++/cwchar'
p1880
sbsS'iwutil.mkf'
p1881
g304
(g1496
g306
Ntp1882
Rp1883
(dp1884
g1500
g1462
sg1501
g1537
sg330
g1460
sbsS'csignal'
p1885
g304
(g1496
g306
Ntp1886
Rp1887
(dp1888
g1500
g1508
sg1501
g1509
sg330
S'c:/marmalade/7.4/s3e/h/std/c++/csignal'
p1889
sbsS'float.h'
p1890
g304
(g1496
g306
Ntp1891
Rp1892
(dp1893
g1500
g1508
sg1501
g1530
sg330
S'c:/marmalade/7.4/s3e/h/std/float.h'
p1894
sbsS'pthread_alloc'
p1895
g304
(g1496
g306
Ntp1896
Rp1897
(dp1898
g1500
g1508
sg1501
g1509
sg330
S'c:/marmalade/7.4/s3e/h/std/c++/pthread_alloc'
p1899
sbsS'getopt.h'
p1900
g304
(g1496
g306
Ntp1901
Rp1902
(dp1903
g1500
g1508
sg1501
g1530
sg330
S'c:/marmalade/7.4/s3e/h/std/getopt.h'
p1904
sbsS'IwOptimiseARM.h'
p1905
g304
(g1496
g306
Ntp1906
Rp1907
(dp1908
g1500
g1379
sg1501
g1537
sg330
g1432
sbsS'times.h'
p1909
g304
(g1496
g306
Ntp1910
Rp1911
(dp1912
g1500
g1508
sg1501
g1656
sg330
S'c:/marmalade/7.4/s3e/h/std/sys/times.h'
p1913
sbsS'IwGeomFSphere.h'
p1914
g304
(g1496
g306
Ntp1915
Rp1916
(dp1917
g1500
g1215
sg1501
g1562
sg330
g1225
sbsS'functional'
p1918
g304
(g1496
g306
Ntp1919
Rp1920
(dp1921
g1500
g1508
sg1501
g1509
sg330
S'c:/marmalade/7.4/s3e/h/std/c++/functional'
p1922
sbsS'IwTypes.h'
p1923
g304
(g1496
g306
Ntp1924
Rp1925
(dp1926
g1500
g1379
sg1501
g1537
sg330
g1414
sbsS'unistd.h'
p1927
g304
(g1496
g306
Ntp1928
Rp1929
(dp1930
g1500
g1508
sg1501
g1530
sg330
S'c:/marmalade/7.4/s3e/h/std/unistd.h'
p1931
sbsS's3eCompression.h'
p1932
g304
(g1496
g306
Ntp1933
Rp1934
(dp1935
g1500
g1508
sg1501
g1524
sg330
S'c:/marmalade/7.4/s3e/h/s3eCompression.h'
p1936
sbsS'langinfo.h'
p1937
g304
(g1496
g306
Ntp1938
Rp1939
(dp1940
g1500
g1508
sg1501
g1530
sg330
S'c:/marmalade/7.4/s3e/h/std/langinfo.h'
p1941
sbsS's3edebugHeap.h'
p1942
g304
(g1496
g306
Ntp1943
Rp1944
(dp1945
g1500
g1508
sg1501
g1725
sg330
S'c:/marmalade/7.4/s3e/h/ext/s3edebugHeap.h'
p1946
sbsS'AirplayVersion.h'
p1947
g304
(g1496
g306
Ntp1948
Rp1949
(dp1950
g1500
g1508
sg1501
g1524
sg330
S'c:/marmalade/7.4/s3e/h/AirplayVersion.h'
p1951
sbsS'gl2extimg.h'
p1952
g304
(g1496
g306
Ntp1953
Rp1954
(dp1955
g1500
g1508
sg1501
g1762
sg330
S'c:/marmalade/7.4/s3e/h/GLES2/gl2extimg.h'
p1956
sbsS'app.config.txt'
p1957
g304
(g1496
g306
Ntp1958
Rp1959
(dp1960
g1500
(dp1961
sg1501
g4
sg330
S'e:/Documents/Michiel/Programmeren/Marmalade/MVSStage3/data/app.config.txt'
p1962
sbsS'IwGeomSqrt.h'
p1963
g304
(g1496
g306
Ntp1964
Rp1965
(dp1966
g1500
g1215
sg1501
g1562
sg330
g1285
sbsS'tiniconv_int.h'
p1967
g304
(g1496
g306
Ntp1968
Rp1969
(dp1970
g1500
g1077
sg1501
(lp1971
g1073
asg330
g1075
sbsS'syslog.h'
p1972
g304
(g1496
g306
Ntp1973
Rp1974
(dp1975
g1500
g1508
sg1501
g1530
sg330
S'c:/marmalade/7.4/s3e/h/std/syslog.h'
p1976
sbsS'IwGxFontTypes.h'
p1977
g304
(g1496
g306
Ntp1978
Rp1979
(dp1980
g1500
g1193
sg1501
g1502
sg330
g1200
sbsS'IwGeomFIntersect.h'
p1981
g304
(g1496
g306
Ntp1982
Rp1983
(dp1984
g1500
g1215
sg1501
g1562
sg330
g1216
sbsS'hash_map'
p1985
g304
(g1496
g306
Ntp1986
Rp1987
(dp1988
g1500
g1508
sg1501
g1509
sg330
S'c:/marmalade/7.4/s3e/h/std/c++/hash_map'
p1989
sbsS's3e.mkf'
p1990
g304
(g1496
g306
Ntp1991
Rp1992
(dp1993
g1500
(dp1994
sg1501
g1524
sg330
S'c:/marmalade/7.4/s3e/s3e.mkf'
p1995
sbsS'IwGeomMat2D.h.tpl'
p1996
g304
(g1496
g306
Ntp1997
Rp1998
(dp1999
g1500
g1215
sg1501
g1562
sg330
g1218
sbsS's3eOSReadString.h'
p2000
g304
(g1496
g306
Ntp2001
Rp2002
(dp2003
g1500
g1508
sg1501
g1725
sg330
S'c:/marmalade/7.4/s3e/h/ext/s3eOSReadString.h'
p2004
sbsS'IwSound.h'
p2005
g304
(g1496
g306
Ntp2006
Rp2007
(dp2008
g1500
g1087
sg1501
g1548
sg330
g1123
sbsS'map'
p2009
g304
(g1496
g306
Ntp2010
Rp2011
(dp2012
g1500
g1508
sg1501
g1509
sg330
S'c:/marmalade/7.4/s3e/h/std/c++/map'
p2013
sbsS'IwOptimiseSpeed.h'
p2014
g304
(g1496
g306
Ntp2015
Rp2016
(dp2017
g1500
g1379
sg1501
g1537
sg330
g1442
sbsS'ostream'
p2018
g304
(g1496
g306
Ntp2019
Rp2020
(dp2021
g1500
g1508
sg1501
g1509
sg330
S'c:/marmalade/7.4/s3e/h/std/c++/ostream'
p2022
sbsS'msl_string.h'
p2023
g304
(g1496
g306
Ntp2024
Rp2025
(dp2026
g1500
g1508
sg1501
g1509
sg330
S'c:/marmalade/7.4/s3e/h/std/c++/msl_string.h'
p2027
sbsS'select.h'
p2028
g304
(g1496
g306
Ntp2029
Rp2030
(dp2031
g1500
g1508
sg1501
g1656
sg330
S'c:/marmalade/7.4/s3e/h/std/sys/select.h'
p2032
sbsS'zlib.mkf'
p2033
g304
(g1496
g306
Ntp2034
Rp2035
(dp2036
g1500
g1489
sg1501
(lp2037
g1479
asg330
g1487
sbsS'signal.h'
p2038
g304
(g1496
g306
Ntp2039
Rp2040
(dp2041
g1500
g1508
sg1501
g1530
sg330
S'c:/marmalade/7.4/s3e/h/std/signal.h'
p2042
sbsS'sigcontext.h'
p2043
g304
(g1496
g306
Ntp2044
Rp2045
(dp2046
g1500
g1508
sg1501
g1530
sg330
S'c:/marmalade/7.4/s3e/h/std/sigcontext.h'
p2047
sbsS'libpng.mkf'
p2048
g304
(g1496
g306
Ntp2049
Rp2050
(dp2051
g1500
g1037
sg1501
(lp2052
g1026
asg330
g1035
sbsS's3eClipboard.h'
p2053
g304
(g1496
g306
Ntp2054
Rp2055
(dp2056
g1500
g1508
sg1501
g1524
sg330
S'c:/marmalade/7.4/s3e/h/s3eClipboard.h'
p2057
sbsS'IwGxFuncTable.h'
p2058
g304
(g1496
g306
Ntp2059
Rp2060
(dp2061
g1500
g1315
sg1501
g1642
sg330
g1316
sbsS'IwResHandlerGROUP.h'
p2062
g304
(g1496
g306
Ntp2063
Rp2064
(dp2065
g1500
g1291
sg1501
g1770
sg330
g1300
sbsS's3eDebug.h'
p2066
g304
(g1496
g306
Ntp2067
Rp2068
(dp2069
g1500
g1508
sg1501
g1524
sg330
S'c:/marmalade/7.4/s3e/h/s3eDebug.h'
p2070
sbsS'socket.h'
p2071
g304
(g1496
g306
Ntp2072
Rp2073
(dp2074
g1500
g1508
sg1501
g1656
sg330
S'c:/marmalade/7.4/s3e/h/std/sys/socket.h'
p2075
sbsS'glext.h'
p2076
g304
(g1496
g306
Ntp2077
Rp2078
(dp2079
g1500
g1508
sg1501
(lp2080
g1510
aS'GL'
p2081
aS'GLES 1.x'
p2082
asg330
S'c:/marmalade/7.4/s3e/h/GLES/glext.h'
p2083
sbsS'typeinfo.h'
p2084
g304
(g1496
g306
Ntp2085
Rp2086
(dp2087
g1500
g1508
sg1501
g1509
sg330
S'c:/marmalade/7.4/s3e/h/std/c++/typeinfo.h'
p2088
sbsS'typeinfo'
p2089
g304
(g1496
g306
Ntp2090
Rp2091
(dp2092
g1500
g1508
sg1501
g1509
sg330
S'c:/marmalade/7.4/s3e/h/std/c++/typeinfo'
p2093
sbsS'iwsound.config.txt'
p2094
g304
(g1496
g306
Ntp2095
Rp2096
(dp2097
g1500
g1087
sg1501
(lp2098
g1083
ag1096
asg330
g1098
sbsS'fstream.h'
p2099
g304
(g1496
g306
Ntp2100
Rp2101
(dp2102
g1500
g1508
sg1501
g1509
sg330
S'c:/marmalade/7.4/s3e/h/std/c++/fstream.h'
p2103
sbsS's3ePointer.h'
p2104
g304
(g1496
g306
Ntp2105
Rp2106
(dp2107
g1500
g1508
sg1501
g1524
sg330
S'c:/marmalade/7.4/s3e/h/s3ePointer.h'
p2108
sbsS'IwMemBucket.h'
p2109
g304
(g1496
g306
Ntp2110
Rp2111
(dp2112
g1500
g1379
sg1501
g1537
sg330
g1438
sbsS'PVRTexTool.h'
p2113
g304
(g1496
g306
Ntp2114
Rp2115
(dp2116
g1500
g1143
sg1501
(lp2117
g1135
ag1137
asg330
g1149
sbsS's3eGL.h'
p2118
g304
(g1496
g306
Ntp2119
Rp2120
(dp2121
g1500
g1508
sg1501
g1524
sg330
S'c:/marmalade/7.4/s3e/h/s3eGL.h'
p2122
sbsS'IwGeomFVec2.h'
p2123
g304
(g1496
g306
Ntp2124
Rp2125
(dp2126
g1500
g1215
sg1501
g1562
sg330
g1241
sbsS'IwGeomSVec4.h'
p2127
g304
(g1496
g306
Ntp2128
Rp2129
(dp2130
g1500
g1215
sg1501
g1562
sg330
g1239
sbsS'poll.h'
p2131
g304
(g1496
g306
Ntp2132
Rp2133
(dp2134
g1500
g1508
sg1501
g1530
sg330
S'c:/marmalade/7.4/s3e/h/std/poll.h'
p2135
sbsS'IwMatAnim.h'
p2136
g304
(g1496
g306
Ntp2137
Rp2138
(dp2139
g1500
g1315
sg1501
g1642
sg330
g1340
sbsS'IwGeomFVec4.h'
p2140
g304
(g1496
g306
Ntp2141
Rp2142
(dp2143
g1500
g1215
sg1501
g1562
sg330
g1233
sbsS'IwGx.h'
p2144
g304
(g1496
g306
Ntp2145
Rp2146
(dp2147
g1500
g1315
sg1501
g1642
sg330
g1322
sbsS'valarray'
p2148
g304
(g1496
g306
Ntp2149
Rp2150
(dp2151
g1500
g1508
sg1501
g1509
sg330
S'c:/marmalade/7.4/s3e/h/std/c++/valarray'
p2152
sbsS'iosfwd'
p2153
g304
(g1496
g306
Ntp2154
Rp2155
(dp2156
g1500
g1508
sg1501
g1509
sg330
S'c:/marmalade/7.4/s3e/h/std/c++/iosfwd'
p2157
sbsS'gl2.h'
p2158
g304
(g1496
g306
Ntp2159
Rp2160
(dp2161
g1500
g1508
sg1501
g1762
sg330
S'c:/marmalade/7.4/s3e/h/GLES2/gl2.h'
p2162
sbsS'jpegint.h'
p2163
g304
(g1496
g306
Ntp2164
Rp2165
(dp2166
g1500
g1043
sg1501
g1596
sg330
g1066
sbsS'stdiostream.h'
p2167
g304
(g1496
g306
Ntp2168
Rp2169
(dp2170
g1500
g1508
sg1501
g1509
sg330
S'c:/marmalade/7.4/s3e/h/std/c++/stdiostream.h'
p2171
sbsS'mem.h'
p2172
g304
(g1496
g306
Ntp2173
Rp2174
(dp2175
g1500
g1508
sg1501
g1509
sg330
S'c:/marmalade/7.4/s3e/h/std/c++/mem.h'
p2176
sbsS'jerror.h'
p2177
g304
(g1496
g306
Ntp2178
Rp2179
(dp2180
g1500
g1043
sg1501
g1596
sg330
g1041
sbsS'zconf.h'
p2181
g304
(g1496
g306
Ntp2182
Rp2183
(dp2184
g1500
g1484
sg1501
(lp2185
g1479
ag1028
asg330
g1482
sbsS's3e.config.txt'
p2186
g304
(g1496
g306
Ntp2187
Rp2188
(dp2189
g1500
g1508
sg1501
g1524
sg330
S'c:/marmalade/7.4/s3e/s3e.config.txt'
p2190
sbsS'numeric'
p2191
g304
(g1496
g306
Ntp2192
Rp2193
(dp2194
g1500
g1508
sg1501
g1509
sg330
S'c:/marmalade/7.4/s3e/h/std/c++/numeric'
p2195
sbsS'utime.h'
p2196
g304
(g1496
g306
Ntp2197
Rp2198
(dp2199
g1500
g1508
sg1501
g1530
sg330
S'c:/marmalade/7.4/s3e/h/std/utime.h'
p2200
sbsS'jdhuff.h'
p2201
g304
(g1496
g306
Ntp2202
Rp2203
(dp2204
g1500
g1043
sg1501
g1596
sg330
g1064
sbsS'IwResHandlerWAV.cpp'
p2205
g304
(g1496
g306
Ntp2206
Rp2207
(dp2208
g1500
g1087
sg1501
g1548
sg330
g1117
sbsS'IwGxStream.h'
p2209
g304
(g1496
g306
Ntp2210
Rp2211
(dp2212
g1500
g1315
sg1501
g1642
sg330
g1342
sbsS'IwImage.h'
p2213
g304
(g1496
g306
Ntp2214
Rp2215
(dp2216
g1500
g1379
sg1501
g1537
sg330
g1434
sbsS's3eImagePicker.h'
p2217
g304
(g1496
g306
Ntp2218
Rp2219
(dp2220
g1500
g1508
sg1501
g1725
sg330
S'c:/marmalade/7.4/s3e/h/ext/s3eImagePicker.h'
p2221
sbsS'stdlib.h'
p2222
g304
(g1496
g306
Ntp2223
Rp2224
(dp2225
g1500
g1508
sg1501
g1530
sg330
S'c:/marmalade/7.4/s3e/h/std/stdlib.h'
p2226
sbsS'IwCopyingPtr.h'
p2227
g304
(g1496
g306
Ntp2228
Rp2229
(dp2230
g1500
g1379
sg1501
g1537
sg330
g1384
sbsS'iostream'
p2231
g304
(g1496
g306
Ntp2232
Rp2233
(dp2234
g1500
g1508
sg1501
g1509
sg330
S'c:/marmalade/7.4/s3e/h/std/c++/iostream'
p2235
sbsS'png.h'
p2236
g304
(g1496
g306
Ntp2237
Rp2238
(dp2239
g1500
g1032
sg1501
(lp2240
g1026
ag1028
asg330
g1030
sbsS'stddef.h'
p2241
g304
(g1496
g306
Ntp2242
Rp2243
(dp2244
g1500
g1508
sg1501
g1530
sg330
S'c:/marmalade/7.4/s3e/h/std/stddef.h'
p2245
sbsS'setjmp_win32.h'
p2246
g304
(g1496
g306
Ntp2247
Rp2248
(dp2249
g1500
g1508
sg1501
g1530
sg330
S'c:/marmalade/7.4/s3e/h/std/setjmp_win32.h'
p2250
sbsS'IwGxPrint.h'
p2251
g304
(g1496
g306
Ntp2252
Rp2253
(dp2254
g1500
g1315
sg1501
g1642
sg330
g1320
sbsS'iwgx_public.defines.txt'
p2255
g304
(g1496
g306
Ntp2256
Rp2257
(dp2258
g1500
g1315
sg1501
g1642
sg330
g1357
sbsS'streambuf.h'
p2259
g304
(g1496
g306
Ntp2260
Rp2261
(dp2262
g1500
g1508
sg1501
g1509
sg330
S'c:/marmalade/7.4/s3e/h/std/c++/streambuf.h'
p2263
sbsS'IwGeomFPlane.h'
p2264
g304
(g1496
g306
Ntp2265
Rp2266
(dp2267
g1500
g1215
sg1501
g1562
sg330
g1281
sbsS'wchar.h'
p2268
g304
(g1496
g306
Ntp2269
Rp2270
(dp2271
g1500
g1508
sg1501
g1530
sg330
S'c:/marmalade/7.4/s3e/h/std/wchar.h'
p2272
sbsS's3eCameraCapture.h'
p2273
g304
(g1496
g306
Ntp2274
Rp2275
(dp2276
g1500
g1508
sg1501
g1725
sg330
S'c:/marmalade/7.4/s3e/h/ext/s3eCameraCapture.h'
p2277
sbsS'eglext.h'
p2278
g304
(g1496
g306
Ntp2279
Rp2280
(dp2281
g1500
g1508
sg1501
g1855
sg330
S'c:/marmalade/7.4/s3e/h/EGL/eglext.h'
p2282
sbsS'IwResHandlerImage.h'
p2283
g304
(g1496
g306
Ntp2284
Rp2285
(dp2286
g1500
g1291
sg1501
g1770
sg330
g1305
sbsS'strstream.h'
p2287
g304
(g1496
g306
Ntp2288
Rp2289
(dp2290
g1500
g1508
sg1501
g1509
sg330
S'c:/marmalade/7.4/s3e/h/std/c++/strstream.h'
p2291
sbsS'tiniconv.h'
p2292
g304
(g1496
g306
Ntp2293
Rp2294
(dp2295
g1500
g1077
sg1501
g1971
sg330
g1081
sbsS'IwGLExt.h'
p2296
g304
(g1496
g306
Ntp2297
Rp2298
(dp2299
g1500
g1172
sg1501
g1518
sg330
g1175
sbsS'app.icf'
p2300
g304
(g1496
g306
Ntp2301
Rp2302
(dp2303
g1500
(dp2304
sg1501
g4
sg330
S'e:/Documents/Michiel/Programmeren/Marmalade/MVSStage3/data/app.icf'
p2305
sbsS'IwClassFactory.h'
p2306
g304
(g1496
g306
Ntp2307
Rp2308
(dp2309
g1500
g1379
sg1501
g1537
sg330
g1412
sbsS'file.h'
p2310
g304
(g1496
g306
Ntp2311
Rp2312
(dp2313
g1500
g1508
sg1501
g1656
sg330
S'c:/marmalade/7.4/s3e/h/std/sys/file.h'
p2314
sbsS'cstring'
p2315
g304
(g1496
g306
Ntp2316
Rp2317
(dp2318
g1500
g1508
sg1501
g1509
sg330
S'c:/marmalade/7.4/s3e/h/std/c++/cstring'
p2319
sbsS'IwSoundInst.cpp'
p2320
g304
(g1496
g306
Ntp2321
Rp2322
(dp2323
g1500
g1087
sg1501
g1548
sg330
g1129
sbsS'iwutil.config.txt'
p2324
g304
(g1496
g306
Ntp2325
Rp2326
(dp2327
g1500
g1379
sg1501
g1537
sg330
g1446
sbsS's3eSMS.h'
p2328
g304
(g1496
g306
Ntp2329
Rp2330
(dp2331
g1500
g1508
sg1501
g1725
sg330
S'c:/marmalade/7.4/s3e/h/ext/s3eSMS.h'
p2332
sbsS'limits.h'
p2333
g304
(g1496
g306
Ntp2334
Rp2335
(dp2336
g1500
g1508
sg1501
g1530
sg330
S'c:/marmalade/7.4/s3e/h/std/limits.h'
p2337
sbsS'iwgl.config.txt'
p2338
g304
(g1496
g306
Ntp2339
Rp2340
(dp2341
g1500
g1172
sg1501
g1518
sg330
g1170
sbsS'IwMaterial.h'
p2342
g304
(g1496
g306
Ntp2343
Rp2344
(dp2345
g1500
g1315
sg1501
g1642
sg330
g1336
sbsS'PVRTexTool_interface.cpp'
p2346
g304
(g1496
g306
Ntp2347
Rp2348
(dp2349
g1500
g1143
sg1501
(lp2350
g1135
ag1137
ag1139
asg330
g1141
sbsS'IwGxSurface.h'
p2351
g304
(g1496
g306
Ntp2352
Rp2353
(dp2354
g1500
g1315
sg1501
g1642
sg330
g1363
sbsS's3eSocket.h'
p2355
g304
(g1496
g306
Ntp2356
Rp2357
(dp2358
g1500
g1508
sg1501
g1524
sg330
S'c:/marmalade/7.4/s3e/h/s3eSocket.h'
p2359
sbsS'IwAutoFile.h'
p2360
g304
(g1496
g306
Ntp2361
Rp2362
(dp2363
g1500
g1379
sg1501
g1537
sg330
g1465
sbsS's3eVibra.h'
p2364
g304
(g1496
g306
Ntp2365
Rp2366
(dp2367
g1500
g1508
sg1501
g1524
sg330
S'c:/marmalade/7.4/s3e/h/s3eVibra.h'
p2368
sbsS'poll_1.h'
p2369
g304
(g1496
g306
Ntp2370
Rp2371
(dp2372
g1500
g1508
sg1501
g1656
sg330
S'c:/marmalade/7.4/s3e/h/std/sys/poll.h'
p2373
sbsS's3eThread.h'
p2374
g304
(g1496
g306
Ntp2375
Rp2376
(dp2377
g1500
g1508
sg1501
g1524
sg330
S'c:/marmalade/7.4/s3e/h/s3eThread.h'
p2378
sbsS'ucontext.h'
p2379
g304
(g1496
g306
Ntp2380
Rp2381
(dp2382
g1500
g1508
sg1501
g1530
sg330
S'c:/marmalade/7.4/s3e/h/std/ucontext.h'
p2383
sbsS'time.h'
p2384
g304
(g1496
g306
Ntp2385
Rp2386
(dp2387
g1500
g1508
sg1501
g1530
sg330
S'c:/marmalade/7.4/s3e/h/std/time.h'
p2388
sbsS'jchuff.h'
p2389
g304
(g1496
g306
Ntp2390
Rp2391
(dp2392
g1500
g1043
sg1501
g1596
sg330
g1046
sbsS'IwSoundPCM.cpp'
p2393
g304
(g1496
g306
Ntp2394
Rp2395
(dp2396
g1500
g1087
sg1501
g1548
sg330
g1111
sbsS's3eSoundRecord.h'
p2397
g304
(g1496
g306
Ntp2398
Rp2399
(dp2400
g1500
g1508
sg1501
g1524
sg330
S'c:/marmalade/7.4/s3e/h/s3eSoundRecord.h'
p2401
sbsS'IwFibre.h'
p2402
g304
(g1496
g306
Ntp2403
Rp2404
(dp2405
g1500
g1379
sg1501
g1537
sg330
g1454
sbsS's3eVersion.h'
p2406
g304
(g1496
g306
Ntp2407
Rp2408
(dp2409
g1500
g1508
sg1501
g1524
sg330
S'c:/marmalade/7.4/s3e/h/s3eVersion.h'
p2410
sbsS'IwSoundGroup.h'
p2411
g304
(g1496
g306
Ntp2412
Rp2413
(dp2414
g1500
g1087
sg1501
g1548
sg330
g1100
sbsS'IwSoundWAV.h'
p2415
g304
(g1496
g306
Ntp2416
Rp2417
(dp2418
g1500
g1087
sg1501
g1548
sg330
g1088
sbsS'IwGxFontGlyph.h'
p2419
g304
(g1496
g306
Ntp2420
Rp2421
(dp2422
g1500
g1193
sg1501
g1502
sg330
g1194
sbsS's3eTypes.h'
p2423
g304
(g1496
g306
Ntp2424
Rp2425
(dp2426
g1500
g1508
sg1501
g1524
sg330
S'c:/marmalade/7.4/s3e/h/s3eTypes.h'
p2427
sbsS'IwSoundSpec.h'
p2428
g304
(g1496
g306
Ntp2429
Rp2430
(dp2431
g1500
g1087
sg1501
g1548
sg330
g1113
sbsS'signal_2.h'
p2432
g304
(g1496
g306
Ntp2433
Rp2434
(dp2435
g1500
g1508
sg1501
g1509
sg330
S'c:/marmalade/7.4/s3e/h/std/c++/signal.h'
p2436
sbsS'termios.h'
p2437
g304
(g1496
g306
Ntp2438
Rp2439
(dp2440
g1500
g1508
sg1501
g1530
sg330
S'c:/marmalade/7.4/s3e/h/std/termios.h'
p2441
sbsS'iw2dscenegraph.mkf'
p2442
g304
(g1496
g306
Ntp2443
Rp2444
(dp2445
g1500
g1162
sg1501
g1812
sg330
g1160
sbsS'slist'
p2446
g304
(g1496
g306
Ntp2447
Rp2448
(dp2449
g1500
g1508
sg1501
g1509
sg330
S'c:/marmalade/7.4/s3e/h/std/c++/slist'
p2450
sbsS'cstdlib'
p2451
g304
(g1496
g306
Ntp2452
Rp2453
(dp2454
g1500
g1508
sg1501
g1509
sg330
S'c:/marmalade/7.4/s3e/h/std/c++/cstdlib'
p2455
sbsS's3eLocation.h'
p2456
g304
(g1496
g306
Ntp2457
Rp2458
(dp2459
g1500
g1508
sg1501
g1524
sg330
S'c:/marmalade/7.4/s3e/h/s3eLocation.h'
p2460
sbsS'IwMemBucketHelpers.h'
p2461
g304
(g1496
g306
Ntp2462
Rp2463
(dp2464
g1500
g1379
sg1501
g1537
sg330
g1426
sbsS's3eHash.h'
p2465
g304
(g1496
g306
Ntp2466
Rp2467
(dp2468
g1500
g1508
sg1501
g1524
sg330
S'c:/marmalade/7.4/s3e/h/s3eHash.h'
p2469
sbsS'IwSoundGroup.cpp'
p2470
g304
(g1496
g306
Ntp2471
Rp2472
(dp2473
g1500
g1087
sg1501
g1548
sg330
g1107
sbsS'IwGeomFMat.h'
p2474
g304
(g1496
g306
Ntp2475
Rp2476
(dp2477
g1500
g1215
sg1501
g1562
sg330
g1283
sbsS'type_traits.h'
p2478
g304
(g1496
g306
Ntp2479
Rp2480
(dp2481
g1500
g1508
sg1501
g1509
sg330
S'c:/marmalade/7.4/s3e/h/std/c++/type_traits.h'
p2482
sbsS'IwMenu.h'
p2483
g304
(g1496
g306
Ntp2484
Rp2485
(dp2486
g1500
g1379
sg1501
g1537
sg330
g1380
sbsS'IwResHandlerITX.h'
p2487
g304
(g1496
g306
Ntp2488
Rp2489
(dp2490
g1500
g1291
sg1501
g1770
sg330
g1289
sbsS'IwSoundData.h'
p2491
g304
(g1496
g306
Ntp2492
Rp2493
(dp2494
g1500
g1087
sg1501
g1548
sg330
g1127
sbsS'IwArray.h'
p2495
g304
(g1496
g306
Ntp2496
Rp2497
(dp2498
g1500
g1379
sg1501
g1537
sg330
g1444
sbsS'IwUTF8.h'
p2499
g304
(g1496
g306
Ntp2500
Rp2501
(dp2502
g1500
g1379
sg1501
g1537
sg330
g1448
sbsS'math_rvct.h'
p2503
g304
(g1496
g306
Ntp2504
Rp2505
(dp2506
g1500
g1508
sg1501
g1530
sg330
S'c:/marmalade/7.4/s3e/h/std/math_rvct.h'
p2507
sbsS'IwUtil.h'
p2508
g304
(g1496
g306
Ntp2509
Rp2510
(dp2511
g1500
g1379
sg1501
g1537
sg330
g1469
sbsS'IwFColour.h'
p2512
g304
(g1496
g306
Ntp2513
Rp2514
(dp2515
g1500
g1315
sg1501
g1642
sg330
g1326
sbsS'wctype.h'
p2516
g304
(g1496
g306
Ntp2517
Rp2518
(dp2519
g1500
g1508
sg1501
g1530
sg330
S'c:/marmalade/7.4/s3e/h/std/wctype.h'
p2520
sbsS'cstddef'
p2521
g304
(g1496
g306
Ntp2522
Rp2523
(dp2524
g1500
g1508
sg1501
g1509
sg330
S'c:/marmalade/7.4/s3e/h/std/c++/cstddef'
p2525
sbsS'assert.h'
p2526
g304
(g1496
g306
Ntp2527
Rp2528
(dp2529
g1500
g1508
sg1501
g1530
sg330
S'c:/marmalade/7.4/s3e/h/std/assert.h'
p2530
sbsS'mman.h'
p2531
g304
(g1496
g306
Ntp2532
Rp2533
(dp2534
g1500
g1508
sg1501
g1656
sg330
S'c:/marmalade/7.4/s3e/h/std/sys/mman.h'
p2535
sbsS'IwRandom.h'
p2536
g304
(g1496
g306
Ntp2537
Rp2538
(dp2539
g1500
g1379
sg1501
g1537
sg330
g1392
sbsS'libgen.h'
p2540
g304
(g1496
g306
Ntp2541
Rp2542
(dp2543
g1500
g1508
sg1501
g1530
sg330
S'c:/marmalade/7.4/s3e/h/std/libgen.h'
p2544
sbsS'utsname.h'
p2545
g304
(g1496
g306
Ntp2546
Rp2547
(dp2548
g1500
g1508
sg1501
g1656
sg330
S'c:/marmalade/7.4/s3e/h/std/sys/utsname.h'
p2549
sbsS'wait.h'
p2550
g304
(g1496
g306
Ntp2551
Rp2552
(dp2553
g1500
g1508
sg1501
g1656
sg330
S'c:/marmalade/7.4/s3e/h/std/sys/wait.h'
p2554
sbsS'param.h'
p2555
g304
(g1496
g306
Ntp2556
Rp2557
(dp2558
g1500
g1508
sg1501
g1656
sg330
S'c:/marmalade/7.4/s3e/h/std/sys/param.h'
p2559
sbsS'IwDivide.h'
p2560
g304
(g1496
g306
Ntp2561
Rp2562
(dp2563
g1500
g1379
sg1501
g1537
sg330
g1440
sbsS'Iw2DSceneGraphCore.cpp'
p2564
g304
(g1496
g306
Ntp2565
Rp2566
(dp2567
g1500
g1372
sg1501
(lp2568
S"'Marmalade Studio'"
p2569
ag1365
asg330
g1370
sbsS'IwResManager.h'
p2570
g304
(g1496
g306
Ntp2571
Rp2572
(dp2573
g1500
g1291
sg1501
g1770
sg330
g1294
sbsS'IwSoundManager.h'
p2574
g304
(g1496
g306
Ntp2575
Rp2576
(dp2577
g1500
g1087
sg1501
g1548
sg330
g1105
sbsS'cwctype'
p2578
g304
(g1496
g306
Ntp2579
Rp2580
(dp2581
g1500
g1508
sg1501
g1509
sg330
S'c:/marmalade/7.4/s3e/h/std/c++/cwctype'
p2582
sbsS'set'
p2583
g304
(g1496
g306
Ntp2584
Rp2585
(dp2586
g1500
g1508
sg1501
g1509
sg330
S'c:/marmalade/7.4/s3e/h/std/c++/set'
p2587
sbsS'IwGeomSQuat.h'
p2588
g304
(g1496
g306
Ntp2589
Rp2590
(dp2591
g1500
g1215
sg1501
g1562
sg330
g1259
sbsS'locale'
p2592
g304
(g1496
g306
Ntp2593
Rp2594
(dp2595
g1500
g1508
sg1501
g1509
sg330
S'c:/marmalade/7.4/s3e/h/std/c++/locale'
p2596
sbsS'cstdio'
p2597
g304
(g1496
g306
Ntp2598
Rp2599
(dp2600
g1500
g1508
sg1501
g1509
sg330
S'c:/marmalade/7.4/s3e/h/std/c++/cstdio'
p2601
sbsS'cdjpeg.h'
p2602
g304
(g1496
g306
Ntp2603
Rp2604
(dp2605
g1500
g1043
sg1501
g1596
sg330
g1050
sbsS'IwList.h'
p2606
g304
(g1496
g306
Ntp2607
Rp2608
(dp2609
g1500
g1379
sg1501
g1537
sg330
g1408
sbsS'inttypes.h'
p2610
g304
(g1496
g306
Ntp2611
Rp2612
(dp2613
g1500
g1508
sg1501
g1530
sg330
S'c:/marmalade/7.4/s3e/h/std/inttypes.h'
p2614
sbsS'dirent.h'
p2615
g304
(g1496
g306
Ntp2616
Rp2617
(dp2618
g1500
g1508
sg1501
g1530
sg330
S'c:/marmalade/7.4/s3e/h/std/dirent.h'
p2619
sbsS'IwGeomVec3.h'
p2620
g304
(g1496
g306
Ntp2621
Rp2622
(dp2623
g1500
g1215
sg1501
g1562
sg330
g1253
sbsS'transupp.h'
p2624
g304
(g1496
g306
Ntp2625
Rp2626
(dp2627
g1500
g1043
sg1501
g1596
sg330
g1062
sbsS'IwMath.h'
p2628
g304
(g1496
g306
Ntp2629
Rp2630
(dp2631
g1500
g1379
sg1501
g1537
sg330
g1452
sbsS'IwGeomQuat.h'
p2632
g304
(g1496
g306
Ntp2633
Rp2634
(dp2635
g1500
g1215
sg1501
g1562
sg330
g1235
sbsS'glplatform.h'
p2636
g304
(g1496
g306
Ntp2637
Rp2638
(dp2639
g1500
g1508
sg1501
g2080
sg330
S'c:/marmalade/7.4/s3e/h/GLES/glplatform.h'
p2640
sbsS'bitset'
p2641
g304
(g1496
g306
Ntp2642
Rp2643
(dp2644
g1500
g1508
sg1501
g1509
sg330
S'c:/marmalade/7.4/s3e/h/std/c++/bitset'
p2645
sbsS'alloca.h'
p2646
g304
(g1496
g306
Ntp2647
Rp2648
(dp2649
g1500
g1508
sg1501
g1530
sg330
S'c:/marmalade/7.4/s3e/h/std/alloca.h'
p2650
sbsS'IwResHandler.h'
p2651
g304
(g1496
g306
Ntp2652
Rp2653
(dp2654
g1500
g1291
sg1501
g1770
sg330
g1307
sbsS'IwResHandlerMTL.h'
p2655
g304
(g1496
g306
Ntp2656
Rp2657
(dp2658
g1500
g1315
sg1501
g1642
sg330
g1344
sbsS'IwRuntime.h'
p2659
g304
(g1496
g306
Ntp2660
Rp2661
(dp2662
g1500
g1379
sg1501
g1537
sg330
g1424
sbsS'limits'
p2663
g304
(g1496
g306
Ntp2664
Rp2665
(dp2666
g1500
g1508
sg1501
g1509
sg330
S'c:/marmalade/7.4/s3e/h/std/c++/limits'
p2667
sbsS'IwGeomBBox.h'
p2668
g304
(g1496
g306
Ntp2669
Rp2670
(dp2671
g1500
g1215
sg1501
g1562
sg330
g1265
sbsS's3eContacts.h'
p2672
g304
(g1496
g306
Ntp2673
Rp2674
(dp2675
g1500
g1508
sg1501
g1524
sg330
S'c:/marmalade/7.4/s3e/h/s3eContacts.h'
p2676
sbsS's3eLicense.h'
p2677
g304
(g1496
g306
Ntp2678
Rp2679
(dp2680
g1500
g1508
sg1501
g1524
sg330
S'c:/marmalade/7.4/s3e/h/s3eLicense.h'
p2681
sbsS'iwgx.config.txt'
p2682
g304
(g1496
g306
Ntp2683
Rp2684
(dp2685
g1500
g1315
sg1501
g1642
sg330
g1350
sbsS'IwTextParser.h'
p2686
g304
(g1496
g306
Ntp2687
Rp2688
(dp2689
g1500
g1379
sg1501
g1537
sg330
g1377
sbsS's3eTimer.h'
p2690
g304
(g1496
g306
Ntp2691
Rp2692
(dp2693
g1500
g1508
sg1501
g1524
sg330
S'c:/marmalade/7.4/s3e/h/s3eTimer.h'
p2694
sbsS'IwGeomVec.h'
p2695
g304
(g1496
g306
Ntp2696
Rp2697
(dp2698
g1500
g1215
sg1501
g1562
sg330
g1243
sbsS'IwSerialise.h'
p2699
g304
(g1496
g306
Ntp2700
Rp2701
(dp2702
g1500
g1379
sg1501
g1537
sg330
g1410
sbsS'cstdarg'
p2703
g304
(g1496
g306
Ntp2704
Rp2705
(dp2706
g1500
g1508
sg1501
g1509
sg330
S'c:/marmalade/7.4/s3e/h/std/c++/cstdarg'
p2707
sbsS'gl2ext.h'
p2708
g304
(g1496
g306
Ntp2709
Rp2710
(dp2711
g1500
g1508
sg1501
g1762
sg330
S'c:/marmalade/7.4/s3e/h/GLES2/gl2ext.h'
p2712
sbsS'IwChar.h'
p2713
g304
(g1496
g306
Ntp2714
Rp2715
(dp2716
g1500
g1379
sg1501
g1537
sg330
g1430
sbsS's3eSound.h'
p2717
g304
(g1496
g306
Ntp2718
Rp2719
(dp2720
g1500
g1508
sg1501
g1524
sg330
S'c:/marmalade/7.4/s3e/h/s3eSound.h'
p2721
sbsS'IwVariableBitField.h'
p2722
g304
(g1496
g306
Ntp2723
Rp2724
(dp2725
g1500
g1379
sg1501
g1537
sg330
g1475
sbsS'exception.h'
p2726
g304
(g1496
g306
Ntp2727
Rp2728
(dp2729
g1500
g1508
sg1501
g1509
sg330
S'c:/marmalade/7.4/s3e/h/std/c++/exception.h'
p2730
sbsS'iwgeom.config.txt'
p2731
g304
(g1496
g306
Ntp2732
Rp2733
(dp2734
g1500
g1215
sg1501
g1562
sg330
g1213
sbsS'iwgx.mkf'
p2735
g304
(g1496
g306
Ntp2736
Rp2737
(dp2738
g1500
g1356
sg1501
g1642
sg330
g1354
sbsS'gl.h'
p2739
g304
(g1496
g306
Ntp2740
Rp2741
(dp2742
g1500
g1508
sg1501
g2080
sg330
S'c:/marmalade/7.4/s3e/h/GLES/gl.h'
p2743
sbsS'zlib.h'
p2744
g304
(g1496
g306
Ntp2745
Rp2746
(dp2747
g1500
g1484
sg1501
g2185
sg330
g1485
sbsS'temp_defines_release.h'
p2748
g304
(g1496
g306
Ntp2749
Rp2750
(dp2751
g1500
(lp2752
sg1501
(lp2753
S"'generated files'"
p2754
asg330
S'e:/Documents/Michiel/Programmeren/Marmalade/MVSStage3/build_mvsstage3_vc12x/temp_defines_release.h'
p2755
sbsS'iwgl.mkf'
p2756
g304
(g1496
g306
Ntp2757
Rp2758
(dp2759
g1500
g1169
sg1501
g1518
sg330
g1167
sbsS'IwColour.h'
p2760
g304
(g1496
g306
Ntp2761
Rp2762
(dp2763
g1500
g1315
sg1501
g1642
sg330
g1328
sbsS's3eLibrary.h'
p2764
g304
(g1496
g306
Ntp2765
Rp2766
(dp2767
g1500
g1508
sg1501
g1725
sg330
S'c:/marmalade/7.4/s3e/h/ext/s3eLibrary.h'
p2768
sbsS'types.h'
p2769
g304
(g1496
g306
Ntp2770
Rp2771
(dp2772
g1500
g1508
sg1501
g1656
sg330
S'c:/marmalade/7.4/s3e/h/std/sys/types.h'
p2773
sbsS'ifaddrs.h'
p2774
g304
(g1496
g306
Ntp2775
Rp2776
(dp2777
g1500
g1508
sg1501
g1530
sg330
S'c:/marmalade/7.4/s3e/h/std/ifaddrs.h'
p2778
sbsS'strstream'
p2779
g304
(g1496
g306
Ntp2780
Rp2781
(dp2782
g1500
g1508
sg1501
g1509
sg330
S'c:/marmalade/7.4/s3e/h/std/c++/strstream'
p2783
sbsS'exception'
p2784
g304
(g1496
g306
Ntp2785
Rp2786
(dp2787
g1500
g1508
sg1501
g1509
sg330
S'c:/marmalade/7.4/s3e/h/std/c++/exception'
p2788
sbsS'rlocks.h'
p2789
g304
(g1496
g306
Ntp2790
Rp2791
(dp2792
g1500
g1508
sg1501
g1509
sg330
S'c:/marmalade/7.4/s3e/h/std/c++/rlocks.h'
p2793
sbsS'ioctl.h'
p2794
g304
(g1496
g306
Ntp2795
Rp2796
(dp2797
g1500
g1508
sg1501
g1656
sg330
S'c:/marmalade/7.4/s3e/h/std/sys/ioctl.h'
p2798
sbsS'rope'
p2799
g304
(g1496
g306
Ntp2800
Rp2801
(dp2802
g1500
g1508
sg1501
g1509
sg330
S'c:/marmalade/7.4/s3e/h/std/c++/rope'
p2803
sbsS'jinclude.h'
p2804
g304
(g1496
g306
Ntp2805
Rp2806
(dp2807
g1500
g1043
sg1501
g1596
sg330
g1052
sbsS'IwEvent.h'
p2808
g304
(g1496
g306
Ntp2809
Rp2810
(dp2811
g1500
g1379
sg1501
g1537
sg330
g1450
sbsS'IwOptimiseSize.h'
p2812
g304
(g1496
g306
Ntp2813
Rp2814
(dp2815
g1500
g1379
sg1501
g1537
sg330
g1477
sbsS'iwgxfont_public.defines.txt'
p2816
g304
(g1496
g306
Ntp2817
Rp2818
(dp2819
g1500
g1193
sg1501
g1502
sg330
g1191
sbsS'iconv.h'
p2820
g304
(g1496
g306
Ntp2821
Rp2822
(dp2823
g1500
g1508
sg1501
g1530
sg330
S'c:/marmalade/7.4/s3e/h/std/iconv.h'
p2824
sbsS'sendfile.h'
p2825
g304
(g1496
g306
Ntp2826
Rp2827
(dp2828
g1500
g1508
sg1501
g1656
sg330
S'c:/marmalade/7.4/s3e/h/std/sys/sendfile.h'
p2829
sbsS'IwGeomSphere.h'
p2830
g304
(g1496
g306
Ntp2831
Rp2832
(dp2833
g1500
g1215
sg1501
g1562
sg330
g1273
sbsS'tiniconv.mkf'
p2834
g304
(g1496
g306
Ntp2835
Rp2836
(dp2837
g1500
g1080
sg1501
g1971
sg330
g1078
sbsS'iw2dscenegraph.defines.txt'
p2838
g304
(g1496
g306
Ntp2839
Rp2840
(dp2841
g1500
g1157
sg1501
g1812
sg330
g1163
sbsS'jdct.h'
p2842
g304
(g1496
g306
Ntp2843
Rp2844
(dp2845
g1500
g1043
sg1501
g1596
sg330
g1058
sbsS'cctype'
p2846
g304
(g1496
g306
Ntp2847
Rp2848
(dp2849
g1500
g1508
sg1501
g1509
sg330
S'c:/marmalade/7.4/s3e/h/std/c++/cctype'
p2850
sbsS'IwSoundADPCM.cpp'
p2851
g304
(g1496
g306
Ntp2852
Rp2853
(dp2854
g1500
g1087
sg1501
g1548
sg330
g1109
sbsS's3eConfig.h'
p2855
g304
(g1496
g306
Ntp2856
Rp2857
(dp2858
g1500
g1508
sg1501
g1524
sg330
S'c:/marmalade/7.4/s3e/h/s3eConfig.h'
p2859
sbsS'IwHashString.h'
p2860
g304
(g1496
g306
Ntp2861
Rp2862
(dp2863
g1500
g1379
sg1501
g1537
sg330
g1402
sbsS'stat.h'
p2864
g304
(g1496
g306
Ntp2865
Rp2866
(dp2867
g1500
g1508
sg1501
g1656
sg330
S'c:/marmalade/7.4/s3e/h/std/sys/stat.h'
p2868
sbsS'byteswap.h'
p2869
g304
(g1496
g306
Ntp2870
Rp2871
(dp2872
g1500
g1508
sg1501
g1530
sg330
S'c:/marmalade/7.4/s3e/h/std/byteswap.h'
p2873
sbsS'iwresmanager.mkf'
p2874
g304
(g1496
g306
Ntp2875
Rp2876
(dp2877
g1500
g1304
sg1501
g1770
sg330
g1302
sbsS'IwUtilInitTerm.h'
p2878
g304
(g1496
g306
Ntp2879
Rp2880
(dp2881
g1500
g1379
sg1501
g1537
sg330
g1382
sbsS'pthread_1.h'
p2882
g304
(g1496
g306
Ntp2883
Rp2884
(dp2885
g1500
g1508
sg1501
g1509
sg330
S'c:/marmalade/7.4/s3e/h/std/c++/pthread.h'
p2886
sbsS'iw2d.mkf'
p2887
g304
(g1496
g306
Ntp2888
Rp2889
(dp2890
g1500
g1188
sg1501
g1601
sg330
g1186
sbsS'complex'
p2891
g304
(g1496
g306
Ntp2892
Rp2893
(dp2894
g1500
g1508
sg1501
g1509
sg330
S'c:/marmalade/7.4/s3e/h/std/c++/complex'
p2895
sbsS'algorithm'
p2896
g304
(g1496
g306
Ntp2897
Rp2898
(dp2899
g1500
g1508
sg1501
g1509
sg330
S'c:/marmalade/7.4/s3e/h/std/c++/algorithm'
p2900
sbsS's3e.icf'
p2901
g304
(g1496
g306
Ntp2902
Rp2903
(dp2904
g1500
g1508
sg1501
g1524
sg330
S'c:/marmalade/7.4/s3e/s3e.icf'
p2905
sbsS'sem.h'
p2906
g304
(g1496
g306
Ntp2907
Rp2908
(dp2909
g1500
g1508
sg1501
g1656
sg330
S'c:/marmalade/7.4/s3e/h/std/sys/sem.h'
p2910
sbsS'IwGxFontState.h'
p2911
g304
(g1496
g306
Ntp2912
Rp2913
(dp2914
g1500
g1193
sg1501
g1502
sg330
g1204
sbsS'stdio.h'
p2915
g304
(g1496
g306
Ntp2916
Rp2917
(dp2918
g1500
g1508
sg1501
g1530
sg330
S'c:/marmalade/7.4/s3e/h/std/stdio.h'
p2919
sbsS'jmemsys.h'
p2920
g304
(g1496
g306
Ntp2921
Rp2922
(dp2923
g1500
g1043
sg1501
g1596
sg330
g1044
sbsS'ios'
p2924
g304
(g1496
g306
Ntp2925
Rp2926
(dp2927
g1500
g1508
sg1501
g1509
sg330
S'c:/marmalade/7.4/s3e/h/std/c++/ios'
p2928
sbsS'PVRTexTool.defines.txt'
p2929
g304
(g1496
g306
Ntp2930
Rp2931
(dp2932
g1500
g1143
sg1501
g2350
sg330
g1144
sbsS'stack'
p2933
g304
(g1496
g306
Ntp2934
Rp2935
(dp2936
g1500
g1508
sg1501
g1509
sg330
S'c:/marmalade/7.4/s3e/h/std/c++/stack'
p2937
sbsS'IwSoundParams.h'
p2938
g304
(g1496
g306
Ntp2939
Rp2940
(dp2941
g1500
g1087
sg1501
g1548
sg330
g1121
sbsS'new.h'
p2942
g304
(g1496
g306
Ntp2943
Rp2944
(dp2945
g1500
g1508
sg1501
g1509
sg330
S'c:/marmalade/7.4/s3e/h/std/c++/new.h'
p2946
sbsS's3eEMail.h'
p2947
g304
(g1496
g306
Ntp2948
Rp2949
(dp2950
g1500
g1508
sg1501
g1725
sg330
S'c:/marmalade/7.4/s3e/h/ext/s3eEMail.h'
p2951
sbsS's3eVideo.h'
p2952
g304
(g1496
g306
Ntp2953
Rp2954
(dp2955
g1500
g1508
sg1501
g1524
sg330
S'c:/marmalade/7.4/s3e/h/s3eVideo.h'
p2956
sbsS'pngconf.h'
p2957
g304
(g1496
g306
Ntp2958
Rp2959
(dp2960
g1500
g1032
sg1501
g2240
sg330
g1033
sbsS'pwd.h'
p2961
g304
(g1496
g306
Ntp2962
Rp2963
(dp2964
g1500
g1508
sg1501
g1530
sg330
S'c:/marmalade/7.4/s3e/h/std/pwd.h'
p2965
sbsS'IwOptimiseThumb.h'
p2966
g304
(g1496
g306
Ntp2967
Rp2968
(dp2969
g1500
g1379
sg1501
g1537
sg330
g1467
sbsS'gl3.h'
p2970
g304
(g1496
g306
Ntp2971
Rp2972
(dp2973
g1500
g1508
sg1501
g1823
sg330
S'c:/marmalade/7.4/s3e/h/GLES3/gl3.h'
p2974
sbsS'IwClip.h'
p2975
g304
(g1496
g306
Ntp2976
Rp2977
(dp2978
g1500
g1315
sg1501
g1642
sg330
g1332
sbsS'IwSoundInst.h'
p2979
g304
(g1496
g306
Ntp2980
Rp2981
(dp2982
g1500
g1087
sg1501
g1548
sg330
g1085
sbsS'iwresmanager.config.txt'
p2983
g304
(g1496
g306
Ntp2984
Rp2985
(dp2986
g1500
g1291
sg1501
g1770
sg330
g1309
sbsS'IwGxShaderTechnique.h'
p2987
g304
(g1496
g306
Ntp2988
Rp2989
(dp2990
g1500
g1315
sg1501
g1642
sg330
g1359
sbsS'IwCore.h'
p2991
g304
(g1496
g306
Ntp2992
Rp2993
(dp2994
g1500
g1379
sg1501
g1537
sg330
g1396
sbsS'cfloat'
p2995
g304
(g1496
g306
Ntp2996
Rp2997
(dp2998
g1500
g1508
sg1501
g1509
sg330
S'c:/marmalade/7.4/s3e/h/std/c++/cfloat'
p2999
sbsS'IwGeomMat2D.h'
p3000
g304
(g1496
g306
Ntp3001
Rp3002
(dp3003
g1500
g1215
sg1501
g1562
sg330
g1271
sbsS'IwAllocator.h'
p3004
g304
(g1496
g306
Ntp3005
Rp3006
(dp3007
g1500
g1379
sg1501
g1537
sg330
g1416
sbsS'IwPath.h'
p3008
g304
(g1496
g306
Ntp3009
Rp3010
(dp3011
g1500
g1379
sg1501
g1537
sg330
g1471
sbsS'iwgxfont.mkf'
p3012
g304
(g1496
g306
Ntp3013
Rp3014
(dp3015
g1500
g1210
sg1501
g1502
sg330
g1208
sbsS'IwTexture.h'
p3016
g304
(g1496
g306
Ntp3017
Rp3018
(dp3019
g1500
g1315
sg1501
g1642
sg330
g1324
sbsS'IwGeomVec.h.tpl'
p3020
g304
(g1496
g306
Ntp3021
Rp3022
(dp3023
g1500
g1215
sg1501
g1562
sg330
g1223
sbsS's3eAccelerometer.h'
p3024
g304
(g1496
g306
Ntp3025
Rp3026
(dp3027
g1500
g1508
sg1501
g1524
sg330
S'c:/marmalade/7.4/s3e/h/s3eAccelerometer.h'
p3028
sbsS'setjmp.h'
p3029
g304
(g1496
g306
Ntp3030
Rp3031
(dp3032
g1500
g1508
sg1501
g1530
sg330
S'c:/marmalade/7.4/s3e/h/std/setjmp.h'
p3033
sbsS'IwSoundParams.cpp'
p3034
g304
(g1496
g306
Ntp3035
Rp3036
(dp3037
g1500
g1087
sg1501
g1548
sg330
g1090
sbsS'IwFile.h'
p3038
g304
(g1496
g306
Ntp3039
Rp3040
(dp3041
g1500
g1379
sg1501
g1537
sg330
g1422
sbsS'IwTextParseable.h'
p3042
g304
(g1496
g306
Ntp3043
Rp3044
(dp3045
g1500
g1379
sg1501
g1537
sg330
g1420
sbsS'istream.h'
p3046
g304
(g1496
g306
Ntp3047
Rp3048
(dp3049
g1500
g1508
sg1501
g1509
sg330
S'c:/marmalade/7.4/s3e/h/std/c++/istream.h'
p3050
sbsS'stdint.h'
p3051
g304
(g1496
g306
Ntp3052
Rp3053
(dp3054
g1500
g1508
sg1501
g1530
sg330
S'c:/marmalade/7.4/s3e/h/std/stdint.h'
p3055
sbsS'semaphore.h'
p3056
g304
(g1496
g306
Ntp3057
Rp3058
(dp3059
g1500
g1508
sg1501
g1530
sg330
S'c:/marmalade/7.4/s3e/h/std/semaphore.h'
p3060
sbsS'ctime'
p3061
g304
(g1496
g306
Ntp3062
Rp3063
(dp3064
g1500
g1508
sg1501
g1509
sg330
S'c:/marmalade/7.4/s3e/h/std/c++/ctime'
p3065
sbsS'sstream'
p3066
g304
(g1496
g306
Ntp3067
Rp3068
(dp3069
g1500
g1508
sg1501
g1509
sg330
S'c:/marmalade/7.4/s3e/h/std/c++/sstream'
p3070
sbsS'IwGeomFBBox.h'
p3071
g304
(g1496
g306
Ntp3072
Rp3073
(dp3074
g1500
g1215
sg1501
g1562
sg330
g1237
sbsS'IwDebugPrim.h'
p3075
g304
(g1496
g306
Ntp3076
Rp3077
(dp3078
g1500
g1315
sg1501
g1642
sg330
g1313
sbsS'IwGxFontContainer.h'
p3079
g304
(g1496
g306
Ntp3080
Rp3081
(dp3082
g1500
g1193
sg1501
g1502
sg330
g1206
sbsS'IwGeomSVec3.h'
p3083
g304
(g1496
g306
Ntp3084
Rp3085
(dp3086
g1500
g1215
sg1501
g1562
sg330
g1249
sbsS'iw2dscenegraphcore.mkf'
p3087
g304
(g1496
g306
Ntp3088
Rp3089
(dp3090
g1500
g1369
sg1501
g2568
sg330
g1367
sbsS's3eExt.h'
p3091
g304
(g1496
g306
Ntp3092
Rp3093
(dp3094
g1500
g1508
sg1501
g1524
sg330
S'c:/marmalade/7.4/s3e/h/s3eExt.h'
p3095
sbsS'IwGeomFVec3.h'
p3096
g304
(g1496
g306
Ntp3097
Rp3098
(dp3099
g1500
g1215
sg1501
g1562
sg330
g1275
sbsS'streambuf'
p3100
g304
(g1496
g306
Ntp3101
Rp3102
(dp3103
g1500
g1508
sg1501
g1509
sg330
S'c:/marmalade/7.4/s3e/h/std/c++/streambuf'
p3104
sbsS's3eMetrics.h'
p3105
g304
(g1496
g306
Ntp3106
Rp3107
(dp3108
g1500
g1508
sg1501
g1725
sg330
S'c:/marmalade/7.4/s3e/h/ext/s3eMetrics.h'
p3109
sbsS'IwGxFont.h'
p3110
g304
(g1496
g306
Ntp3111
Rp3112
(dp3113
g1500
g1193
sg1501
g1502
sg330
g1198
sbsS's3eSecureStorage.h'
p3114
g304
(g1496
g306
Ntp3115
Rp3116
(dp3117
g1500
g1508
sg1501
g1524
sg330
S'c:/marmalade/7.4/s3e/h/s3eSecureStorage.h'
p3118
sbsS'string.h'
p3119
g304
(g1496
g306
Ntp3120
Rp3121
(dp3122
g1500
g1508
sg1501
g1530
sg330
S'c:/marmalade/7.4/s3e/h/std/string.h'
p3123
sbsS'IwResource.h'
p3124
g304
(g1496
g306
Ntp3125
Rp3126
(dp3127
g1500
g1379
sg1501
g1537
sg330
g1394
sbsS'IwGeomSVec2.h'
p3128
g304
(g1496
g306
Ntp3129
Rp3130
(dp3131
g1500
g1215
sg1501
g1562
sg330
g1269
sbsS'libjpeg.mkf'
p3132
g304
(g1496
g306
Ntp3133
Rp3134
(dp3135
g1500
g1072
sg1501
(lp3136
g1038
asg330
g1070
sbsS'IwGxDebug.h'
p3137
g304
(g1496
g306
Ntp3138
Rp3139
(dp3140
g1500
g1315
sg1501
g1642
sg330
g1338
sbsS'pthread_types.h'
p3141
g304
(g1496
g306
Ntp3142
Rp3143
(dp3144
g1500
g1508
sg1501
g1530
sg330
S'c:/marmalade/7.4/s3e/h/std/pthread_types.h'
p3145
sbsS'iomanip.h'
p3146
g304
(g1496
g306
Ntp3147
Rp3148
(dp3149
g1500
g1508
sg1501
g1509
sg330
S'c:/marmalade/7.4/s3e/h/std/c++/iomanip.h'
p3150
sbsS'IwKeymap.h'
p3151
g304
(g1496
g306
Ntp3152
Rp3153
(dp3154
g1500
g1379
sg1501
g1537
sg330
g1458
sbsS'IwDebug.h'
p3155
g304
(g1496
g306
Ntp3156
Rp3157
(dp3158
g1500
g1379
sg1501
g1537
sg330
g1386
sbsS's3eIOSBackgroundAudio.h'
p3159
g304
(g1496
g306
Ntp3160
Rp3161
(dp3162
g1500
g1508
sg1501
g1725
sg330
S'c:/marmalade/7.4/s3e/h/ext/s3eIOSBackgroundAudio.h'
p3163
sbsS'IwGeomMenu.h'
p3164
g304
(g1496
g306
Ntp3165
Rp3166
(dp3167
g1500
g1215
sg1501
g1562
sg330
g1229
sbsS'IwDivTable.h'
p3168
g304
(g1496
g306
Ntp3169
Rp3170
(dp3171
g1500
g1379
sg1501
g1537
sg330
g1388
sbsS'ctype.h'
p3172
g304
(g1496
g306
Ntp3173
Rp3174
(dp3175
g1500
g1508
sg1501
g1530
sg330
S'c:/marmalade/7.4/s3e/h/std/ctype.h'
p3176
sbsS'IwGeomMat.h'
p3177
g304
(g1496
g306
Ntp3178
Rp3179
(dp3180
g1500
g1215
sg1501
g1562
sg330
g1251
sbsS'IwResGroup.h'
p3181
g304
(g1496
g306
Ntp3182
Rp3183
(dp3184
g1500
g1291
sg1501
g1770
sg330
g1292
sbsS'signal_1.h'
p3185
g304
(g1496
g306
Ntp3186
Rp3187
(dp3188
g1500
g1508
sg1501
g1656
sg330
S'c:/marmalade/7.4/s3e/h/std/sys/signal.h'
p3189
sbsS'IwSoundData.cpp'
p3190
g304
(g1496
g306
Ntp3191
Rp3192
(dp3193
g1500
g1087
sg1501
g1548
sg330
g1115
sbsS'main.cpp'
p3194
g304
(g1496
g306
Ntp3195
Rp3196
(dp3197
g1500
g1492
sg1501
(lp3198
sg330
g1490
sbsS'shm.h'
p3199
g304
(g1496
g306
Ntp3200
Rp3201
(dp3202
g1500
g1508
sg1501
g1656
sg330
S'c:/marmalade/7.4/s3e/h/std/sys/shm.h'
p3203
sbsS'IwManagedList.h'
p3204
g304
(g1496
g306
Ntp3205
Rp3206
(dp3207
g1500
g1379
sg1501
g1537
sg330
g1406
sbsS'prctl.h'
p3208
g304
(g1496
g306
Ntp3209
Rp3210
(dp3211
g1500
g1508
sg1501
g1656
sg330
S'c:/marmalade/7.4/s3e/h/std/sys/prctl.h'
p3212
sbsS'un.h'
p3213
g304
(g1496
g306
Ntp3214
Rp3215
(dp3216
g1500
g1508
sg1501
g1656
sg330
S'c:/marmalade/7.4/s3e/h/std/sys/un.h'
p3217
sbsS'temp_defines_debug.h'
p3218
g304
(g1496
g306
Ntp3219
Rp3220
(dp3221
g1500
(lp3222
sg1501
(lp3223
g2754
asg330
S'e:/Documents/Michiel/Programmeren/Marmalade/MVSStage3/build_mvsstage3_vc12x/temp_defines_debug.h'
p3224
sbsS'utility'
p3225
g304
(g1496
g306
Ntp3226
Rp3227
(dp3228
g1500
g1508
sg1501
g1509
sg330
S'c:/marmalade/7.4/s3e/h/std/c++/utility'
p3229
sbsS'IwGeomLegacy.h'
p3230
g304
(g1496
g306
Ntp3231
Rp3232
(dp3233
g1500
g1215
sg1501
g1562
sg330
g1257
sbsS'IwTPage.h'
p3234
g304
(g1496
g306
Ntp3235
Rp3236
(dp3237
g1500
g1315
sg1501
g1642
sg330
g1334
sbsS'IwResSerialise.h'
p3238
g304
(g1496
g306
Ntp3239
Rp3240
(dp3241
g1500
g1291
sg1501
g1770
sg330
g1298
sbsS's3eCrypto.h'
p3242
g304
(g1496
g306
Ntp3243
Rp3244
(dp3245
g1500
g1508
sg1501
g1524
sg330
S'c:/marmalade/7.4/s3e/h/s3eCrypto.h'
p3246
sbsS's3eKeyboard.h'
p3247
g304
(g1496
g306
Ntp3248
Rp3249
(dp3250
g1500
g1508
sg1501
g1524
sg330
S'c:/marmalade/7.4/s3e/h/s3eKeyboard.h'
p3251
sbsS'fcntl.h'
p3252
g304
(g1496
g306
Ntp3253
Rp3254
(dp3255
g1500
g1508
sg1501
g1530
sg330
S'c:/marmalade/7.4/s3e/h/std/fcntl.h'
p3256
sbsS'Iw2DSceneGraphCore.h'
p3257
g304
(g1496
g306
Ntp3258
Rp3259
(dp3260
g1500
g1372
sg1501
g2568
sg330
g1373
sbsS'memory.h'
p3261
g304
(g1496
g306
Ntp3262
Rp3263
(dp3264
g1500
g1508
sg1501
g1530
sg330
S'c:/marmalade/7.4/s3e/h/std/memory.h'
p3265
sbsS'pthread.h'
p3266
g304
(g1496
g306
Ntp3267
Rp3268
(dp3269
g1500
g1508
sg1501
g1530
sg330
S'c:/marmalade/7.4/s3e/h/std/pthread.h'
p3270
sbsS'IwGeomIntersect.h'
p3271
g304
(g1496
g306
Ntp3272
Rp3273
(dp3274
g1500
g1215
sg1501
g1562
sg330
g1267
sbsS'IwTextParserITX.h'
p3275
g304
(g1496
g306
Ntp3276
Rp3277
(dp3278
g1500
g1379
sg1501
g1537
sg330
g1398
sbsS'egl_1.h'
p3279
g304
(g1496
g306
Ntp3280
Rp3281
(dp3282
g1500
g1508
sg1501
g2080
sg330
S'c:/marmalade/7.4/s3e/h/GLES/egl.h'
p3283
sbsS'Iw2DSceneGraph.cpp'
p3284
g304
(g1496
g306
Ntp3285
Rp3286
(dp3287
g1500
g1157
sg1501
g1812
sg330
g1158
sbsS'ostream.h'
p3288
g304
(g1496
g306
Ntp3289
Rp3290
(dp3291
g1500
g1508
sg1501
g1509
sg330
S'c:/marmalade/7.4/s3e/h/std/c++/ostream.h'
p3292
sbsS'stl_user_config.h'
p3293
g304
(g1496
g306
Ntp3294
Rp3295
(dp3296
g1500
g1508
sg1501
g1509
sg330
S'c:/marmalade/7.4/s3e/h/std/c++/stl_user_config.h'
p3297
sbsS'IwProfileMenu.h'
p3298
g304
(g1496
g306
Ntp3299
Rp3300
(dp3301
g1500
g1379
sg1501
g1537
sg330
g1404
sbsS'MarmaladeVersion.h'
p3302
g304
(g1496
g306
Ntp3303
Rp3304
(dp3305
g1500
g1508
sg1501
g1524
sg330
S'c:/marmalade/7.4/s3e/h/MarmaladeVersion.h'
p3306
sbsS'IwResHandlerWAV.h'
p3307
g304
(g1496
g306
Ntp3308
Rp3309
(dp3310
g1500
g1087
sg1501
g1548
sg330
g1131
sbsS'gl3platform.h'
p3311
g304
(g1496
g306
Ntp3312
Rp3313
(dp3314
g1500
g1508
sg1501
g1823
sg330
S'c:/marmalade/7.4/s3e/h/GLES3/gl3platform.h'
p3315
sbsS'ios.h'
p3316
g304
(g1496
g306
Ntp3317
Rp3318
(dp3319
g1500
g1508
sg1501
g1509
sg330
S'c:/marmalade/7.4/s3e/h/std/c++/ios.h'
p3320
sbsS'IwImageHelper.h'
p3321
g304
(g1496
g306
Ntp3322
Rp3323
(dp3324
g1500
g1379
sg1501
g1537
sg330
g1436
sbsS'hash_set'
p3325
g304
(g1496
g306
Ntp3326
Rp3327
(dp3328
g1500
g1508
sg1501
g1509
sg330
S'c:/marmalade/7.4/s3e/h/std/c++/hash_set'
p3329
sbsS'IwGeomFQuat.h'
p3330
g304
(g1496
g306
Ntp3331
Rp3332
(dp3333
g1500
g1215
sg1501
g1562
sg330
g1227
sbsS'jmorecfg.h'
p3334
g304
(g1496
g306
Ntp3335
Rp3336
(dp3337
g1500
g1043
sg1501
g1596
sg330
g1068
sbsS'eglplatform.h'
p3338
g304
(g1496
g306
Ntp3339
Rp3340
(dp3341
g1500
g1508
sg1501
g1855
sg330
S'c:/marmalade/7.4/s3e/h/EGL/eglplatform.h'
p3342
sbsS'cmath'
p3343
g304
(g1496
g306
Ntp3344
Rp3345
(dp3346
g1500
g1508
sg1501
g1509
sg330
S'c:/marmalade/7.4/s3e/h/std/c++/cmath'
p3347
sbsS'math_gcc.h'
p3348
g304
(g1496
g306
Ntp3349
Rp3350
(dp3351
g1500
g1508
sg1501
g1530
sg330
S'c:/marmalade/7.4/s3e/h/std/math_gcc.h'
p3352
sbsS's3eMemory.h'
p3353
g304
(g1496
g306
Ntp3354
Rp3355
(dp3356
g1500
g1508
sg1501
g1524
sg330
S'c:/marmalade/7.4/s3e/h/s3eMemory.h'
p3357
sbsS'strings.h'
p3358
g304
(g1496
g306
Ntp3359
Rp3360
(dp3361
g1500
g1508
sg1501
g1530
sg330
S'c:/marmalade/7.4/s3e/h/std/strings.h'
p3362
sbsS's3eFile.h'
p3363
g304
(g1496
g306
Ntp3364
Rp3365
(dp3366
g1500
g1508
sg1501
g1524
sg330
S'c:/marmalade/7.4/s3e/h/s3eFile.h'
p3367
sbsS'IwGxTypes.h'
p3368
g304
(g1496
g306
Ntp3369
Rp3370
(dp3371
g1500
g1315
sg1501
g1642
sg330
g1361
sbsS'cerrno'
p3372
g304
(g1496
g306
Ntp3373
Rp3374
(dp3375
g1500
g1508
sg1501
g1509
sg330
S'c:/marmalade/7.4/s3e/h/std/c++/cerrno'
p3376
sbsS'IwSoundManager.cpp'
p3377
g304
(g1496
g306
Ntp3378
Rp3379
(dp3380
g1500
g1087
sg1501
g1548
sg330
g1092
sbsS'soundengine.mkf'
p3381
g304
(g1496
g306
Ntp3382
Rp3383
(dp3384
g1500
g1104
sg1501
g1548
sg330
g1102
sbsS'resource.h'
p3385
g304
(g1496
g306
Ntp3386
Rp3387
(dp3388
g1500
g1508
sg1501
g1656
sg330
S'c:/marmalade/7.4/s3e/h/std/sys/resource.h'
p3389
sbsS'clocale'
p3390
g304
(g1496
g306
Ntp3391
Rp3392
(dp3393
g1500
g1508
sg1501
g1509
sg330
S'c:/marmalade/7.4/s3e/h/std/c++/clocale'
p3394
sbsS'pvrtextool.mkf'
p3395
g304
(g1496
g306
Ntp3396
Rp3397
(dp3398
g1500
g1148
sg1501
g2117
sg330
g1146
sbsS'csetjmp'
p3399
g304
(g1496
g306
Ntp3400
Rp3401
(dp3402
g1500
g1508
sg1501
g1509
sg330
S'c:/marmalade/7.4/s3e/h/std/c++/csetjmp'
p3403
sbsS'netdb.h'
p3404
g304
(g1496
g306
Ntp3405
Rp3406
(dp3407
g1500
g1508
sg1501
g1530
sg330
S'c:/marmalade/7.4/s3e/h/std/netdb.h'
p3408
sbsS's3eAndroidJNI.h'
p3409
g304
(g1496
g306
Ntp3410
Rp3411
(dp3412
g1500
g1508
sg1501
g1725
sg330
S'c:/marmalade/7.4/s3e/h/ext/s3eAndroidJNI.h'
p3413
sbsS'stdexcept'
p3414
g304
(g1496
g306
Ntp3415
Rp3416
(dp3417
g1500
g1508
sg1501
g1509
sg330
S'c:/marmalade/7.4/s3e/h/std/c++/stdexcept'
p3418
sbsS'math.h'
p3419
g304
(g1496
g306
Ntp3420
Rp3421
(dp3422
g1500
g1508
sg1501
g1530
sg330
S'c:/marmalade/7.4/s3e/h/std/math.h'
p3423
sbsS'stdbool.h'
p3424
g304
(g1496
g306
Ntp3425
Rp3426
(dp3427
g1500
g1508
sg1501
g1530
sg330
S'c:/marmalade/7.4/s3e/h/std/stdbool.h'
p3428
sbsS'uio.h'
p3429
g304
(g1496
g306
Ntp3430
Rp3431
(dp3432
g1500
g1508
sg1501
g1656
sg330
S'c:/marmalade/7.4/s3e/h/std/sys/uio.h'
p3433
sbsS'IwUncopyable.h'
p3434
g304
(g1496
g306
Ntp3435
Rp3436
(dp3437
g1500
g1379
sg1501
g1537
sg330
g1428
sbssS'juice_build_type'
p3438
g4
sS'tests'
p3439
(lp3440
sS'project_name'
p3441
g312
sS'root_file'
p3442
g121
sS'current_root'
p3443
S'e:/Documents/Michiel/Programmeren/Marmalade/MVSStage3'
p3444
sS'dependencies'
p3445
(lp3446
sS'include_paths'
p3447
(lp3448
S'c:/marmalade/7.4/modules/iw2d/h'
p3449
aS'c:/marmalade/7.4/modules/iwgx/h'
p3450
aS'c:/marmalade/7.4/modules/iwgl/h'
p3451
aS'c:/marmalade/7.4/modules/iwutil/h'
p3452
aS'c:/marmalade/7.4/modules/third_party/libjpeg/h'
p3453
aS'c:/marmalade/7.4/modules/third_party/zlib/h'
p3454
aS'c:/marmalade/7.4/modules/third_party/libpng/h'
p3455
aS'c:/marmalade/7.4/modules/iwgeom/h'
p3456
aS'c:/marmalade/7.4/modules/iwresmanager/h'
p3457
aS'c:/marmalade/7.4/extensions/pvrtextool/h'
p3458
aS'c:/marmalade/7.4/modules/iwgxfont/h'
p3459
aS'c:/marmalade/7.4/modules/third_party/tiniconv/source'
p3460
aS'c:/marmalade/7.4/modules/iw2dscenegraph/h'
p3461
aS'c:/marmalade/7.4/modules/iw2dscenegraphcore/h'
p3462
aS'c:/marmalade/7.4/examples/gametutorial/cpp/modules/soundengine/h'
p3463
aS'c:/marmalade/7.4/examples/gametutorial/cpp/modules/soundengine/source'
p3464
aS'c:/marmalade/7.4/s3e/h'
p3465
aS'c:/marmalade/7.4/s3e/h/ext'
p3466
aS'c:/marmalade/7.4/s3e/h/std'
p3467
aS'c:/marmalade/7.4/s3e/h/std/c++'
p3468
aS'c:/marmalade/7.4/s3e/h/ext_legacy'
p3469
aS'c:/marmalade/7.4/s3e/h/legacy'
p3470
asS'weak_frameworks'
p3471
(lp3472
sS'extprojects'
p3473
(dp3474
sg568
(dp3475
g562
(lp3476
(S'e:/Documents/Michiel/Programmeren/Marmalade/MVSStage3/data/textures'
p3477
S'textures'
p3478
I0
tp3479
assS'macro_types'
p3480
(dp3481
g503
I1
sg504
I0
sg505
I0
sg506
I0
sg508
I0
sg509
I0
sg510
I0
sg511
I0
sg512
I0
sg514
I0
sg515
I0
sg516
I0
sg517
I0
sg518
I0
sg520
I0
sg522
I0
sg523
I0
sg524
I0
sg525
I0
sg526
I0
sg527
I1
sg528
I0
sg529
I0
sg530
I0
sg531
I0
sg532
I01
sg533
I1
sg534
I0
sg535
I0
sg536
I0
sg537
I0
sg538
I0
sg539
I0
sg540
I0
ssS'commands'
p3482
(lp3483
sg570
(g1019
S'VC12X'
p3484
S'X86ARM'
p3485
tp3486
sS'build_libs'
p3487
(dp3488
sg572
g0
sS'frameworks'
p3489
(lp3490
sS'environ'
p3491
(dp3492
sS'target_name_debug'
p3493
g312
sS'builders'
p3494
(dp3495
g562
(dp3496
S'.S'
p3497
(dp3498
S'rvct'
p3499
(lp3500
S'.obj'
p3501
aS'echo ARM Assembling(RVCT) ${SOURCE}...'
p3502
aS'c:/marmalade/7.4/s3e\\rvct\\bin\\armasm -o ${TARGET} ${SOURCE}'
p3503
asg426
(lp3504
g3501
aS'echo ARM Assembling(GCC) ${SOURCE}...'
p3505
aS'c:/marmalade/7.4/s3e\\gcc\\bin\\arm-none-eabi-gcc -c -o ${TARGET} ${SOURCE}'
p3506
asS'ppu'
p3507
(lp3508
S'.a'
p3509
aS'echo PPU Assembling(SNC) ${SOURCE}...'
p3510
aS'c:/marmalade/7.4/s3e\\rvct\\bin\\armasm -o ${TARGET} ${SOURCE}'
p3511
assS'.s'
p3512
g3498
sS'.vp'
p3513
(lp3514
NaS'"C:/Marmalade/7.4/s3e/python/python.exe" "c:/marmalade/7.4/modules/iwgx/tools/compile_shaders.py" ${SOURCE}'
p3515
asssS'extproject_names'
p3516
(lp3517
sbtp3518
.