((dp0
S'arm_dbg_args'
p1
S'-via:"e:\\Documents\\Michiel\\Programmeren\\Marmalade\\MVSStage3\\build_mvsstage3_vc12x\\MVSStage3_vc12x_arm_debug.via" -qemu'
p2
sS'game-icf'
p3
S''
p4
sS'dist'
p5
NsS'csproj'
p6
g4
sS'module_path_append'
p7
NsS'global_path'
p8
S'e:\\documents\\michiel\\programmeren\\marmalade'
p9
sS'system_path'
p10
S'c:\\marmalade\\7.4\\s3e\\makefile_builder'
p11
sS'android_x86_dbg_args'
p12
S'../../tools/DeployTool/DeployTool.exe --dir "e:\\Documents\\Michiel\\Programmeren\\Marmalade\\MVSStage3\\build_mvsstage3_vc12x"'
p13
sS'no-emit'
p14
NsS'arm-float-abi'
p15
g4
sS'arm_rel_rtsm_args'
p16
S'-via:"e:\\Documents\\Michiel\\Programmeren\\Marmalade\\MVSStage3\\build_mvsstage3_vc12x\\MVSStage3_vc12x_arm_release.via" -qemu'
p17
sS'amd64'
p18
NsS'line-width'
p19
I80
sS'gcc_dbg_args'
p20
S'-via:"e:\\Documents\\Michiel\\Programmeren\\Marmalade\\MVSStage3\\build_mvsstage3_vc12x\\MVSStage3_vc12x_gcc_debug.via" -qemu'
p21
sS'android-x86'
p22
NsS'x86_dbg_exe'
p23
S'c:/marmalade/7.4/s3e\\win32\\s3e_simulator_debug.exe'
p24
sS'disable-runtime-checks'
p25
NsS'release'
p26
NsS'no-make'
p27
NsS'xcode-x86-build-settings'
p28
g4
sS'optimise-size'
p29
NsS'output-name-debug'
p30
g4
sS'arm-fpu'
p31
g4
sS'proj_name'
p32
S'MVSStage3_vc12x'
p33
sS'enable-stdinc'
p34
NsS'compiler'
p35
g4
sS'execute'
p36
NsS'compile-static'
p37
NsS'msvc-project'
p38
I01
sS'buildenv'
p39
S'VC12X'
p40
sS'quick'
p41
NsS'module_path'
p42
(lp43
S'C:/Marmalade/7.4/examples/GameTutorial/CPP/modules'
p44
asS'use-release-std-libs'
p45
NsS'using_perforce'
p46
I00
sS'tizen-x86'
p47
NsS'mips-s3e'
p48
NsS's3e-api-lib-name'
p49
S's3e_api_iwgl'
p50
sS'ios-no-pic'
p51
NsS'shared-arm-lib'
p52
NsS'arm-cpu'
p53
g4
sS'compile-thumb'
p54
NsS'no-ide'
p55
NsS'msvc-version'
p56
S'6.0'
p57
sS'arm'
p58
NsS'builddir'
p59
g4
sS'compile-debug-as-release'
p60
I0
sS'arm-arch'
p61
g4
sS'brief'
p62
NsS'dll'
p63
NsS'buildenv-toolset'
p64
g4
sS'version'
p65
NsS'ccache'
p66
I0
sS'offline'
p67
NsS'ios-version'
p68
g4
sS'hub_data'
p69
g4
sS'fake_vc_call'
p70
I01
sS'jobs'
p71
I0
sS'linkflags'
p72
NsS'debug'
p73
NsS'xcode-build-order'
p74
g4
sS'gcc_rel_rtsm_args'
p75
S'-via:"e:\\Documents\\Michiel\\Programmeren\\Marmalade\\MVSStage3\\build_mvsstage3_vc12x\\MVSStage3_vc12x_gcc_release.via" -qemu'
p76
sS'done_defaults'
p77
I1
sS'path'
p78
NsS's3e-data-dir'
p79
S'e:/Documents/Michiel/Programmeren/Marmalade/MVSStage3\\data'
p80
sS'enable-exceptions'
p81
NsS'osx-dll'
p82
NsS'extension'
p83
g4
sS'no-vc6'
p84
NsS'non-interactive'
p85
NsS'win32-console'
p86
NsS'dist-format'
p87
g4
sS's3e-force-arch'
p88
NsS'dump_defines'
p89
NsS'use_prebuilt'
p90
NsS'gcc-version'
p91
g4
sS'x86_dbg_args'
p92
S'-via:"e:\\Documents\\Michiel\\Programmeren\\Marmalade\\MVSStage3\\build_mvsstage3_vc12x\\MVSStage3_vc12x_debug.via"'
p93
sS'tizen_x86_dbg_args'
p94
g13
sS'arm-debugger'
p95
g4
sS'use_temp_extension'
p96
NsS'verbose'
p97
I0
sS'log'
p98
NsS'no-strip'
p99
NsS'rebuild'
p100
NsS'win32-simulator-dll'
p101
NsS'strict'
p102
NsS'mips_dbg_args'
p103
g13
sS'enable-global-path'
p104
NsS'cflags'
p105
NsS'dist-dir'
p106
g4
sS'xcode-arm-build-settings'
p107
g4
sS'jflags'
p108
NsS'csprojSDKRefs'
p109
g4
sS'tizen_x86_rel_exe'
p110
S'c:\\marmalade\\7.4\\s3e\\makefile_builder\\tool_launcher.exe'
p111
sS'test-assets'
p112
g4
sS'distcc'
p113
NsS'external-compiler'
p114
NsS'no-distcc'
p115
NsS'preinclude'
p116
NsS'using_sdk'
p117
I01
sS'nologo'
p118
NsS'warn-level'
p119
I2
sS'mips_dbg_exe'
p120
g111
sS'mkb_in'
p121
S'e:/Documents/Michiel/Programmeren/Marmalade/MVSStage3/MVSStage3.mkb'
p122
sS'tizen_x86_dbg_exe'
p123
g111
sS'arm_dbg_exe'
p124
S'c:/marmalade/7.4/s3e\\bin\\armdebug.exe'
p125
sS'csprojDLLRef'
p126
NsS'tizen_x86_rel_args'
p127
g13
sS'android_x86_dbg_exe'
p128
g111
sS'test-config'
p129
g4
sS'list-targets'
p130
NsS'arm_rel_exe'
p131
g111
sS'arm_rel_args'
p132
g13
sS'makedeps'
p133
NsS'android_x86_rel_exe'
p134
g111
sS'default-buildenv'
p135
S'vc12x'
p136
sS'x86_rel_exe'
p137
g24
sS'preprocess-java'
p138
NsS'mips_rel_args'
p139
g13
sS'defines'
p140
NsS'lib'
p141
NsS'global_argv'
p142
(lp143
S'C:\\Marmalade\\7.4\\s3e\\makefile_builder\\mkb.py'
p144
aS'e:/Documents/Michiel/Programmeren/Marmalade/MVSStage3/MVSStage3.mkb'
p145
aS'--buildenv=VC12X'
p146
aS'--fake-vc-call'
p147
aS'--default-buildenv=vc12x'
p148
aS'--msvc-project'
p149
asS'make'
p150
NsS'optimise-speed'
p151
NsS'internal'
p152
NsS'rvct-version'
p153
g4
sS'deploy-only'
p154
NsS'x86'
p155
NsS'deploy'
p156
g4
sS'x86_run_exe'
p157
S'c:/marmalade/7.4/s3e\\win32\\s3e_console.exe'
p158
sS'x86_rel_args'
p159
S'-via:"e:\\Documents\\Michiel\\Programmeren\\Marmalade\\MVSStage3\\build_mvsstage3_vc12x\\MVSStage3_vc12x_release.via"'
p160
sS'gcc_rel_args'
p161
g13
sS'mips'
p162
NsS'xcode-build-settings'
p163
g4
sS'incredibuild'
p164
NsS'strict-compile'
p165
NsS'use-auto-subdirs'
p166
NsS'mips_rel_exe'
p167
g111
sS'android_x86_rel_args'
p168
g13
sS'app-icf'
p169
g4
sS'deployargs'
p170
NsS'iosnativedebug'
p171
NsS'mkf_in'
p172
(lp173
S'c:\\marmalade\\7.4\\modules\\iw2d\\iw2d.mkf'
p174
aS'c:\\marmalade\\7.4\\modules\\iwgx\\iwgx.mkf'
p175
aS'c:\\marmalade\\7.4\\modules\\iwgl\\iwgl.mkf'
p176
aS'c:\\marmalade\\7.4\\modules\\iwutil\\iwutil.mkf'
p177
aS'c:\\marmalade\\7.4\\modules\\third_party\\libjpeg\\libjpeg.mkf'
p178
aS'c:\\marmalade\\7.4\\modules\\third_party\\libpng\\libpng.mkf'
p179
aS'c:\\marmalade\\7.4\\modules\\third_party\\zlib\\zlib.mkf'
p180
aS'c:\\marmalade\\7.4\\modules\\iwgeom\\iwgeom.mkf'
p181
aS'c:\\marmalade\\7.4\\modules\\iwresmanager\\iwresmanager.mkf'
p182
aS'c:\\marmalade\\7.4\\extensions\\pvrtextool\\pvrtextool.mkf'
p183
aS'c:\\marmalade\\7.4\\modules\\iwgxfont\\iwgxfont.mkf'
p184
aS'c:\\marmalade\\7.4\\modules\\third_party\\tiniconv\\tiniconv.mkf'
p185
aS'c:\\marmalade\\7.4\\modules\\iw2dscenegraph\\iw2dscenegraph.mkf'
p186
aS'c:\\marmalade\\7.4\\modules\\iw2dscenegraphcore\\iw2dscenegraphcore.mkf'
p187
aS'c:\\marmalade\\7.4\\examples\\gametutorial\\cpp\\modules\\soundengine\\soundengine.mkf'
p188
asS'strict-mkb'
p189
NsS'executeargs'
p190
NsS'clean'
p191
NsS'no-asm'
p192
NsS'output-name'
p193
g4
sS'no-modules'
p194
NsS'find_define'
p195
g4
s(dp196
S'c:\\marmalade\\7.4\\s3e\\makefile_builder\\plugins\\Emitter.pyc'
p197
F1411758008.0
sS'c:\\marmalade\\7.4\\s3e\\makefile_builder\\templates\\ws8_ext_sln.pyc'
p198
F1411758010.0
sS'c:\\marmalade\\7.4\\s3e\\makefile_builder\\templates\\MainWindow.xib'
p199
F1411756764.0
sS'c:\\marmalade\\7.4\\s3e\\makefile_builder\\templates\\template.suo'
p200
F1411756764.0
sS'c:\\marmalade\\7.4\\s3e\\makefile_builder\\plugins\\xcode4_schememanagement.py'
p201
F1411756764.0
sS'c:\\marmalade\\7.4\\s3e\\makefile_builder\\templates\\ws81_sln.pyc'
p202
F1411758010.0
sS'c:\\marmalade\\7.4\\s3e\\makefile_builder\\templates\\win8_ext_csproj.pyc'
p203
F1411758010.0
sS'c:\\marmalade\\7.4\\s3e\\makefile_builder\\mkb_option.pyc'
p204
F1411758008.0
sS'c:\\marmalade\\7.4\\s3e\\makefile_builder\\plugins\\s3e_xcode.py'
p205
F1411756764.0
sS'c:\\marmalade\\7.4\\s3e\\makefile_builder\\plugins\\s3e_scons.pyc'
p206
F1411758008.0
sS'c:\\marmalade\\7.4\\s3e\\makefile_builder\\templates\\win8_vcxproj.pyc'
p207
F1411758010.0
sS'c:\\marmalade\\7.4\\s3e\\makefile_builder\\plugins\\null.pyc'
p208
F1411758008.0
sS'c:\\marmalade\\7.4\\s3e\\makefile_builder\\templates\\vc8_user.pyc'
p209
F1411758010.0
sS'c:\\marmalade\\7.4\\s3e\\makefile_builder\\templates\\wp81_ext_sln.pyc'
p210
F1411758010.0
sS'c:\\marmalade\\7.4\\s3e\\makefile_builder\\templates\\scons.pyc'
p211
F1411758010.0
sS'c:\\marmalade\\7.4\\s3e\\makefile_builder\\templates\\wp8_ext_csproj.pyc'
p212
F1411758010.0
sS'c:\\marmalade\\7.4\\s3e\\makefile_builder\\templates\\xcode_pbxuser.py'
p213
F1411756766.0
sS'c:\\marmalade\\7.4\\s3e\\makefile_builder\\plugins\\s3e_qmake.py'
p214
F1411756764.0
sS'c:\\marmalade\\7.4\\s3e\\makefile_builder\\plugins\\iphone.pyc'
p215
F1411758010.0
sS'c:\\marmalade\\7.4\\s3e\\makefile_builder\\templates\\ws81_ext_csproj.pyc'
p216
F1411758010.0
sS'c:\\marmalade\\7.4\\s3e\\makefile_builder\\templates\\vc6_opt.pyc'
p217
F1411758010.0
sS'c:\\marmalade\\7.4\\s3e\\makefile_builder\\plugins\\s3e_win8.pyc'
p218
F1411758010.0
sS'c:\\marmalade\\7.4\\s3e\\makefile_builder\\mkb_main.pyc'
p219
F1411758008.0
sS'c:\\marmalade\\7.4\\s3e\\makefile_builder\\templates\\wp8_csproj.pyc'
p220
F1411758010.0
sS'c:\\marmalade\\7.4\\s3e\\makefile_builder\\templates\\win32_vcproj.pyc'
p221
F1411758010.0
sS'c:\\marmalade\\7.4\\s3e\\makefile_builder\\templates\\win8_sln.pyc'
p222
F1411758010.0
sS'c:\\marmalade\\7.4\\s3e\\makefile_builder\\mkb_launcher.exe'
p223
F1411757118.0
sS'c:\\marmalade\\7.4\\s3e\\makefile_builder\\plugins\\osx_xcode.pyc'
p224
F1411758010.0
sS'c:\\marmalade\\7.4\\s3e\\makefile_builder\\plugins'
p225
F1411803920.271899
sS'c:\\marmalade\\7.4\\s3e\\makefile_builder\\templates\\wp8_csproj_user.pyc'
p226
F1411758010.0
sS'c:\\marmalade\\7.4\\s3e\\makefile_builder\\plugins\\win32_vc6.pyc'
p227
F1411758010.0
sS'c:\\marmalade\\7.4\\s3e\\makefile_builder\\plugins\\s3e_vc6.pyc'
p228
F1411758008.0
sS'c:\\marmalade\\7.4\\s3e\\makefile_builder\\templates\\vc10_user.pyc'
p229
F1411758010.0
sS'c:\\marmalade\\7.4\\s3e\\makefile_builder\\docs\\deprecated.defines.txt'
p230
F1411756764.0
sS'c:\\marmalade\\7.4\\s3e\\makefile_builder\\templates\\wp81_csproj_user.pyc'
p231
F1411758010.0
sS'c:\\marmalade\\7.4\\s3e\\makefile_builder\\templates\\ws81_ext_sln.pyc'
p232
F1411758010.0
sS'c:\\marmalade\\7.4\\s3e\\makefile_builder\\templates\\make.py'
p233
F1411756764.0
sS'c:\\marmalade\\7.4\\s3e\\makefile_builder\\plugins\\wp81_wp81.pyc'
p234
F1411758010.0
sS'c:\\marmalade\\7.4\\s3e\\makefile_builder\\plugins\\s3e_qmake.pyc'
p235
F1411803920.1701696
sS'c:\\marmalade\\7.4\\s3e\\makefile_builder\\templates\\mips_linker_script'
p236
F1411756764.0
sS'c:\\marmalade\\7.4\\s3e\\makefile_builder\\plugins\\deploy.pyc'
p237
F1411758008.0
sS'c:\\marmalade\\7.4\\s3e\\makefile_builder\\plugins\\ws81_ws81.pyc'
p238
F1411758010.0
sS'c:\\marmalade\\7.4\\s3e\\makefile_builder\\mkb.py'
p239
F1411756764.0
sS'c:\\marmalade\\7.4\\s3e\\makefile_builder\\docs\\options.txt'
p240
F1411756764.0
sS'c:\\marmalade\\7.4\\s3e\\makefile_builder\\mkb_parser.pyc'
p241
F1411758008.0
sS'c:\\marmalade\\7.4\\s3e\\makefile_builder\\templates\\qmake_user.py'
p242
F1411756764.0
sS'c:\\marmalade\\7.4\\s3e\\makefile_builder\\docs\\mkb.defines.txt'
p243
F1411756764.0
sS'c:\\marmalade\\7.4\\s3e\\makefile_builder\\deployment.pyc'
p244
F1411758008.0
sS'c:\\marmalade\\7.4\\s3e\\makefile_builder\\plugins\\wp8_wp8.pyc'
p245
F1411758010.0
sS'c:\\marmalade\\7.4\\s3e\\makefile_builder\\plugins\\linux_scons.pyc'
p246
F1411758010.0
sS'c:\\marmalade\\7.4\\s3e\\makefile_builder\\plugins\\s3e_web.pyc'
p247
F1411758008.0
sS'c:\\marmalade\\7.4\\s3e\\makefile_builder\\plugins\\S3EEmitter.pyc'
p248
F1411758008.0
sS'c:\\marmalade\\7.4\\s3e\\makefile_builder\\plugins\\Win8Emitter.pyc'
p249
F1411758010.0
sS'c:\\marmalade\\7.4\\s3e\\makefile_builder\\templates\\xcode4_arm.xcscheme'
p250
F1411756766.0
sS'c:\\marmalade\\7.4\\s3e\\makefile_builder\\plugins\\vc6_utils.pyc'
p251
F1411758010.0
sS'c:\\marmalade\\7.4\\s3e\\makefile_builder\\templates\\wp8_vcxproj.pyc'
p252
F1411758010.0
sS'c:\\marmalade\\7.4\\s3e\\makefile_builder\\templates\\xcode4.xcscheme'
p253
F1411756766.0
sS'c:\\marmalade\\7.4\\s3e\\makefile_builder\\plugins\\MakeEmitter.pyc'
p254
F1411758008.0
sS'c:\\marmalade\\7.4\\s3e\\makefile_builder\\plugins\\java.pyc'
p255
F1411758010.0
sS'c:\\marmalade\\7.4\\s3e\\makefile_builder\\plugins\\XcodeEmitter.pyc'
p256
F1411803919.9116752
sS'c:\\marmalade\\7.4\\s3e\\makefile_builder\\plugins\\XcodeEmitter.py'
p257
F1411756764.0
sS'c:\\marmalade\\7.4\\s3e\\makefile_builder\\mkb_globals.pyc'
p258
F1411758008.0
sS'c:\\marmalade\\7.4\\s3e\\makefile_builder\\tool_launcher.exe'
p259
F1411757118.0
sS'c:\\marmalade\\7.4\\s3e\\makefile_builder\\mkb_util.pyc'
p260
F1411758008.0
sS'c:\\marmalade\\7.4\\s3e\\makefile_builder\\plugins\\xcode4_schememanagement.pyc'
p261
F1411803919.9427035
sS'c:\\marmalade\\7.4\\s3e\\makefile_builder\\templates\\ws8_sln.pyc'
p262
F1411758010.0
sS'c:\\marmalade\\7.4\\s3e\\makefile_builder\\templates\\win32_sln.pyc'
p263
F1411758010.0
sS'c:\\marmalade\\7.4\\s3e\\makefile_builder\\templates\\wp81_ext_csproj.pyc'
p264
F1411758010.0
sS'c:\\marmalade\\7.4\\s3e\\makefile_builder\\plugins\\s3e_wp81.pyc'
p265
F1411758010.0
sS'c:\\marmalade\\7.4\\s3e\\makefile_builder\\plugins\\s3e_wp8.pyc'
p266
F1411758010.0
sS'c:\\marmalade\\7.4\\s3e\\makefile_builder\\templates\\qmake.py'
p267
F1411756764.0
sS'c:\\marmalade\\7.4\\s3e\\makefile_builder\\templates\\gdb_start.txt'
p268
F1411756764.0
sS'c:\\marmalade\\7.4\\s3e\\makefile_builder\\templates'
p269
F1411803678.9534326
sS'c:\\marmalade\\7.4\\s3e\\makefile_builder\\templates\\ws8_ext_csproj.pyc'
p270
F1411758010.0
sS'c:\\marmalade\\7.4\\s3e\\makefile_builder\\templates\\win8_csproj_user.pyc'
p271
F1411758010.0
sS'c:\\marmalade\\7.4\\s3e\\makefile_builder\\templates\\vc7_suo.pyc'
p272
F1411758010.0
sS'c:\\marmalade\\7.4\\s3e\\makefile_builder\\plugins\\VisualStudioEmitter.pyc'
p273
F1411758010.0
sS'c:\\marmalade\\7.4\\s3e\\makefile_builder\\templates\\linker_script'
p274
F1411756764.0
sS'c:\\marmalade\\7.4\\s3e\\makefile_builder\\docs\\deprecated.options.txt'
p275
F1411756764.0
sS'c:\\marmalade\\7.4\\s3e\\makefile_builder\\plugins\\s3e_xcode.pyc'
p276
F1411803920.2749066
sS'c:\\marmalade\\7.4\\s3e\\makefile_builder\\plugins\\s3e_ws8.pyc'
p277
F1411758010.0
sS'c:\\marmalade\\7.4\\s3e\\makefile_builder\\templates\\xcode4_DeployTool.xcscheme'
p278
F1411756766.0
sS'c:\\marmalade\\7.4\\s3e\\makefile_builder\\templates\\ws8_csproj_user.pyc'
p279
F1411758010.0
sS'c:\\marmalade\\7.4\\s3e\\makefile_builder\\plugins\\osx_scons.pyc'
p280
F1411758010.0
sS'c:\\marmalade\\7.4\\s3e\\makefile_builder\\templates\\ws81_csproj.pyc'
p281
F1411758010.0
sS'c:\\marmalade\\7.4\\s3e\\makefile_builder\\templates\\wp8_sln.pyc'
p282
F1411758010.0
sS'c:\\marmalade\\7.4\\s3e\\makefile_builder\\docs'
p283
F1411803679.0535107
sS'c:\\marmalade\\7.4\\s3e\\makefile_builder\\plugins\\ws8_ws8.pyc'
p284
F1411758010.0
sS'c:\\marmalade\\7.4\\s3e\\makefile_builder\\docs\\deployment_options.txt'
p285
F1411756764.0
sS'c:\\marmalade\\7.4\\s3e\\makefile_builder\\templates\\win32_vcxproj_filters.pyc'
p286
F1411758010.0
sS'c:\\marmalade\\7.4\\s3e\\makefile_builder\\templates\\win32_dsw.pyc'
p287
F1411758010.0
sS'c:\\marmalade\\7.4\\s3e\\makefile_builder\\plugins\\s3e_ws81.pyc'
p288
F1411758010.0
sS'c:\\marmalade\\7.4\\s3e\\makefile_builder\\plugins\\SConsEmitter.pyc'
p289
F1411758010.0
sS'c:\\marmalade\\7.4\\s3e\\makefile_builder\\templates\\wp81_vcxproj.pyc'
p290
F1411758010.0
sS'c:\\marmalade\\7.4\\s3e\\makefile_builder\\plugins\\win8_utils.pyc'
p291
F1411758010.0
sS'c:\\marmalade\\7.4\\s3e\\makefile_builder\\templates\\template.opt'
p292
F1411756764.0
sS'c:\\marmalade\\7.4\\s3e\\makefile_builder\\plugins\\vc7_utils.pyc'
p293
F1411758010.0
sS'c:\\marmalade\\7.4\\s3e\\makefile_builder\\templates\\win32_dsp.pyc'
p294
F1411758010.0
sS'c:\\marmalade\\7.4\\s3e\\makefile_builder\\plugins\\s3e_make.pyc'
p295
F1411758008.0
sS'c:\\marmalade\\7.4\\s3e\\makefile_builder\\templates\\rvct_linker_script'
p296
F1411756764.0
sS'c:\\marmalade\\7.4\\s3e\\makefile_builder\\templates\\win8_csproj.pyc'
p297
F1411758010.0
sS'c:\\marmalade\\7.4\\s3e\\makefile_builder\\templates\\xcode.py'
p298
F1411756766.0
sS'c:\\marmalade\\7.4\\s3e\\makefile_builder\\templates\\ws8_vcxproj.pyc'
p299
F1411758010.0
sS'c:\\marmalade\\7.4\\s3e\\makefile_builder\\templates\\wp81_csproj.pyc'
p300
F1411758010.0
sS'c:\\marmalade\\7.4\\s3e\\makefile_builder\\mkb_upstream.pyc'
p301
F1411758008.0
sS'c:\\marmalade\\7.4\\s3e\\makefile_builder\\templates\\win32_vcxproj.pyc'
p302
F1411758010.0
sS'c:\\marmalade\\7.4\\s3e\\makefile_builder\\templates\\ws8_csproj.pyc'
p303
F1411758010.0
sS'c:\\marmalade\\7.4\\s3e\\makefile_builder\\docs\\parse_options.pyc'
p304
F1411758012.0
sS'c:\\marmalade\\7.4\\s3e\\makefile_builder\\templates\\Info.plist'
p305
F1411756764.0
sS'c:\\marmalade\\7.4\\s3e\\makefile_builder\\templates\\wp81_sln.pyc'
p306
F1411758010.0
sS'c:\\marmalade\\7.4\\s3e\\makefile_builder\\templates\\ws81_csproj_user.pyc'
p307
F1411758010.0
sS'c:\\marmalade\\7.4\\s3e\\makefile_builder\\templates\\ws81_vcxproj.pyc'
p308
F1411758010.0
sccopy_reg
_reconstructor
p309
(cmkb_main
MkbFile
p310
c__builtin__
object
p311
Ntp312
Rp313
(dp314
g5
(lp315
sS'target_name'
p316
S'MVSStage3'
p317
sS'current_file'
p318
g122
sS'package_path'
p319
(lp320
sS'post_build'
p321
(lp322
(lp323
S'c:/marmalade/7.4/s3e/tools'
p324
aS'C:\\Marmalade\\7.4\\s3e\\python\\python.exe .\\process_map.py "$(TargetPath)"'
p325
aa(S'c:\\marmalade\\7.4\\s3e\\bin'
p326
S'"s3e_plink" -l "$(TargetPath)" '
p327
g155
tp328
asS'librarys'
p329
(lp330
g309
(cmkb_main
Library
p331
g311
Ntp332
Rp333
(dp334
S'name'
p335
S'vc6_compat.lib'
p336
sS'expand_name'
p337
I00
sS'include_spec_rvct_objs'
p338
(lp339
sS'include_all_objs'
p340
I00
sS'share_arm'
p341
I00
sS'arch'
p342
S'x86'
p343
sS'nodebug'
p344
I00
sg35
Nsbag309
(g331
g311
Ntp345
Rp346
(dp347
g335
S'iw2d'
p348
sg337
I01
sg338
(lp349
sg340
Nsg341
Nsg342
Nsg344
I00
sg35
Nsbag309
(g331
g311
Ntp350
Rp351
(dp352
g335
S'ATI_Compress_MT_VC7.lib'
p353
sg337
I00
sg338
g349
sg340
Nsg341
Nsg342
S'x86'
p354
sg344
I00
sg35
Nsbag309
(g331
g311
Ntp355
Rp356
(dp357
g335
S'iwgx'
p358
sg337
I01
sg338
g349
sg340
Nsg341
Nsg342
Nsg344
I00
sg35
Nsbag309
(g331
g311
Ntp359
Rp360
(dp361
g335
S'iwgl'
p362
sg337
I01
sg338
g349
sg340
Nsg341
Nsg342
Nsg344
I00
sg35
Nsbag309
(g331
g311
Ntp363
Rp364
(dp365
g335
S'iwutil'
p366
sg337
I01
sg338
g349
sg340
Nsg341
Nsg342
Nsg344
I00
sg35
Nsbag309
(g331
g311
Ntp367
Rp368
(dp369
g335
S'jpeg'
p370
sg337
I01
sg338
g349
sg340
Nsg341
Nsg342
Nsg344
I00
sg35
Nsbag309
(g331
g311
Ntp371
Rp372
(dp373
g335
S'z'
p374
sg337
I01
sg338
g349
sg340
Nsg341
Nsg342
Nsg344
I00
sg35
Nsbag309
(g331
g311
Ntp375
Rp376
(dp377
g335
S'png'
p378
sg337
I01
sg338
g349
sg340
Nsg341
Nsg342
Nsg344
I00
sg35
Nsbag309
(g331
g311
Ntp379
Rp380
(dp381
g335
S'iwgeom'
p382
sg337
I01
sg338
g349
sg340
Nsg341
Nsg342
Nsg344
I00
sg35
Nsbag309
(g331
g311
Ntp383
Rp384
(dp385
g335
S'iwresmanager'
p386
sg337
I01
sg338
g349
sg340
Nsg341
Nsg342
Nsg344
I00
sg35
Nsbag309
(g331
g311
Ntp387
Rp388
(dp389
g335
S'iwgxfont'
p390
sg337
I01
sg338
g349
sg340
Nsg341
Nsg342
Nsg344
I00
sg35
Nsbag309
(g331
g311
Ntp391
Rp392
(dp393
g335
S'tiniconv'
p394
sg337
I01
sg338
g349
sg340
Nsg341
Nsg342
Nsg344
I00
sg35
Nsbag309
(g331
g311
Ntp395
Rp396
(dp397
g335
S's3e_cpp'
p398
sg337
I01
sg338
g339
sg340
I00
sg341
I00
sg342
Nsg344
I00
sg35
Nsbag309
(g331
g311
Ntp399
Rp400
(dp401
g335
S's3e'
p402
sg337
I01
sg338
(lp403
S'iwcrt.o'
p404
asg340
I00
sg341
I00
sg342
Nsg344
I00
sg35
Nsbag309
(g331
g311
Ntp405
Rp406
(dp407
g335
g50
sg337
I01
sg338
g339
sg340
I00
sg341
I00
sg342
S'x86'
p408
sg344
I01
sg35
Nsbag309
(g331
g311
Ntp409
Rp410
(dp411
g335
g50
sg337
I01
sg338
g339
sg340
I00
sg341
I00
sg342
S'!x86'
p412
sg344
I01
sg35
Nsbag309
(g331
g311
Ntp413
Rp414
(dp415
g335
S'stdc++'
p416
sg337
I00
sg338
g339
sg340
I00
sg341
I00
sg342
S'mips'
p417
sg344
I00
sg35
Nsbag309
(g331
g311
Ntp418
Rp419
(dp420
g335
S'c'
p421
sg337
I00
sg338
g339
sg340
I00
sg341
I00
sg342
S'mips'
p422
sg344
I00
sg35
Nsbag309
(g331
g311
Ntp423
Rp424
(dp425
g335
S'm'
p426
sg337
I00
sg338
g339
sg340
I00
sg341
I00
sg342
S'mips'
p427
sg344
I00
sg35
Nsbag309
(g331
g311
Ntp428
Rp429
(dp430
g335
S'gcc'
p431
sg337
I00
sg338
g339
sg340
I00
sg341
I00
sg342
S'mips'
p432
sg344
I00
sg35
Nsbag309
(g331
g311
Ntp433
Rp434
(dp435
g335
S'stdc++'
p436
sg337
I00
sg338
g339
sg340
I00
sg341
I00
sg342
S'gcc_x86_android'
p437
sg344
I00
sg35
Nsbag309
(g331
g311
Ntp438
Rp439
(dp440
g335
g421
sg337
I00
sg338
g339
sg340
I00
sg341
I00
sg342
S'gcc_x86_android'
p441
sg344
I00
sg35
Nsbag309
(g331
g311
Ntp442
Rp443
(dp444
g335
g426
sg337
I00
sg338
g339
sg340
I00
sg341
I00
sg342
S'gcc_x86_android'
p445
sg344
I00
sg35
Nsbag309
(g331
g311
Ntp446
Rp447
(dp448
g335
g431
sg337
I00
sg338
g339
sg340
I00
sg341
I00
sg342
S'gcc_x86_android'
p449
sg344
I00
sg35
NsbasS'library_paths'
p450
(lp451
g309
(cmkb_main
LibraryPath
p452
g311
Ntp453
Rp454
(dp455
S'expand_path'
p456
I01
sg335
S'c:/marmalade/7.4/modules/iw2d'
p457
sbag309
(g452
g311
Ntp458
Rp459
(dp460
g456
I00
sg335
S'c:/marmalade/7.4/modules/iwgx/atitools'
p461
sbag309
(g452
g311
Ntp462
Rp463
(dp464
g456
I01
sg335
S'c:/marmalade/7.4/modules/iwgx'
p465
sbag309
(g452
g311
Ntp466
Rp467
(dp468
g456
I01
sg335
S'c:/marmalade/7.4/modules/iwgl'
p469
sbag309
(g452
g311
Ntp470
Rp471
(dp472
g456
I01
sg335
S'c:/marmalade/7.4/modules/iwutil'
p473
sbag309
(g452
g311
Ntp474
Rp475
(dp476
g456
I01
sg335
S'c:/marmalade/7.4/modules/third_party/libjpeg'
p477
sbag309
(g452
g311
Ntp478
Rp479
(dp480
g456
I01
sg335
S'c:/marmalade/7.4/modules/third_party/zlib'
p481
sbag309
(g452
g311
Ntp482
Rp483
(dp484
g456
I01
sg335
S'c:/marmalade/7.4/modules/third_party/libpng'
p485
sbag309
(g452
g311
Ntp486
Rp487
(dp488
g456
I01
sg335
S'c:/marmalade/7.4/modules/iwgeom'
p489
sbag309
(g452
g311
Ntp490
Rp491
(dp492
g456
I01
sg335
S'c:/marmalade/7.4/modules/iwresmanager'
p493
sbag309
(g452
g311
Ntp494
Rp495
(dp496
g456
I01
sg335
S'c:/marmalade/7.4/modules/iwgxfont'
p497
sbag309
(g452
g311
Ntp498
Rp499
(dp500
g456
I01
sg335
S'c:/marmalade/7.4/modules/third_party/tiniconv'
p501
sbag309
(g452
g311
Ntp502
Rp503
(dp504
g456
I01
sg335
S'c:/marmalade/7.4/s3e'
p505
sbasS'macros'
p506
(dp507
S'IW_USE_CALLSTACK'
p508
NsS'IW_MKF_IWGEOM'
p509
NsS'I3D_PLATFORM_S3E'
p510
NsS'IW_TRACE_CHANNEL_PVRTEXTOOL_VERBOSE'
p511
S'2'
p512
sS'IW_MKF_LIBJPEG'
p513
NsS'I3D_OS_S3E'
p514
NsS'IW_MKF_PVRTEXTOOL'
p515
NsS'IW_MKF_TINICONV'
p516
NsS'IW_APP_VERSION'
p517
S'"1.0"'
p518
sS'__S3E__'
p519
NsS'IW_MKF_IWRESMANAGER'
p520
NsS'IW_MKF_IWUTIL'
p521
NsS'IW_PLATFORM_S3E'
p522
NsS'IW_ASSERTION_CHANNEL_2D'
p523
S'1'
p524
sS'IW_APP_NAME'
p525
S'"MVSStage3"'
p526
sS'IW_MKF_IWGXFONT'
p527
NsS'IW_MKF_ZLIB'
p528
NsS'IW_MKF_IWGX'
p529
NsS'IW_MKF_IW2DSCENEGRAPH'
p530
NsS'IW_MKF_SOUNDENGINE'
p531
NsS'IW_USE_ASSERTIONS'
p532
NsS'_CRT_SECURE_NO_DEPRECATE'
p533
NsS'IW_MKF_IWGL'
p534
NsS'IW_MKF_LIBPNG'
p535
NsS'IW_TRACE_CHANNEL_IW_2DSCENEGRAPH'
p536
g524
sS'IW_DEBUG'
p537
NsS'IW_USE_TRACING'
p538
NsS'IW_ASSERTION_CHANNEL_IW_2DSCENEGRAPH'
p539
g524
sS'IW_TRACE_CHANNEL_PVRTEXTOOL'
p540
g524
sS'IW_SDK'
p541
NsS'S3E_INCLUDE_LEGACY'
p542
NsS'IW_MKF_IW2DSCENEGRAPHCORE'
p543
NsS'IW_MKF_IW2D'
p544
NsS'IW_ASSERTION_CHANNEL_PVRTEXTOOL'
p545
g524
ssS'done_warnings'
p546
(dp547
sS'subprojects'
p548
(dp549
g187
S'../iw2dscenegraphcore'
p550
sg180
S'zlib'
p551
sg179
S'libpng'
p552
sg178
S'libjpeg'
p553
sg185
S'tiniconv'
p554
sg175
S'iwgx'
p555
sg181
S'iwgeom'
p556
sg177
S'iwutil'
p557
sg186
S'iw2dscenegraph'
p558
sg174
S'iw2d'
p559
sg184
S'iwgxfont'
p560
sg182
S'iwresmanager'
p561
sg188
S'soundengine'
p562
sg176
S'iwgl'
p563
sg183
S'PVRTexTool'
p564
ssS'deployments'
p565
(dp566
S'Default'
p567
g309
(cdeployment
Deployment
p568
g311
Ntp569
Rp570
(dp571
S'got_version'
p572
I0
sS'assets'
p573
g567
sS'mkb'
p574
g313
sS'target'
p575
Nsg342
(lp576
sS'options'
p577
(dp578
S'iphone-link-lib'
p579
(lp580
sS'game-icf'
p581
NsS'android-tm'
p582
NsS'winmobile-icon32'
p583
NsS'ws8-logo-image150x150'
p584
NsS'wp81-logo-image150x150'
p585
NsS'ws81-product-version'
p586
NsS'osx-ext-dll'
p587
(lp588
S'c:/marmalade/7.4/extensions/pvrtextool/lib/osx/libPVRTexTool.dylib'
p589
asS'iphone-provisioning-profile'
p590
NsS'ws8-splash-screen-image620x300'
p591
NsS'wp81-extra-pri'
p592
(lp593
sS'ws8-ext-capabilities'
p594
(lp595
sS'android-icon-hdpi'
p596
NsS'brew-icon-large'
p597
NsS'iphone-splash-full-orient'
p598
NsS'wp8-tile-fliptemplate-supports-large'
p599
NsS'iphone-show-status-bar'
p600
NsS'roku-requires-mkv'
p601
NsS'long-caption'
p602
NsS'android-pkgname'
p603
NsS'wp81-publisher-display-name'
p604
NsS'blackberry-permissions-read-device-identifying-information'
p605
NsS'ws81-certificate-end-date'
p606
NsS'psp-dlgcontentid'
p607
NsS'iphone-minimum-ios-version'
p608
NsS'target-folder'
p609
NsS'tizen-dist1-CA-path'
p610
NsS'symbian-icon2-format'
p611
NsS'tizen-author-key'
p612
NsS'firefoxos-icon-128X128'
p613
NsS'iphone-region'
p614
NsS'uiq3-icon3-mask'
p615
NsS'brew-encoding'
p616
NsS'android-x86'
p617
NsS'nds-initialcode'
p618
NsS'iphone-persistent-wifi'
p619
NsS'psp-snd0'
p620
NsS'roku-icon-focus-hd'
p621
NsS'winmobile-install-folder'
p622
NsS'android-external-res'
p623
(lp624
sS'ws8-product-version'
p625
NsS'brew-priviledges'
p626
NsS'iphone-icon-ipad-search'
p627
NsS'iphone-icon-ipad'
p628
NsS'roku-hidden'
p629
NsS'psp-titlename'
p630
NsS'wp81-product-version'
p631
NsS'symbian-icon1-mask'
p632
NsS'psp-parentallevel'
p633
NsS'splashscreen-use-all'
p634
NsS'wp8-author'
p635
NsS'symbian-disable-ecompxl'
p636
NsS'splashscreen-auto-onblack'
p637
NsS'win32-ext-dll'
p638
(lp639
S'c:/marmalade/7.4/extensions/pvrtextool/lib/win32/PVRTexTool.dll'
p640
asS'iphone-development-key'
p641
NsS'winmobile-icon48'
p642
NsS'android-unsigned'
p643
NsS'osx-appstore-category'
p644
NsS'version-revision'
p645
NsS'roku-icon-focus-sd'
p646
NsS'android-keystore'
p647
NsS'winmobile-png90'
p648
NsS'iphone-icon-ipad-high-res'
p649
NsS'iphone-disable-ipad'
p650
NsS'wp8-product-id'
p651
NsS'ws81-splash-screen-background'
p652
NsS'wp8-ext-capabilities'
p653
(lp654
sS'iphone-ipad-only'
p655
NsS'symbian-icon1-mask-black'
p656
NsS'iphone-nosign'
p657
NsS'iphone-bundle-localisations'
p658
NsS'winmobile-png60'
p659
NsS'blackberry-permissions-access-shared'
p660
NsS'blackberry-author'
p661
NsS'android-icon-xxxhdpi'
p662
NsS'olddeploytoolstyle'
p663
NsS'android_icon_gallery'
p664
NsS'wp81-splash-screen-background'
p665
NsS'winmobile-cab-compress'
p666
NsS'iphone-info-plist'
p667
NsS'ws81-ext-managed-dll'
p668
(lp669
sS'playbook-cskpass'
p670
NsS'ws8-distribution-pfx-password'
p671
NsS'symbian-key'
p672
NsS'app-icf'
p673
NsS'blackberry-storepass'
p674
NsS'wp8-tile-fliptemplate-back-title'
p675
NsS'brew-compress-loader'
p676
NsS'win32-pref-windowposy'
p677
NsS'win32-pref-windowposx'
p678
NsS'roku-requires-audiometadata'
p679
NsS'wp8-exclude-low-mem'
p680
NsS'iphone-icon-ipad-search-high-res'
p681
NsS'iphone-link-libdir'
p682
(lp683
sS'wp81-ext-capabilities'
p684
(lp685
sS'blackberry-permissions-read-geolocation'
p686
NsS'ws81-ext-device-capabilities'
p687
(lp688
sS'tizen-signed'
p689
NsS'android-extra-application-manifest'
p690
(lp691
sS'ws8-ext-native-dll'
p692
(lp693
sS'symbian-icon2-mask'
p694
NsS'iphone-backgroundmode-audio'
p695
NsS'webos-memory'
p696
NsS'android-keypass'
p697
NsS'name'
p698
NsS'uiq3-icon2-format'
p699
NsS'roku-splash-screen-sd'
p700
NsS'auto-derbh'
p701
NsS'roku-icon-side-sd'
p702
NsS'android-external-assets'
p703
(lp704
sS'nds-publicsavedatasize'
p705
NsS'splashscreen'
p706
NsS'brew-mif'
p707
NsS'iphone-icon-settings-high-res'
p708
NsS'android-manifest'
p709
NsS'ws81-splash-screen-image620x300'
p710
NsS'wp81-product-name'
p711
NsS's3e-compression'
p712
NsS'tizen-author-password'
p713
NsS'wp8-tile-fliptemplate-back-content'
p714
NsS'blackberry-extra-descriptor'
p715
(lp716
sS'symbian-icon1'
p717
NsS'symbian-icon2'
p718
NsS'android-extra-styles-file'
p719
NsS'wp81-publisher-id'
p720
NsS'nds-bannertitle-jp'
p721
NsS'wp81-logo-image44x44'
p722
NsS'osx-sign-for-store'
p723
NsS'symbian7-uid'
p724
NsS'wp8-tile-fliptemplate-large-back-content'
p725
NsS'wp81-phone-publisher-id'
p726
NsS'nds-bannertitle-cn'
p727
NsS'iphone-distribution-key'
p728
NsS'android-icon-gallery'
p729
NsS'blackberry-keystore'
p730
NsS'ws8-extra-res'
p731
(lp732
sS'caption'
p733
NsS'android-extra-manifest'
p734
(lp735
sS'wp81-ext-sdk-ref'
p736
(lp737
sS'android-icon-xxhdpi'
p738
NsS'version-minor'
p739
NsS'iphone-link-libdirs'
p740
(lp741
sS'iphone-icon-large'
p742
NsS'symbian-keypwd'
p743
NsS'symbian8-uid'
p744
NsS'symbian-cert-key'
p745
NsS'winmobile-ampd-part-number'
p746
NsS'arch'
p747
NsS'nds-romheadertemplate'
p748
NsS'webos-icon'
p749
NsS'wp81-ext-device-capabilities'
p750
(lp751
sS'psp-dlgprotectdocument'
p752
NsS'ws8-splash-screen-background'
p753
NsS'android-icon-mdpi'
p754
NsS'nds-icon'
p755
NsS'ws8-custom-manifest-fill'
p756
NsS'iphone-development-cert'
p757
NsS'blackberry-phone-icon'
p758
NsS'iphone-enable-4inch-retina'
p759
NsS'ws8-custom-manifest'
p760
NsS'version-major'
p761
NsS'wp8-genre-isgame'
p762
NsS'uiq3-uid'
p763
NsS'iphone-splash-retina-generate'
p764
NsS'tizen-hw-acceleration'
p765
NsS'iphone_bundle_localisations'
p766
NsS'tizen-dist1-key'
p767
NsS'wp81-custom-manifest-fill'
p768
NsS'wp8-custom-manifest'
p769
NsS'nds-bannertitle-ge'
p770
NsS'iphone-sign-for-distribution'
p771
NsS'wp8-tile-fliptemplate-medium-back-image'
p772
NsS'wp8-publisher-id'
p773
NsS'icon'
p774
NsS'wp8-exclude-wxga'
p775
NsS'wp81-identity-name'
p776
NsS'uiq3-icon2-mask'
p777
NsS'iphone-splashscreen-portrait'
p778
NsS'iphone-icon-high-res'
p779
NsS'ws81-distribution-pfx-password'
p780
NsS'playbook-author'
p781
NsS'android-icon-xhdpi'
p782
NsS'linux-ext-lib'
p783
(lp784
sS'blackberry-permissions-access-internet'
p785
NsS'wp8-exclude-720p'
p786
NsS'lgtv-use-drm'
p787
NsS'symbian-platsecflags'
p788
NsS'ws8-description'
p789
NsS'blackberry-playbook-icon'
p790
NsS'copyright'
p791
NsS'win32-gles-directory'
p792
NsS'version'
p793
NsS'ws81-logo-image150x150'
p794
NsS'osx-signing-identity-app'
p795
NsS'tizen-project-url'
p796
NsS'symbian-icon-svg'
p797
NsS'android-aliasname'
p798
NsS'psp-dlgmanual'
p799
NsS'brew-uid'
p800
NsS'symbian-locationsupport'
p801
NsS'wp81-logo-image50x50'
p802
NsS'ws8-ext-managed-dll'
p803
(lp804
sS'nds-bannertitle-it'
p805
NsS'ws81-custom-manifest-fill'
p806
NsS'ws8-ext-sdk-manifest-part'
p807
(lp808
sS'uiq3-icon1-mask'
p809
NsS'winmobile-icon16'
p810
NsS'ws8-product-name'
p811
NsS'blackberry-cskpass'
p812
NsS'winmobile-start-menu-folder'
p813
NsS'brew-clsid'
p814
NsS'roku-requires-bluetooth'
p815
NsS'ws8-ext-device-capabilities'
p816
(lp817
sS'blackberry-permissions-use-camera'
p818
NsS'ws81-extra-pri'
p819
(lp820
sS'iphone-prerendered-icon'
p821
NsS'iphone-appid'
p822
NsS'ws8-identity-name'
p823
NsS'tizen-dist2-CA-path'
p824
NsS'android-external-jars'
p825
(lp826
sS'winmobile-icon64'
p827
NsS'blackberry-permissions-post-notification'
p828
NsS'winmobile-setup-dll'
p829
NsS'firefoxos-manifest'
p830
NsS'win8-winrt-extra-res'
p831
(lp832
sS'wp81-ext-sdk-manifest-part'
p833
(lp834
sS'symbian9-uid'
p835
NsS'iphone-icon-ipad-ios7'
p836
NsS'winmobile-trace-file'
p837
NsS'roku-splash-color'
p838
NsS'psp-appversion'
p839
NsS'ws8-publisher-id'
p840
NsS'android-supports-gl-texture'
p841
(lp842
sS'winmobile-png45'
p843
NsS'wp81-extra-res'
p844
(lp845
sS'android-storepass'
p846
NsS'osx-signing-identity-inst'
p847
NsS'android-custom-activity'
p848
NsS'psp-discversion'
p849
NsS'wp81-ext-managed-dll'
p850
(lp851
sS'psp-copyright'
p852
NsS'embed-icf'
p853
NsS'tizen-manifest'
p854
NsS'osx-icon'
p855
NsS'webos-appinfo'
p856
NsS'psp-dlghealthwarning'
p857
NsS'webos-appid'
p858
NsS'roku-icon-side-hd'
p859
NsS'iphone-icon-ipad-search-high-res-ios7'
p860
NsS'ws81-ext-sdk-manifest-part'
p861
(lp862
sS'loader_name_prefix'
p863
NsS'nds-titlename'
p864
NsS'ws81-logo-image50x50'
p865
NsS'wp81-custom-manifest'
p866
NsS'osx-entitlements-plist'
p867
NsS'psp-dlgicon0'
p868
NsS'winmobile-nouninstall'
p869
NsS'psp-discid'
p870
NsS'tizen-dist2-password'
p871
NsS'ws8-ext-sdk-ref'
p872
(lp873
sS'iphone-extra-string'
p874
(lp875
sS'version-string'
p876
NsS'iphone-icon-high-res-ios7'
p877
NsS'blackberry-permissions-record-audio'
p878
NsS'ws8-certificate-end-date'
p879
NsS'tizen-so'
p880
(lp881
sS'wp8-tile-fliptemplate-small-image'
p882
NsS'playbook-authorid'
p883
NsS'iphone-signing-identity'
p884
NsS'roku-persist-quota'
p885
NsS'nds-bannertitle-fr'
p886
NsS'ws8-distribution-pfx'
p887
NsS'ws8-publisher-display-name'
p888
NsS'brew-icon-small'
p889
NsS'psp-dlgpic2'
p890
NsS'psp-dlgpic0'
p891
NsS'psp-pic0'
p892
NsS'psp-pic1'
p893
NsS'win32-pref-windowtitle'
p894
NsS'psp-icon0'
p895
NsS'psp-icon1'
p896
NsS'ws81-identity-name'
p897
NsS'winmobile-icon'
p898
NsS'iphone-no-splash'
p899
NsS'iphone-splash'
p900
NsS'iphone-app-fonts'
p901
NsS'wp8-ext-native-dll'
p902
(lp903
sS'wp81-splash-screen-image480x800'
p904
NsS'ws81-distribution-cer'
p905
NsS'uiq3-icon2'
p906
NsS'uiq3-icon3'
p907
NsS'uiq3-icon1'
p908
NsS'uiq3-icon1-format'
p909
NsS'ws8-logo-image50x50'
p910
NsS'symbian-icon2-mask-black'
p911
NsS'symbian-run-on-install'
p912
NsS'wp81-description'
p913
NsS'ws81-publisher-display-name'
p914
NsS'firefoxos-xulrunner'
p915
NsS'symbian-soundrecordsupport'
p916
NsS'nds-bannertitle-sp'
p917
NsS'psp-producer'
p918
NsS'iphone-apple-wwdr-cert'
p919
NsS'android-icon-nonstandard'
p920
NsS'win32-pref-processtitle'
p921
NsS'nds-bannertitle-hn'
p922
NsS'tizen-dist2-key'
p923
NsS'brew-depends'
p924
NsS'ws81-custom-manifest'
p925
NsS'iphone-icon-ipad-search-ios7'
p926
NsS'brew-icon-medium'
p927
NsS'iphone-bundle-url-name'
p928
NsS'wp8-tile-fliptemplate-large-front-image'
p929
NsS'tizen-dist2-CA-root-path'
p930
NsS'ws81-description'
p931
NsS'uiq3-icon3-format'
p932
NsS'ws81-logo-image30x30'
p933
NsS'win8-phone-extra-res'
p934
(lp935
sS'iphone-signing-host'
p936
NsS'tizen-icon'
p937
NsS'osx-info-plist'
p938
NsS'symbian-icon1-format'
p939
NsS'win8-store-extra-res'
p940
(lp941
sS'blackberry-authorid'
p942
NsS'ws81-publisher-id'
p943
NsS'ws81-distribution-pfx'
p944
NsS'wp8-description'
p945
NsS'iphone-link-opts'
p946
(lp947
sS'ws81-ext-sdk-ref'
p948
(lp949
sS'roku-splash-min-time'
p950
NsS'wp8-tile-fliptemplate-medium-front-image'
p951
NsS'provider'
p952
NsS'playbook-keystore'
p953
NsS'tizen-appid'
p954
NsS'wp8-extra-res'
p955
(lp956
sS'symbian-osexecsupport'
p957
NsS'android-install-location'
p958
NsS'nds-privatesavedatasize'
p959
NsS'playbook-storepass'
p960
NsS'android-icon-ldpi'
p961
NsS'manufacturer'
p962
NsS'itunes-artwork'
p963
NsS'iphone-extra-sections'
p964
NsS'ws81-product-name'
p965
NsS'ws81-ext-native-dll'
p966
(lp967
sS'ws8-extra-pri'
p968
(lp969
sS'win32-icon'
p970
NsS'ws8-logo-image30x30'
p971
NsS'wp8-ext-managed-dll'
p972
(lp973
sS'iphone-splashscreen-landscape'
p974
NsS'symbian-maxheapsize'
p975
NsS'nds-makercode'
p976
NsS'priv-sign-key'
p977
NsS'networking'
p978
NsS'android-icon'
p979
NsS'iphone-icon-settings'
p980
NsS'wp81-phone-product-id'
p981
NsS'firefoxos-icon-60X60'
p982
NsS'iphone-distribution-cert'
p983
NsS'android_extra_strings'
p984
NsS'nds-bannertitle-en'
p985
NsS'wp8-tile-fliptemplate-title'
p986
NsS'android-so'
p987
(lp988
sS'wp8-higher-mem'
p989
NsS'wp8-ext-sdk-ref'
p990
(lp991
sS'roku-splash-screen-hd'
p992
NsS'iphone-bundle-url-schemes'
p993
NsS'roku-screensaver-private'
p994
NsS'osx-extra-res'
p995
(lp996
sS'ws81-extra-res'
p997
(lp998
sS'playbook-icon'
p999
NsS'uid'
p1000
NsS'pkguid-as-uid'
p1001
NsS'wp81-ext-native-dll'
p1002
(lp1003
sS'tizen-dist1-password'
p1004
NsS'roku-screensaver-title'
p1005
NsS'osx-minimum-osx-version'
p1006
NsS'symbian-cert'
p1007
NsS'iphone-icon'
p1008
NsS'ws81-ext-capabilities'
p1009
(lp1010
sS'ws8-distribution-cer'
p1011
NsS'playbook-access-shared'
p1012
NsS'iphone-icon-ipad-high-res-ios7'
p1013
NsS'iphone-link-libs'
p1014
(lp1015
sS'wp8-exclude-wvga'
p1016
NsS'assets'
p1017
NsS'wp8-tile-fliptemplate-large-back-image'
p1018
NsS'wp8-custom-manifest-fill'
p1019
NsS'pub-sign-key'
p1020
NsS'android-extra-strings'
p1021
NsS'tizen-author-CA-path'
p1022
Nssg335
g567
sbssS'platform'
p1023
S'S3E'
p1024
sg65
S'1.0'
p1025
sS'arcade_platform'
p1026
g4
sS'extensions'
p1027
(dp1028
sS'source_groups_tree'
p1029
(dp1030
S'(libpng)'
p1031
(dp1032
S'h'
p1033
(dp1034
S'c:/marmalade/7.4/modules/third_party/libpng/h/png.h'
p1035
(lp1036
I1
a(dp1037
asS'c:/marmalade/7.4/modules/third_party/libpng/h/pngconf.h'
p1038
(lp1039
I1
ag1037
assS'c:/marmalade/7.4/modules/third_party/libpng/libpng.mkf'
p1040
(lp1041
I1
a(dp1042
assS'(libjpeg)'
p1043
(dp1044
g1033
(dp1045
S'c:/marmalade/7.4/modules/third_party/libjpeg/h/jerror.h'
p1046
(lp1047
I1
a(dp1048
asS'c:/marmalade/7.4/modules/third_party/libjpeg/h/jmemsys.h'
p1049
(lp1050
I1
ag1048
asS'c:/marmalade/7.4/modules/third_party/libjpeg/h/jchuff.h'
p1051
(lp1052
I1
ag1048
asS'c:/marmalade/7.4/modules/third_party/libjpeg/h/jpeglib.h'
p1053
(lp1054
I1
ag1048
asS'c:/marmalade/7.4/modules/third_party/libjpeg/h/cdjpeg.h'
p1055
(lp1056
I1
ag1048
asS'c:/marmalade/7.4/modules/third_party/libjpeg/h/jinclude.h'
p1057
(lp1058
I1
ag1048
asS'c:/marmalade/7.4/modules/third_party/libjpeg/h/jconfig.h'
p1059
(lp1060
I1
ag1048
asS'c:/marmalade/7.4/modules/third_party/libjpeg/h/cderror.h'
p1061
(lp1062
I1
ag1048
asS'c:/marmalade/7.4/modules/third_party/libjpeg/h/jdct.h'
p1063
(lp1064
I1
ag1048
asS'c:/marmalade/7.4/modules/third_party/libjpeg/h/jversion.h'
p1065
(lp1066
I1
ag1048
asS'c:/marmalade/7.4/modules/third_party/libjpeg/h/transupp.h'
p1067
(lp1068
I1
ag1048
asS'c:/marmalade/7.4/modules/third_party/libjpeg/h/jdhuff.h'
p1069
(lp1070
I1
ag1048
asS'c:/marmalade/7.4/modules/third_party/libjpeg/h/jpegint.h'
p1071
(lp1072
I1
ag1048
asS'c:/marmalade/7.4/modules/third_party/libjpeg/h/jmorecfg.h'
p1073
(lp1074
I1
ag1048
assS'c:/marmalade/7.4/modules/third_party/libjpeg/libjpeg.mkf'
p1075
(lp1076
I1
a(dp1077
assS'(tiniconv)'
p1078
(dp1079
S'c:/marmalade/7.4/modules/third_party/tiniconv/source/tiniconv_int.h'
p1080
(lp1081
I1
a(dp1082
asS'c:/marmalade/7.4/modules/third_party/tiniconv/tiniconv.mkf'
p1083
(lp1084
I1
a(dp1085
asS'c:/marmalade/7.4/modules/third_party/tiniconv/source/tiniconv.h'
p1086
(lp1087
I1
ag1082
assS'(soundengine)'
p1088
(dp1089
S'c:/marmalade/7.4/examples/gametutorial/cpp/modules/soundengine/h/IwSoundInst.h'
p1090
(lp1091
I1
a(dp1092
asS'c:/marmalade/7.4/examples/gametutorial/cpp/modules/soundengine/h/IwSoundWAV.h'
p1093
(lp1094
I1
ag1092
asS'c:/marmalade/7.4/examples/gametutorial/cpp/modules/soundengine/source/IwSoundParams.cpp'
p1095
(lp1096
I1
ag1092
asS'c:/marmalade/7.4/examples/gametutorial/cpp/modules/soundengine/source/IwSoundManager.cpp'
p1097
(lp1098
I1
ag1092
asS'c:/marmalade/7.4/examples/gametutorial/cpp/modules/soundengine/h/IwSoundPCM.h'
p1099
(lp1100
I1
ag1092
asS'Docs'
p1101
(dp1102
S'c:/marmalade/7.4/examples/gametutorial/cpp/modules/soundengine/docs/iwsound.config.txt'
p1103
(lp1104
I1
ag1092
assS'c:/marmalade/7.4/examples/gametutorial/cpp/modules/soundengine/h/IwSoundGroup.h'
p1105
(lp1106
I1
ag1092
asS'c:/marmalade/7.4/examples/gametutorial/cpp/modules/soundengine/soundengine.mkf'
p1107
(lp1108
I1
a(dp1109
asS'c:/marmalade/7.4/examples/gametutorial/cpp/modules/soundengine/h/IwSoundManager.h'
p1110
(lp1111
I1
ag1092
asS'c:/marmalade/7.4/examples/gametutorial/cpp/modules/soundengine/source/IwSoundGroup.cpp'
p1112
(lp1113
I1
ag1092
asS'c:/marmalade/7.4/examples/gametutorial/cpp/modules/soundengine/source/IwSoundADPCM.cpp'
p1114
(lp1115
I1
ag1092
asS'c:/marmalade/7.4/examples/gametutorial/cpp/modules/soundengine/source/IwSoundPCM.cpp'
p1116
(lp1117
I1
ag1092
asS'c:/marmalade/7.4/examples/gametutorial/cpp/modules/soundengine/h/IwSoundSpec.h'
p1118
(lp1119
I1
ag1092
asS'c:/marmalade/7.4/examples/gametutorial/cpp/modules/soundengine/source/IwSoundData.cpp'
p1120
(lp1121
I1
ag1092
asS'c:/marmalade/7.4/examples/gametutorial/cpp/modules/soundengine/source/IwResHandlerWAV.cpp'
p1122
(lp1123
I1
ag1092
asS'c:/marmalade/7.4/examples/gametutorial/cpp/modules/soundengine/h/IwSoundADPCM.h'
p1124
(lp1125
I1
ag1092
asS'c:/marmalade/7.4/examples/gametutorial/cpp/modules/soundengine/h/IwSoundParams.h'
p1126
(lp1127
I1
ag1092
asS'c:/marmalade/7.4/examples/gametutorial/cpp/modules/soundengine/h/IwSound.h'
p1128
(lp1129
I1
ag1092
asS'c:/marmalade/7.4/examples/gametutorial/cpp/modules/soundengine/source/IwSoundSpec.cpp'
p1130
(lp1131
I1
ag1092
asS'c:/marmalade/7.4/examples/gametutorial/cpp/modules/soundengine/h/IwSoundData.h'
p1132
(lp1133
I1
ag1092
asS'c:/marmalade/7.4/examples/gametutorial/cpp/modules/soundengine/source/IwSoundInst.cpp'
p1134
(lp1135
I1
ag1092
asS'c:/marmalade/7.4/examples/gametutorial/cpp/modules/soundengine/h/IwResHandlerWAV.h'
p1136
(lp1137
I1
ag1092
asS'c:/marmalade/7.4/examples/gametutorial/cpp/modules/soundengine/source/IwSoundWAV.cpp'
p1138
(lp1139
I1
ag1092
assS'source'
p1140
(dp1141
S'e:/Documents/Michiel/Programmeren/Marmalade/MVSStage3/source/MVSStage3_main.cpp'
p1142
(lp1143
I1
a(dp1144
assS'Extensions'
p1145
(dp1146
S'PVRTexTool'
p1147
(dp1148
S'interface'
p1149
(dp1150
S'c:/marmalade/7.4/extensions/pvrtextool/interface/PVRTexTool_interface.cpp'
p1151
(lp1152
I1
a(dp1153
asS'c:/marmalade/7.4/extensions/pvrtextool/interface/PVRTexTool.defines.txt'
p1154
(lp1155
I1
ag1153
assS'c:/marmalade/7.4/extensions/pvrtextool/pvrtextool.mkf'
p1156
(lp1157
I1
a(dp1158
asS'c:/marmalade/7.4/extensions/pvrtextool/h/PVRTexTool.h'
p1159
(lp1160
I1
ag1153
asssS"'Marmalade Studio'"
p1161
(dp1162
S'iw2dscenegraph'
p1163
(dp1164
S'c:/marmalade/7.4/modules/iw2dscenegraph/h/Iw2DSceneGraph.h'
p1165
(lp1166
I1
a(dp1167
asS'c:/marmalade/7.4/modules/iw2dscenegraph/source/Iw2DSceneGraph.cpp'
p1168
(lp1169
I1
ag1167
asS'c:/marmalade/7.4/modules/iw2dscenegraph/iw2dscenegraph.mkf'
p1170
(lp1171
I1
a(dp1172
asS'c:/marmalade/7.4/modules/iw2dscenegraph/docs/iw2dscenegraph.defines.txt'
p1173
(lp1174
I1
ag1167
assS'iwgl'
p1175
(dp1176
S'c:/marmalade/7.4/modules/iwgl/iwgl.mkf'
p1177
(lp1178
I1
a(dp1179
asS'c:/marmalade/7.4/modules/iwgl/docs/iwgl.config.txt'
p1180
(lp1181
I1
a(dp1182
asS'c:/marmalade/7.4/modules/iwgl/h/IwGL.h'
p1183
(lp1184
I1
ag1182
asS'c:/marmalade/7.4/modules/iwgl/h/IwGLExt.h'
p1185
(lp1186
I1
ag1182
assS'iw2d'
p1187
(dp1188
S'c:/marmalade/7.4/modules/iw2d/docs/iw2d.config.txt'
p1189
(lp1190
I1
a(dp1191
asS'c:/marmalade/7.4/modules/iw2d/docs/iw2d_public.defines.txt'
p1192
(lp1193
I1
ag1191
asS'c:/marmalade/7.4/modules/iw2d/h/Iw2D.h'
p1194
(lp1195
I1
ag1191
asS'c:/marmalade/7.4/modules/iw2d/iw2d.mkf'
p1196
(lp1197
I1
a(dp1198
assS'iwgxfont'
p1199
(dp1200
S'c:/marmalade/7.4/modules/iwgxfont/docs/iwgxfont_public.defines.txt'
p1201
(lp1202
I1
a(dp1203
asS'c:/marmalade/7.4/modules/iwgxfont/h/IwGxFontGlyph.h'
p1204
(lp1205
I1
ag1203
asS'c:/marmalade/7.4/modules/iwgxfont/docs/iwgxfont.config.txt'
p1206
(lp1207
I1
ag1203
asS'c:/marmalade/7.4/modules/iwgxfont/h/IwGxFont.h'
p1208
(lp1209
I1
ag1203
asS'c:/marmalade/7.4/modules/iwgxfont/h/IwGxFontTypes.h'
p1210
(lp1211
I1
ag1203
asS'c:/marmalade/7.4/modules/iwgxfont/h/IwGxFontPreparedData.h'
p1212
(lp1213
I1
ag1203
asS'c:/marmalade/7.4/modules/iwgxfont/h/IwGxFontState.h'
p1214
(lp1215
I1
ag1203
asS'c:/marmalade/7.4/modules/iwgxfont/h/IwGxFontContainer.h'
p1216
(lp1217
I1
ag1203
asS'c:/marmalade/7.4/modules/iwgxfont/iwgxfont.mkf'
p1218
(lp1219
I1
a(dp1220
assS'iwgeom'
p1221
(dp1222
S'c:/marmalade/7.4/modules/iwgeom/docs/iwgeom.config.txt'
p1223
(lp1224
I1
a(dp1225
asS'c:/marmalade/7.4/modules/iwgeom/h/IwGeomFIntersect.h'
p1226
(lp1227
I1
ag1225
asS'c:/marmalade/7.4/modules/iwgeom/h/IwGeomMat2D.h.tpl'
p1228
(lp1229
I1
ag1225
asS'c:/marmalade/7.4/modules/iwgeom/iwgeom.mkf'
p1230
(lp1231
I1
a(dp1232
asS'c:/marmalade/7.4/modules/iwgeom/h/IwGeomVec.h.tpl'
p1233
(lp1234
I1
ag1225
asS'c:/marmalade/7.4/modules/iwgeom/h/IwGeomFSphere.h'
p1235
(lp1236
I1
ag1225
asS'c:/marmalade/7.4/modules/iwgeom/h/IwGeomFQuat.h'
p1237
(lp1238
I1
ag1225
asS'c:/marmalade/7.4/modules/iwgeom/h/IwGeomMenu.h'
p1239
(lp1240
I1
ag1225
asS'c:/marmalade/7.4/modules/iwgeom/h/IwGeomFMat2D.h'
p1241
(lp1242
I1
ag1225
asS'c:/marmalade/7.4/modules/iwgeom/h/IwGeomFVec4.h'
p1243
(lp1244
I1
ag1225
asS'c:/marmalade/7.4/modules/iwgeom/h/IwGeomQuat.h'
p1245
(lp1246
I1
ag1225
asS'c:/marmalade/7.4/modules/iwgeom/h/IwGeomFBBox.h'
p1247
(lp1248
I1
ag1225
asS'c:/marmalade/7.4/modules/iwgeom/h/IwGeomSVec4.h'
p1249
(lp1250
I1
ag1225
asS'c:/marmalade/7.4/modules/iwgeom/h/IwGeomFVec2.h'
p1251
(lp1252
I1
ag1225
asS'c:/marmalade/7.4/modules/iwgeom/h/IwGeomVec.h'
p1253
(lp1254
I1
ag1225
asS'c:/marmalade/7.4/modules/iwgeom/h/IwGeomPlane.h'
p1255
(lp1256
I1
ag1225
asS'c:/marmalade/7.4/modules/iwgeom/h/IwGeomQuat.h.tpl'
p1257
(lp1258
I1
ag1225
asS'c:/marmalade/7.4/modules/iwgeom/h/IwGeomSVec3.h'
p1259
(lp1260
I1
ag1225
asS'c:/marmalade/7.4/modules/iwgeom/h/IwGeomMat.h'
p1261
(lp1262
I1
ag1225
asS'c:/marmalade/7.4/modules/iwgeom/h/IwGeomVec3.h'
p1263
(lp1264
I1
ag1225
asS'c:/marmalade/7.4/modules/iwgeom/h/IwGeomVec2.h'
p1265
(lp1266
I1
ag1225
asS'c:/marmalade/7.4/modules/iwgeom/h/IwGeomLegacy.h'
p1267
(lp1268
I1
ag1225
asS'c:/marmalade/7.4/modules/iwgeom/h/IwGeomSQuat.h'
p1269
(lp1270
I1
ag1225
asS'c:/marmalade/7.4/modules/iwgeom/h/IwGeomCore.h'
p1271
(lp1272
I1
ag1225
asS'c:/marmalade/7.4/modules/iwgeom/h/IwGeomVec4.h'
p1273
(lp1274
I1
ag1225
asS'c:/marmalade/7.4/modules/iwgeom/h/IwGeomBBox.h'
p1275
(lp1276
I1
ag1225
asS'c:/marmalade/7.4/modules/iwgeom/h/IwGeomIntersect.h'
p1277
(lp1278
I1
ag1225
asS'c:/marmalade/7.4/modules/iwgeom/h/IwGeomSVec2.h'
p1279
(lp1280
I1
ag1225
asS'c:/marmalade/7.4/modules/iwgeom/h/IwGeomMat2D.h'
p1281
(lp1282
I1
ag1225
asS'c:/marmalade/7.4/modules/iwgeom/h/IwGeomSphere.h'
p1283
(lp1284
I1
ag1225
asS'c:/marmalade/7.4/modules/iwgeom/h/IwGeomFVec3.h'
p1285
(lp1286
I1
ag1225
asS'c:/marmalade/7.4/modules/iwgeom/h/IwGeom.h'
p1287
(lp1288
I1
ag1225
asS'c:/marmalade/7.4/modules/iwgeom/h/IwGeomMat.h.tpl'
p1289
(lp1290
I1
ag1225
asS'c:/marmalade/7.4/modules/iwgeom/h/IwGeomFPlane.h'
p1291
(lp1292
I1
ag1225
asS'c:/marmalade/7.4/modules/iwgeom/h/IwGeomFMat.h'
p1293
(lp1294
I1
ag1225
asS'c:/marmalade/7.4/modules/iwgeom/h/IwGeomSqrt.h'
p1295
(lp1296
I1
ag1225
assS'iwresmanager'
p1297
(dp1298
S'c:/marmalade/7.4/modules/iwresmanager/h/IwResHandlerITX.h'
p1299
(lp1300
I1
a(dp1301
asS'c:/marmalade/7.4/modules/iwresmanager/h/IwResGroup.h'
p1302
(lp1303
I1
ag1301
asS'c:/marmalade/7.4/modules/iwresmanager/h/IwResManager.h'
p1304
(lp1305
I1
ag1301
asS'c:/marmalade/7.4/modules/iwresmanager/h/IwResManagerClass.h'
p1306
(lp1307
I1
ag1301
asS'c:/marmalade/7.4/modules/iwresmanager/h/IwResSerialise.h'
p1308
(lp1309
I1
ag1301
asS'c:/marmalade/7.4/modules/iwresmanager/h/IwResHandlerGROUP.h'
p1310
(lp1311
I1
ag1301
asS'c:/marmalade/7.4/modules/iwresmanager/iwresmanager.mkf'
p1312
(lp1313
I1
a(dp1314
asS'c:/marmalade/7.4/modules/iwresmanager/h/IwResHandlerImage.h'
p1315
(lp1316
I1
ag1301
asS'c:/marmalade/7.4/modules/iwresmanager/h/IwResHandler.h'
p1317
(lp1318
I1
ag1301
asS'c:/marmalade/7.4/modules/iwresmanager/docs/iwresmanager.config.txt'
p1319
(lp1320
I1
ag1301
assS'iwgx'
p1321
(dp1322
S'c:/marmalade/7.4/modules/iwgx/h/IwDebugPrim.h'
p1323
(lp1324
I1
a(dp1325
asS'c:/marmalade/7.4/modules/iwgx/h/IwGxFuncTable.h'
p1326
(lp1327
I1
ag1325
asS'c:/marmalade/7.4/modules/iwgx/h/IwClip.inl'
p1328
(lp1329
I1
ag1325
asS'c:/marmalade/7.4/modules/iwgx/h/IwGxPrint.h'
p1330
(lp1331
I1
ag1325
asS'c:/marmalade/7.4/modules/iwgx/h/IwGx.h'
p1332
(lp1333
I1
ag1325
asS'c:/marmalade/7.4/modules/iwgx/h/IwTexture.h'
p1334
(lp1335
I1
ag1325
asS'c:/marmalade/7.4/modules/iwgx/h/IwFColour.h'
p1336
(lp1337
I1
ag1325
asS'c:/marmalade/7.4/modules/iwgx/h/IwColour.h'
p1338
(lp1339
I1
ag1325
asS'c:/marmalade/7.4/modules/iwgx/h/IwGxState.h'
p1340
(lp1341
I1
ag1325
asS'c:/marmalade/7.4/modules/iwgx/h/IwClip.h'
p1342
(lp1343
I1
ag1325
asS'c:/marmalade/7.4/modules/iwgx/h/IwTPage.h'
p1344
(lp1345
I1
ag1325
asS'c:/marmalade/7.4/modules/iwgx/h/IwMaterial.h'
p1346
(lp1347
I1
ag1325
asS'c:/marmalade/7.4/modules/iwgx/h/IwGxDebug.h'
p1348
(lp1349
I1
ag1325
asS'c:/marmalade/7.4/modules/iwgx/h/IwMatAnim.h'
p1350
(lp1351
I1
ag1325
asS'c:/marmalade/7.4/modules/iwgx/h/IwGxStream.h'
p1352
(lp1353
I1
ag1325
asS'c:/marmalade/7.4/modules/iwgx/h/IwResHandlerMTL.h'
p1354
(lp1355
I1
ag1325
asS'c:/marmalade/7.4/modules/iwgx/h/IwGxMetrics.h'
p1356
(lp1357
I1
ag1325
asS'c:/marmalade/7.4/modules/iwgx/h/IwGxError.h'
p1358
(lp1359
I1
ag1325
asS'c:/marmalade/7.4/modules/iwgx/docs/iwgx.config.txt'
p1360
(lp1361
I1
ag1325
asS'c:/marmalade/7.4/modules/iwgx/h/IwGxTransformSW.h'
p1362
(lp1363
I1
ag1325
asS'c:/marmalade/7.4/modules/iwgx/iwgx.mkf'
p1364
(lp1365
I1
a(dp1366
asS'c:/marmalade/7.4/modules/iwgx/docs/iwgx_public.defines.txt'
p1367
(lp1368
I1
ag1325
asS'c:/marmalade/7.4/modules/iwgx/h/IwGxShaderTechnique.h'
p1369
(lp1370
I1
ag1325
asS'c:/marmalade/7.4/modules/iwgx/h/IwGxTypes.h'
p1371
(lp1372
I1
ag1325
asS'c:/marmalade/7.4/modules/iwgx/h/IwGxSurface.h'
p1373
(lp1374
I1
ag1325
assS'iw2dscenegraphcore'
p1375
(dp1376
S'c:/marmalade/7.4/modules/iw2dscenegraphcore/iw2dscenegraphcore.mkf'
p1377
(lp1378
I1
a(dp1379
asS'c:/marmalade/7.4/modules/iw2dscenegraphcore/source/Iw2DSceneGraphCore.cpp'
p1380
(lp1381
I1
a(dp1382
asS'c:/marmalade/7.4/modules/iw2dscenegraphcore/h/Iw2DSceneGraphCore.h'
p1383
(lp1384
I1
ag1382
assS'iwutil'
p1385
(dp1386
S'c:/marmalade/7.4/modules/iwutil/h/IwTextParser.h'
p1387
(lp1388
I1
a(dp1389
asS'c:/marmalade/7.4/modules/iwutil/h/IwMenu.h'
p1390
(lp1391
I1
ag1389
asS'c:/marmalade/7.4/modules/iwutil/h/IwUtilInitTerm.h'
p1392
(lp1393
I1
ag1389
asS'c:/marmalade/7.4/modules/iwutil/h/IwCopyingPtr.h'
p1394
(lp1395
I1
ag1389
asS'c:/marmalade/7.4/modules/iwutil/h/IwDebug.h'
p1396
(lp1397
I1
ag1389
asS'c:/marmalade/7.4/modules/iwutil/h/IwDivTable.h'
p1398
(lp1399
I1
ag1389
asS'c:/marmalade/7.4/modules/iwutil/h/IwBuffer.h'
p1400
(lp1401
I1
ag1389
asS'c:/marmalade/7.4/modules/iwutil/h/IwRandom.h'
p1402
(lp1403
I1
ag1389
asS'c:/marmalade/7.4/modules/iwutil/h/IwKeymap.h'
p1404
(lp1405
I1
ag1389
asS'c:/marmalade/7.4/modules/iwutil/h/IwResource.h'
p1406
(lp1407
I1
ag1389
asS'c:/marmalade/7.4/modules/iwutil/h/IwCore.h'
p1408
(lp1409
I1
ag1389
asS'c:/marmalade/7.4/modules/iwutil/h/IwTextParserITX.h'
p1410
(lp1411
I1
ag1389
asS'c:/marmalade/7.4/modules/iwutil/h/IwManaged.h'
p1412
(lp1413
I1
ag1389
asS'c:/marmalade/7.4/modules/iwutil/h/IwHashString.h'
p1414
(lp1415
I1
ag1389
asS'c:/marmalade/7.4/modules/iwutil/h/IwProfileMenu.h'
p1416
(lp1417
I1
ag1389
asS'c:/marmalade/7.4/modules/iwutil/h/IwManagedList.h'
p1418
(lp1419
I1
ag1389
asS'c:/marmalade/7.4/modules/iwutil/h/IwList.h'
p1420
(lp1421
I1
ag1389
asS'c:/marmalade/7.4/modules/iwutil/h/IwSerialise.h'
p1422
(lp1423
I1
ag1389
asS'c:/marmalade/7.4/modules/iwutil/h/IwClassFactory.h'
p1424
(lp1425
I1
ag1389
asS'c:/marmalade/7.4/modules/iwutil/h/IwTypes.h'
p1426
(lp1427
I1
ag1389
asS'c:/marmalade/7.4/modules/iwutil/h/IwAllocator.h'
p1428
(lp1429
I1
ag1389
asS'c:/marmalade/7.4/modules/iwutil/h/IwMemory.h'
p1430
(lp1431
I1
ag1389
asS'c:/marmalade/7.4/modules/iwutil/h/IwTextParseable.h'
p1432
(lp1433
I1
ag1389
asS'c:/marmalade/7.4/modules/iwutil/h/IwFile.h'
p1434
(lp1435
I1
ag1389
asS'c:/marmalade/7.4/modules/iwutil/h/IwRuntime.h'
p1436
(lp1437
I1
ag1389
asS'c:/marmalade/7.4/modules/iwutil/h/IwMemBucketHelpers.h'
p1438
(lp1439
I1
ag1389
asS'c:/marmalade/7.4/modules/iwutil/h/IwUncopyable.h'
p1440
(lp1441
I1
ag1389
asS'c:/marmalade/7.4/modules/iwutil/h/IwChar.h'
p1442
(lp1443
I1
ag1389
asS'c:/marmalade/7.4/modules/iwutil/h/IwOptimiseARM.h'
p1444
(lp1445
I1
ag1389
asS'c:/marmalade/7.4/modules/iwutil/h/IwImage.h'
p1446
(lp1447
I1
ag1389
asS'c:/marmalade/7.4/modules/iwutil/h/IwImageHelper.h'
p1448
(lp1449
I1
ag1389
asS'c:/marmalade/7.4/modules/iwutil/h/IwMemBucket.h'
p1450
(lp1451
I1
ag1389
asS'c:/marmalade/7.4/modules/iwutil/h/IwDivide.h'
p1452
(lp1453
I1
ag1389
asS'c:/marmalade/7.4/modules/iwutil/h/IwOptimiseSpeed.h'
p1454
(lp1455
I1
ag1389
asS'c:/marmalade/7.4/modules/iwutil/h/IwArray.h'
p1456
(lp1457
I1
ag1389
asS'c:/marmalade/7.4/modules/iwutil/docs/iwutil.config.txt'
p1458
(lp1459
I1
ag1389
asS'c:/marmalade/7.4/modules/iwutil/h/IwUTF8.h'
p1460
(lp1461
I1
ag1389
asS'c:/marmalade/7.4/modules/iwutil/h/IwEvent.h'
p1462
(lp1463
I1
ag1389
asS'c:/marmalade/7.4/modules/iwutil/h/IwMath.h'
p1464
(lp1465
I1
ag1389
asS'c:/marmalade/7.4/modules/iwutil/h/IwFibre.h'
p1466
(lp1467
I1
ag1389
asS'c:/marmalade/7.4/modules/iwutil/h/IwString.h'
p1468
(lp1469
I1
ag1389
asS'c:/marmalade/7.4/modules/iwutil/iwutil.mkf'
p1470
(lp1471
I1
a(dp1472
asS'c:/marmalade/7.4/modules/iwutil/h/IwSingleton.h'
p1473
(lp1474
I1
ag1389
asS'c:/marmalade/7.4/modules/iwutil/h/IwAutoFile.h'
p1475
(lp1476
I1
ag1389
asS'c:/marmalade/7.4/modules/iwutil/h/IwOptimiseThumb.h'
p1477
(lp1478
I1
ag1389
asS'c:/marmalade/7.4/modules/iwutil/h/IwUtil.h'
p1479
(lp1480
I1
ag1389
asS'c:/marmalade/7.4/modules/iwutil/h/IwPath.h'
p1481
(lp1482
I1
ag1389
asS'c:/marmalade/7.4/modules/iwutil/h/IwMemManagerDL.h'
p1483
(lp1484
I1
ag1389
asS'c:/marmalade/7.4/modules/iwutil/h/IwVariableBitField.h'
p1485
(lp1486
I1
ag1389
asS'c:/marmalade/7.4/modules/iwutil/h/IwOptimiseSize.h'
p1487
(lp1488
I1
ag1389
asssS'(zlib)'
p1489
(dp1490
g1033
(dp1491
S'c:/marmalade/7.4/modules/third_party/zlib/h/zconf.h'
p1492
(lp1493
I1
a(dp1494
asS'c:/marmalade/7.4/modules/third_party/zlib/h/zlib.h'
p1495
(lp1496
I1
ag1494
assS'c:/marmalade/7.4/modules/third_party/zlib/zlib.mkf'
p1497
(lp1498
I1
a(dp1499
asssS'files'
p1500
(dp1501
S'IwGxFontPreparedData.h'
p1502
g309
(cmkb_main
File
p1503
g311
Ntp1504
Rp1505
(dp1506
S'flags'
p1507
g1203
sS'group'
p1508
(lp1509
S"'Marmalade Studio'"
p1510
ag1199
asg335
g1212
sbsS'iterator'
p1511
g309
(g1503
g311
Ntp1512
Rp1513
(dp1514
g1507
(dp1515
sg1508
(lp1516
S"'Marmalade System (S3E)'"
p1517
aS'stdc headers'
p1518
aS'c++'
p1519
asg335
S'c:/marmalade/7.4/s3e/h/std/c++/iterator'
p1520
sbsS'IwGL.h'
p1521
g309
(g1503
g311
Ntp1522
Rp1523
(dp1524
g1507
g1182
sg1508
(lp1525
S"'Marmalade Studio'"
p1526
ag1175
asg335
g1183
sbsS's3e.h'
p1527
g309
(g1503
g311
Ntp1528
Rp1529
(dp1530
g1507
g1515
sg1508
(lp1531
g1517
asg335
S'c:/marmalade/7.4/s3e/h/s3e.h'
p1532
sbsS'errno.h'
p1533
g309
(g1503
g311
Ntp1534
Rp1535
(dp1536
g1507
g1515
sg1508
(lp1537
g1517
aS'stdc headers'
p1538
asg335
S'c:/marmalade/7.4/s3e/h/std/errno.h'
p1539
sbsS'IwSingleton.h'
p1540
g309
(g1503
g311
Ntp1541
Rp1542
(dp1543
g1507
g1389
sg1508
(lp1544
S"'Marmalade Studio'"
p1545
ag1385
asg335
g1473
sbsS'dlfcn.h'
p1546
g309
(g1503
g311
Ntp1547
Rp1548
(dp1549
g1507
g1515
sg1508
g1537
sg335
S'c:/marmalade/7.4/s3e/h/std/dlfcn.h'
p1550
sbsS'MVSStage3_main.cpp'
p1551
g309
(g1503
g311
Ntp1552
Rp1553
(dp1554
g1507
g1144
sg1508
(lp1555
g1140
asg335
g1142
sbsS'IwSoundWAV.cpp'
p1556
g309
(g1503
g311
Ntp1557
Rp1558
(dp1559
g1507
g1092
sg1508
(lp1560
g1088
asg335
g1138
sbsS'sched.h'
p1561
g309
(g1503
g311
Ntp1562
Rp1563
(dp1564
g1507
g1515
sg1508
g1537
sg335
S'c:/marmalade/7.4/s3e/h/std/sched.h'
p1565
sbsS'IwSoundPCM.h'
p1566
g309
(g1503
g311
Ntp1567
Rp1568
(dp1569
g1507
g1092
sg1508
g1560
sg335
g1099
sbsS'IwGeomFMat2D.h'
p1570
g309
(g1503
g311
Ntp1571
Rp1572
(dp1573
g1507
g1225
sg1508
(lp1574
S"'Marmalade Studio'"
p1575
ag1221
asg335
g1241
sbsS'cassert'
p1576
g309
(g1503
g311
Ntp1577
Rp1578
(dp1579
g1507
g1515
sg1508
g1516
sg335
S'c:/marmalade/7.4/s3e/h/std/c++/cassert'
p1580
sbsS'grp.h'
p1581
g309
(g1503
g311
Ntp1582
Rp1583
(dp1584
g1507
g1515
sg1508
g1537
sg335
S'c:/marmalade/7.4/s3e/h/std/grp.h'
p1585
sbsS'list'
p1586
g309
(g1503
g311
Ntp1587
Rp1588
(dp1589
g1507
g1515
sg1508
g1516
sg335
S'c:/marmalade/7.4/s3e/h/std/c++/list'
p1590
sbsS'IwSoundSpec.cpp'
p1591
g309
(g1503
g311
Ntp1592
Rp1593
(dp1594
g1507
g1092
sg1508
g1560
sg335
g1130
sbsS'IwGeomMat.h.tpl'
p1595
g309
(g1503
g311
Ntp1596
Rp1597
(dp1598
g1507
g1225
sg1508
g1574
sg335
g1289
sbsS'istream'
p1599
g309
(g1503
g311
Ntp1600
Rp1601
(dp1602
g1507
g1515
sg1508
g1516
sg335
S'c:/marmalade/7.4/s3e/h/std/c++/istream'
p1603
sbsS'jpeglib.h'
p1604
g309
(g1503
g311
Ntp1605
Rp1606
(dp1607
g1507
g1048
sg1508
(lp1608
g1043
ag1033
asg335
g1053
sbsS'iw2d_public.defines.txt'
p1609
g309
(g1503
g311
Ntp1610
Rp1611
(dp1612
g1507
g1191
sg1508
(lp1613
S"'Marmalade Studio'"
p1614
ag1187
asg335
g1192
sbsS'iostream.h'
p1615
g309
(g1503
g311
Ntp1616
Rp1617
(dp1618
g1507
g1515
sg1508
g1516
sg335
S'c:/marmalade/7.4/s3e/h/std/c++/iostream.h'
p1619
sbsS'IwSoundADPCM.h'
p1620
g309
(g1503
g311
Ntp1621
Rp1622
(dp1623
g1507
g1092
sg1508
g1560
sg335
g1124
sbsS'string'
p1624
g309
(g1503
g311
Ntp1625
Rp1626
(dp1627
g1507
g1515
sg1508
g1516
sg335
S'c:/marmalade/7.4/s3e/h/std/c++/string'
p1628
sbsS'IwMemory.h'
p1629
g309
(g1503
g311
Ntp1630
Rp1631
(dp1632
g1507
g1389
sg1508
g1544
sg335
g1430
sbsS'IwGeomPlane.h'
p1633
g309
(g1503
g311
Ntp1634
Rp1635
(dp1636
g1507
g1225
sg1508
g1574
sg335
g1255
sbsS'iw2d.config.txt'
p1637
g309
(g1503
g311
Ntp1638
Rp1639
(dp1640
g1507
g1191
sg1508
g1613
sg335
g1189
sbsS'iomanip'
p1641
g309
(g1503
g311
Ntp1642
Rp1643
(dp1644
g1507
g1515
sg1508
g1516
sg335
S'c:/marmalade/7.4/s3e/h/std/c++/iomanip'
p1645
sbsS'iwgeom.mkf'
p1646
g309
(g1503
g311
Ntp1647
Rp1648
(dp1649
g1507
g1232
sg1508
g1574
sg335
g1230
sbsS'IwGxError.h'
p1650
g309
(g1503
g311
Ntp1651
Rp1652
(dp1653
g1507
g1325
sg1508
(lp1654
S"'Marmalade Studio'"
p1655
ag1321
asg335
g1358
sbsS'IwGeom.h'
p1656
g309
(g1503
g311
Ntp1657
Rp1658
(dp1659
g1507
g1225
sg1508
g1574
sg335
g1287
sbsS'IwGeomVec4.h'
p1660
g309
(g1503
g311
Ntp1661
Rp1662
(dp1663
g1507
g1225
sg1508
g1574
sg335
g1273
sbsS'dir.h'
p1664
g309
(g1503
g311
Ntp1665
Rp1666
(dp1667
g1507
g1515
sg1508
(lp1668
g1517
aS'stdc headers'
p1669
aS'sys'
p1670
asg335
S'c:/marmalade/7.4/s3e/h/std/sys/dir.h'
p1671
sbsS'locale.h'
p1672
g309
(g1503
g311
Ntp1673
Rp1674
(dp1675
g1507
g1515
sg1508
g1537
sg335
S'c:/marmalade/7.4/s3e/h/std/locale.h'
p1676
sbsS'vector'
p1677
g309
(g1503
g311
Ntp1678
Rp1679
(dp1680
g1507
g1515
sg1508
g1516
sg335
S'c:/marmalade/7.4/s3e/h/std/c++/vector'
p1681
sbsS'IwManaged.h'
p1682
g309
(g1503
g311
Ntp1683
Rp1684
(dp1685
g1507
g1389
sg1508
g1544
sg335
g1412
sbsS's3eCompass.h'
p1686
g309
(g1503
g311
Ntp1687
Rp1688
(dp1689
g1507
g1515
sg1508
g1531
sg335
S'c:/marmalade/7.4/s3e/h/s3eCompass.h'
p1690
sbsS'cderror.h'
p1691
g309
(g1503
g311
Ntp1692
Rp1693
(dp1694
g1507
g1048
sg1508
g1608
sg335
g1061
sbsS'climits'
p1695
g309
(g1503
g311
Ntp1696
Rp1697
(dp1698
g1507
g1515
sg1508
g1516
sg335
S'c:/marmalade/7.4/s3e/h/std/c++/climits'
p1699
sbsS'ipc.h'
p1700
g309
(g1503
g311
Ntp1701
Rp1702
(dp1703
g1507
g1515
sg1508
g1668
sg335
S'c:/marmalade/7.4/s3e/h/std/sys/ipc.h'
p1704
sbsS'jversion.h'
p1705
g309
(g1503
g311
Ntp1706
Rp1707
(dp1708
g1507
g1048
sg1508
g1608
sg335
g1065
sbsS'fnmatch.h'
p1709
g309
(g1503
g311
Ntp1710
Rp1711
(dp1712
g1507
g1515
sg1508
g1537
sg335
S'c:/marmalade/7.4/s3e/h/std/fnmatch.h'
p1713
sbsS'IwGxState.h'
p1714
g309
(g1503
g311
Ntp1715
Rp1716
(dp1717
g1507
g1325
sg1508
g1654
sg335
g1340
sbsS's3eAudio.h'
p1718
g309
(g1503
g311
Ntp1719
Rp1720
(dp1721
g1507
g1515
sg1508
g1531
sg335
S'c:/marmalade/7.4/s3e/h/s3eAudio.h'
p1722
sbsS's3eSurface.h'
p1723
g309
(g1503
g311
Ntp1724
Rp1725
(dp1726
g1507
g1515
sg1508
g1531
sg335
S'c:/marmalade/7.4/s3e/h/s3eSurface.h'
p1727
sbsS'new'
p1728
g309
(g1503
g311
Ntp1729
Rp1730
(dp1731
g1507
g1515
sg1508
g1516
sg335
S'c:/marmalade/7.4/s3e/h/std/c++/new'
p1732
sbsS's3eWindow.h'
p1733
g309
(g1503
g311
Ntp1734
Rp1735
(dp1736
g1507
g1515
sg1508
(lp1737
g1517
aS'Extensions'
p1738
asg335
S'c:/marmalade/7.4/s3e/h/ext/s3eWindow.h'
p1739
sbsS'IwBuffer.h'
p1740
g309
(g1503
g311
Ntp1741
Rp1742
(dp1743
g1507
g1389
sg1508
g1544
sg335
g1400
sbsS'stdio_streambuf'
p1744
g309
(g1503
g311
Ntp1745
Rp1746
(dp1747
g1507
g1515
sg1508
g1516
sg335
S'c:/marmalade/7.4/s3e/h/std/c++/stdio_streambuf'
p1748
sbsS'IwGeomQuat.h.tpl'
p1749
g309
(g1503
g311
Ntp1750
Rp1751
(dp1752
g1507
g1225
sg1508
g1574
sg335
g1257
sbsS's3eOSExec.h'
p1753
g309
(g1503
g311
Ntp1754
Rp1755
(dp1756
g1507
g1515
sg1508
g1737
sg335
S'c:/marmalade/7.4/s3e/h/ext/s3eOSExec.h'
p1757
sbsS'IwGxTransformSW.h'
p1758
g309
(g1503
g311
Ntp1759
Rp1760
(dp1761
g1507
g1325
sg1508
g1654
sg335
g1362
sbsS'IwGxMetrics.h'
p1762
g309
(g1503
g311
Ntp1763
Rp1764
(dp1765
g1507
g1325
sg1508
g1654
sg335
g1356
sbsS'iwgxfont.config.txt'
p1766
g309
(g1503
g311
Ntp1767
Rp1768
(dp1769
g1507
g1203
sg1508
g1509
sg335
g1206
sbsS'gl2platform.h'
p1770
g309
(g1503
g311
Ntp1771
Rp1772
(dp1773
g1507
g1515
sg1508
(lp1774
g1517
aS'GL'
p1775
aS'GLES 2.0'
p1776
asg335
S'c:/marmalade/7.4/s3e/h/GLES2/gl2platform.h'
p1777
sbsS'IwResManagerClass.h'
p1778
g309
(g1503
g311
Ntp1779
Rp1780
(dp1781
g1507
g1301
sg1508
(lp1782
g1161
ag1297
asg335
g1306
sbsS'queue'
p1783
g309
(g1503
g311
Ntp1784
Rp1785
(dp1786
g1507
g1515
sg1508
g1516
sg335
S'c:/marmalade/7.4/s3e/h/std/c++/queue'
p1787
sbsS'time_1.h'
p1788
g309
(g1503
g311
Ntp1789
Rp1790
(dp1791
g1507
g1515
sg1508
g1668
sg335
S'c:/marmalade/7.4/s3e/h/std/sys/time.h'
p1792
sbsS'Iw2D.h'
p1793
g309
(g1503
g311
Ntp1794
Rp1795
(dp1796
g1507
g1191
sg1508
g1613
sg335
g1194
sbsS'IwGeomVec2.h'
p1797
g309
(g1503
g311
Ntp1798
Rp1799
(dp1800
g1507
g1225
sg1508
g1574
sg335
g1265
sbsS's3eDevice.h'
p1801
g309
(g1503
g311
Ntp1802
Rp1803
(dp1804
g1507
g1515
sg1508
g1531
sg335
S'c:/marmalade/7.4/s3e/h/s3eDevice.h'
p1805
sbsS'malloc.h'
p1806
g309
(g1503
g311
Ntp1807
Rp1808
(dp1809
g1507
g1515
sg1508
g1537
sg335
S'c:/marmalade/7.4/s3e/h/std/malloc.h'
p1810
sbsS'stdarg.h'
p1811
g309
(g1503
g311
Ntp1812
Rp1813
(dp1814
g1507
g1515
sg1508
g1537
sg335
S'c:/marmalade/7.4/s3e/h/std/stdarg.h'
p1815
sbsS'IwGeomCore.h'
p1816
g309
(g1503
g311
Ntp1817
Rp1818
(dp1819
g1507
g1225
sg1508
g1574
sg335
g1271
sbsS'Iw2DSceneGraph.h'
p1820
g309
(g1503
g311
Ntp1821
Rp1822
(dp1823
g1507
g1167
sg1508
(lp1824
S"'Marmalade Studio'"
p1825
ag1163
asg335
g1165
sbsS'endian.h'
p1826
g309
(g1503
g311
Ntp1827
Rp1828
(dp1829
g1507
g1515
sg1508
g1537
sg335
S'c:/marmalade/7.4/s3e/h/std/endian.h'
p1830
sbsS'gl3ext.h'
p1831
g309
(g1503
g311
Ntp1832
Rp1833
(dp1834
g1507
g1515
sg1508
(lp1835
g1517
aS'GL'
p1836
aS'GLES 3.0'
p1837
asg335
S'c:/marmalade/7.4/s3e/h/GLES3/gl3ext.h'
p1838
sbsS'glob.h'
p1839
g309
(g1503
g311
Ntp1840
Rp1841
(dp1842
g1507
g1515
sg1508
g1537
sg335
S'c:/marmalade/7.4/s3e/h/std/glob.h'
p1843
sbsS'fstream'
p1844
g309
(g1503
g311
Ntp1845
Rp1846
(dp1847
g1507
g1515
sg1508
g1516
sg335
S'c:/marmalade/7.4/s3e/h/std/c++/fstream'
p1848
sbsS's3eCamera.h'
p1849
g309
(g1503
g311
Ntp1850
Rp1851
(dp1852
g1507
g1515
sg1508
g1531
sg335
S'c:/marmalade/7.4/s3e/h/s3eCamera.h'
p1853
sbsS'jconfig.h'
p1854
g309
(g1503
g311
Ntp1855
Rp1856
(dp1857
g1507
g1048
sg1508
g1608
sg335
g1059
sbsS'memory'
p1858
g309
(g1503
g311
Ntp1859
Rp1860
(dp1861
g1507
g1515
sg1508
g1516
sg335
S'c:/marmalade/7.4/s3e/h/std/c++/memory'
p1862
sbsS'egl.h'
p1863
g309
(g1503
g311
Ntp1864
Rp1865
(dp1866
g1507
g1515
sg1508
(lp1867
g1517
aS'GL'
p1868
aS'EGL'
p1869
asg335
S'c:/marmalade/7.4/s3e/h/EGL/egl.h'
p1870
sbsS'IwClip.inl'
p1871
g309
(g1503
g311
Ntp1872
Rp1873
(dp1874
g1507
g1325
sg1508
g1654
sg335
g1328
sbsS'IwMemManagerDL.h'
p1875
g309
(g1503
g311
Ntp1876
Rp1877
(dp1878
g1507
g1389
sg1508
g1544
sg335
g1483
sbsS'deque'
p1879
g309
(g1503
g311
Ntp1880
Rp1881
(dp1882
g1507
g1515
sg1508
g1516
sg335
S'c:/marmalade/7.4/s3e/h/std/c++/deque'
p1883
sbsS'IwString.h'
p1884
g309
(g1503
g311
Ntp1885
Rp1886
(dp1887
g1507
g1389
sg1508
g1544
sg335
g1468
sbsS'cwchar'
p1888
g309
(g1503
g311
Ntp1889
Rp1890
(dp1891
g1507
g1515
sg1508
g1516
sg335
S'c:/marmalade/7.4/s3e/h/std/c++/cwchar'
p1892
sbsS'iwutil.mkf'
p1893
g309
(g1503
g311
Ntp1894
Rp1895
(dp1896
g1507
g1472
sg1508
g1544
sg335
g1470
sbsS'csignal'
p1897
g309
(g1503
g311
Ntp1898
Rp1899
(dp1900
g1507
g1515
sg1508
g1516
sg335
S'c:/marmalade/7.4/s3e/h/std/c++/csignal'
p1901
sbsS'float.h'
p1902
g309
(g1503
g311
Ntp1903
Rp1904
(dp1905
g1507
g1515
sg1508
g1537
sg335
S'c:/marmalade/7.4/s3e/h/std/float.h'
p1906
sbsS'pthread_alloc'
p1907
g309
(g1503
g311
Ntp1908
Rp1909
(dp1910
g1507
g1515
sg1508
g1516
sg335
S'c:/marmalade/7.4/s3e/h/std/c++/pthread_alloc'
p1911
sbsS'getopt.h'
p1912
g309
(g1503
g311
Ntp1913
Rp1914
(dp1915
g1507
g1515
sg1508
g1537
sg335
S'c:/marmalade/7.4/s3e/h/std/getopt.h'
p1916
sbsS'IwOptimiseARM.h'
p1917
g309
(g1503
g311
Ntp1918
Rp1919
(dp1920
g1507
g1389
sg1508
g1544
sg335
g1444
sbsS'times.h'
p1921
g309
(g1503
g311
Ntp1922
Rp1923
(dp1924
g1507
g1515
sg1508
g1668
sg335
S'c:/marmalade/7.4/s3e/h/std/sys/times.h'
p1925
sbsS'IwGeomFSphere.h'
p1926
g309
(g1503
g311
Ntp1927
Rp1928
(dp1929
g1507
g1225
sg1508
g1574
sg335
g1235
sbsS'IwTypes.h'
p1930
g309
(g1503
g311
Ntp1931
Rp1932
(dp1933
g1507
g1389
sg1508
g1544
sg335
g1426
sbsS'unistd.h'
p1934
g309
(g1503
g311
Ntp1935
Rp1936
(dp1937
g1507
g1515
sg1508
g1537
sg335
S'c:/marmalade/7.4/s3e/h/std/unistd.h'
p1938
sbsS's3eCompression.h'
p1939
g309
(g1503
g311
Ntp1940
Rp1941
(dp1942
g1507
g1515
sg1508
g1531
sg335
S'c:/marmalade/7.4/s3e/h/s3eCompression.h'
p1943
sbsS'langinfo.h'
p1944
g309
(g1503
g311
Ntp1945
Rp1946
(dp1947
g1507
g1515
sg1508
g1537
sg335
S'c:/marmalade/7.4/s3e/h/std/langinfo.h'
p1948
sbsS's3edebugHeap.h'
p1949
g309
(g1503
g311
Ntp1950
Rp1951
(dp1952
g1507
g1515
sg1508
g1737
sg335
S'c:/marmalade/7.4/s3e/h/ext/s3edebugHeap.h'
p1953
sbsS'AirplayVersion.h'
p1954
g309
(g1503
g311
Ntp1955
Rp1956
(dp1957
g1507
g1515
sg1508
g1531
sg335
S'c:/marmalade/7.4/s3e/h/AirplayVersion.h'
p1958
sbsS'gl2extimg.h'
p1959
g309
(g1503
g311
Ntp1960
Rp1961
(dp1962
g1507
g1515
sg1508
g1774
sg335
S'c:/marmalade/7.4/s3e/h/GLES2/gl2extimg.h'
p1963
sbsS'app.config.txt'
p1964
g309
(g1503
g311
Ntp1965
Rp1966
(dp1967
g1507
(dp1968
sg1508
g4
sg335
S'e:/Documents/Michiel/Programmeren/Marmalade/MVSStage3/data/app.config.txt'
p1969
sbsS'IwGeomSqrt.h'
p1970
g309
(g1503
g311
Ntp1971
Rp1972
(dp1973
g1507
g1225
sg1508
g1574
sg335
g1295
sbsS'tiniconv_int.h'
p1974
g309
(g1503
g311
Ntp1975
Rp1976
(dp1977
g1507
g1082
sg1508
(lp1978
g1078
asg335
g1080
sbsS'syslog.h'
p1979
g309
(g1503
g311
Ntp1980
Rp1981
(dp1982
g1507
g1515
sg1508
g1537
sg335
S'c:/marmalade/7.4/s3e/h/std/syslog.h'
p1983
sbsS'IwGxFontTypes.h'
p1984
g309
(g1503
g311
Ntp1985
Rp1986
(dp1987
g1507
g1203
sg1508
g1509
sg335
g1210
sbsS'IwGeomFIntersect.h'
p1988
g309
(g1503
g311
Ntp1989
Rp1990
(dp1991
g1507
g1225
sg1508
g1574
sg335
g1226
sbsS'hash_map'
p1992
g309
(g1503
g311
Ntp1993
Rp1994
(dp1995
g1507
g1515
sg1508
g1516
sg335
S'c:/marmalade/7.4/s3e/h/std/c++/hash_map'
p1996
sbsS's3e.mkf'
p1997
g309
(g1503
g311
Ntp1998
Rp1999
(dp2000
g1507
(dp2001
sg1508
g1531
sg335
S'c:/marmalade/7.4/s3e/s3e.mkf'
p2002
sbsS'IwGeomMat2D.h.tpl'
p2003
g309
(g1503
g311
Ntp2004
Rp2005
(dp2006
g1507
g1225
sg1508
g1574
sg335
g1228
sbsS's3eOSReadString.h'
p2007
g309
(g1503
g311
Ntp2008
Rp2009
(dp2010
g1507
g1515
sg1508
g1737
sg335
S'c:/marmalade/7.4/s3e/h/ext/s3eOSReadString.h'
p2011
sbsS'IwSound.h'
p2012
g309
(g1503
g311
Ntp2013
Rp2014
(dp2015
g1507
g1092
sg1508
g1560
sg335
g1128
sbsS'map'
p2016
g309
(g1503
g311
Ntp2017
Rp2018
(dp2019
g1507
g1515
sg1508
g1516
sg335
S'c:/marmalade/7.4/s3e/h/std/c++/map'
p2020
sbsS'IwOptimiseSpeed.h'
p2021
g309
(g1503
g311
Ntp2022
Rp2023
(dp2024
g1507
g1389
sg1508
g1544
sg335
g1454
sbsS'ostream'
p2025
g309
(g1503
g311
Ntp2026
Rp2027
(dp2028
g1507
g1515
sg1508
g1516
sg335
S'c:/marmalade/7.4/s3e/h/std/c++/ostream'
p2029
sbsS'msl_string.h'
p2030
g309
(g1503
g311
Ntp2031
Rp2032
(dp2033
g1507
g1515
sg1508
g1516
sg335
S'c:/marmalade/7.4/s3e/h/std/c++/msl_string.h'
p2034
sbsS'select.h'
p2035
g309
(g1503
g311
Ntp2036
Rp2037
(dp2038
g1507
g1515
sg1508
g1668
sg335
S'c:/marmalade/7.4/s3e/h/std/sys/select.h'
p2039
sbsS'zlib.mkf'
p2040
g309
(g1503
g311
Ntp2041
Rp2042
(dp2043
g1507
g1499
sg1508
(lp2044
g1489
asg335
g1497
sbsS'signal.h'
p2045
g309
(g1503
g311
Ntp2046
Rp2047
(dp2048
g1507
g1515
sg1508
g1537
sg335
S'c:/marmalade/7.4/s3e/h/std/signal.h'
p2049
sbsS'sigcontext.h'
p2050
g309
(g1503
g311
Ntp2051
Rp2052
(dp2053
g1507
g1515
sg1508
g1537
sg335
S'c:/marmalade/7.4/s3e/h/std/sigcontext.h'
p2054
sbsS'libpng.mkf'
p2055
g309
(g1503
g311
Ntp2056
Rp2057
(dp2058
g1507
g1042
sg1508
(lp2059
g1031
asg335
g1040
sbsS's3eClipboard.h'
p2060
g309
(g1503
g311
Ntp2061
Rp2062
(dp2063
g1507
g1515
sg1508
g1531
sg335
S'c:/marmalade/7.4/s3e/h/s3eClipboard.h'
p2064
sbsS'IwGxFuncTable.h'
p2065
g309
(g1503
g311
Ntp2066
Rp2067
(dp2068
g1507
g1325
sg1508
g1654
sg335
g1326
sbsS'IwResHandlerGROUP.h'
p2069
g309
(g1503
g311
Ntp2070
Rp2071
(dp2072
g1507
g1301
sg1508
g1782
sg335
g1310
sbsS's3eDebug.h'
p2073
g309
(g1503
g311
Ntp2074
Rp2075
(dp2076
g1507
g1515
sg1508
g1531
sg335
S'c:/marmalade/7.4/s3e/h/s3eDebug.h'
p2077
sbsS'socket.h'
p2078
g309
(g1503
g311
Ntp2079
Rp2080
(dp2081
g1507
g1515
sg1508
g1668
sg335
S'c:/marmalade/7.4/s3e/h/std/sys/socket.h'
p2082
sbsS'glext.h'
p2083
g309
(g1503
g311
Ntp2084
Rp2085
(dp2086
g1507
g1515
sg1508
(lp2087
g1517
aS'GL'
p2088
aS'GLES 1.x'
p2089
asg335
S'c:/marmalade/7.4/s3e/h/GLES/glext.h'
p2090
sbsS'typeinfo.h'
p2091
g309
(g1503
g311
Ntp2092
Rp2093
(dp2094
g1507
g1515
sg1508
g1516
sg335
S'c:/marmalade/7.4/s3e/h/std/c++/typeinfo.h'
p2095
sbsS'typeinfo'
p2096
g309
(g1503
g311
Ntp2097
Rp2098
(dp2099
g1507
g1515
sg1508
g1516
sg335
S'c:/marmalade/7.4/s3e/h/std/c++/typeinfo'
p2100
sbsS'iwsound.config.txt'
p2101
g309
(g1503
g311
Ntp2102
Rp2103
(dp2104
g1507
g1092
sg1508
(lp2105
g1088
ag1101
asg335
g1103
sbsS'fstream.h'
p2106
g309
(g1503
g311
Ntp2107
Rp2108
(dp2109
g1507
g1515
sg1508
g1516
sg335
S'c:/marmalade/7.4/s3e/h/std/c++/fstream.h'
p2110
sbsS's3ePointer.h'
p2111
g309
(g1503
g311
Ntp2112
Rp2113
(dp2114
g1507
g1515
sg1508
g1531
sg335
S'c:/marmalade/7.4/s3e/h/s3ePointer.h'
p2115
sbsS'IwMemBucket.h'
p2116
g309
(g1503
g311
Ntp2117
Rp2118
(dp2119
g1507
g1389
sg1508
g1544
sg335
g1450
sbsS'PVRTexTool.h'
p2120
g309
(g1503
g311
Ntp2121
Rp2122
(dp2123
g1507
g1153
sg1508
(lp2124
g1145
ag1147
asg335
g1159
sbsS's3eGL.h'
p2125
g309
(g1503
g311
Ntp2126
Rp2127
(dp2128
g1507
g1515
sg1508
g1531
sg335
S'c:/marmalade/7.4/s3e/h/s3eGL.h'
p2129
sbsS'IwGeomFVec2.h'
p2130
g309
(g1503
g311
Ntp2131
Rp2132
(dp2133
g1507
g1225
sg1508
g1574
sg335
g1251
sbsS'IwGeomSVec4.h'
p2134
g309
(g1503
g311
Ntp2135
Rp2136
(dp2137
g1507
g1225
sg1508
g1574
sg335
g1249
sbsS'poll.h'
p2138
g309
(g1503
g311
Ntp2139
Rp2140
(dp2141
g1507
g1515
sg1508
g1537
sg335
S'c:/marmalade/7.4/s3e/h/std/poll.h'
p2142
sbsS'IwMatAnim.h'
p2143
g309
(g1503
g311
Ntp2144
Rp2145
(dp2146
g1507
g1325
sg1508
g1654
sg335
g1350
sbsS'IwGeomFVec4.h'
p2147
g309
(g1503
g311
Ntp2148
Rp2149
(dp2150
g1507
g1225
sg1508
g1574
sg335
g1243
sbsS'IwGx.h'
p2151
g309
(g1503
g311
Ntp2152
Rp2153
(dp2154
g1507
g1325
sg1508
g1654
sg335
g1332
sbsS'valarray'
p2155
g309
(g1503
g311
Ntp2156
Rp2157
(dp2158
g1507
g1515
sg1508
g1516
sg335
S'c:/marmalade/7.4/s3e/h/std/c++/valarray'
p2159
sbsS'iosfwd'
p2160
g309
(g1503
g311
Ntp2161
Rp2162
(dp2163
g1507
g1515
sg1508
g1516
sg335
S'c:/marmalade/7.4/s3e/h/std/c++/iosfwd'
p2164
sbsS'gl2.h'
p2165
g309
(g1503
g311
Ntp2166
Rp2167
(dp2168
g1507
g1515
sg1508
g1774
sg335
S'c:/marmalade/7.4/s3e/h/GLES2/gl2.h'
p2169
sbsS'jpegint.h'
p2170
g309
(g1503
g311
Ntp2171
Rp2172
(dp2173
g1507
g1048
sg1508
g1608
sg335
g1071
sbsS'stdiostream.h'
p2174
g309
(g1503
g311
Ntp2175
Rp2176
(dp2177
g1507
g1515
sg1508
g1516
sg335
S'c:/marmalade/7.4/s3e/h/std/c++/stdiostream.h'
p2178
sbsS'mem.h'
p2179
g309
(g1503
g311
Ntp2180
Rp2181
(dp2182
g1507
g1515
sg1508
g1516
sg335
S'c:/marmalade/7.4/s3e/h/std/c++/mem.h'
p2183
sbsS'jerror.h'
p2184
g309
(g1503
g311
Ntp2185
Rp2186
(dp2187
g1507
g1048
sg1508
g1608
sg335
g1046
sbsS'zconf.h'
p2188
g309
(g1503
g311
Ntp2189
Rp2190
(dp2191
g1507
g1494
sg1508
(lp2192
g1489
ag1033
asg335
g1492
sbsS's3e.config.txt'
p2193
g309
(g1503
g311
Ntp2194
Rp2195
(dp2196
g1507
g1515
sg1508
g1531
sg335
S'c:/marmalade/7.4/s3e/s3e.config.txt'
p2197
sbsS'numeric'
p2198
g309
(g1503
g311
Ntp2199
Rp2200
(dp2201
g1507
g1515
sg1508
g1516
sg335
S'c:/marmalade/7.4/s3e/h/std/c++/numeric'
p2202
sbsS'utime.h'
p2203
g309
(g1503
g311
Ntp2204
Rp2205
(dp2206
g1507
g1515
sg1508
g1537
sg335
S'c:/marmalade/7.4/s3e/h/std/utime.h'
p2207
sbsS'jdhuff.h'
p2208
g309
(g1503
g311
Ntp2209
Rp2210
(dp2211
g1507
g1048
sg1508
g1608
sg335
g1069
sbsS'IwResHandlerWAV.cpp'
p2212
g309
(g1503
g311
Ntp2213
Rp2214
(dp2215
g1507
g1092
sg1508
g1560
sg335
g1122
sbsS'IwGxStream.h'
p2216
g309
(g1503
g311
Ntp2217
Rp2218
(dp2219
g1507
g1325
sg1508
g1654
sg335
g1352
sbsS'IwImage.h'
p2220
g309
(g1503
g311
Ntp2221
Rp2222
(dp2223
g1507
g1389
sg1508
g1544
sg335
g1446
sbsS's3eImagePicker.h'
p2224
g309
(g1503
g311
Ntp2225
Rp2226
(dp2227
g1507
g1515
sg1508
g1737
sg335
S'c:/marmalade/7.4/s3e/h/ext/s3eImagePicker.h'
p2228
sbsS'stdlib.h'
p2229
g309
(g1503
g311
Ntp2230
Rp2231
(dp2232
g1507
g1515
sg1508
g1537
sg335
S'c:/marmalade/7.4/s3e/h/std/stdlib.h'
p2233
sbsS'IwCopyingPtr.h'
p2234
g309
(g1503
g311
Ntp2235
Rp2236
(dp2237
g1507
g1389
sg1508
g1544
sg335
g1394
sbsS'iostream'
p2238
g309
(g1503
g311
Ntp2239
Rp2240
(dp2241
g1507
g1515
sg1508
g1516
sg335
S'c:/marmalade/7.4/s3e/h/std/c++/iostream'
p2242
sbsS'png.h'
p2243
g309
(g1503
g311
Ntp2244
Rp2245
(dp2246
g1507
g1037
sg1508
(lp2247
g1031
ag1033
asg335
g1035
sbsS'stddef.h'
p2248
g309
(g1503
g311
Ntp2249
Rp2250
(dp2251
g1507
g1515
sg1508
g1537
sg335
S'c:/marmalade/7.4/s3e/h/std/stddef.h'
p2252
sbsS'setjmp_win32.h'
p2253
g309
(g1503
g311
Ntp2254
Rp2255
(dp2256
g1507
g1515
sg1508
g1537
sg335
S'c:/marmalade/7.4/s3e/h/std/setjmp_win32.h'
p2257
sbsS'IwGxPrint.h'
p2258
g309
(g1503
g311
Ntp2259
Rp2260
(dp2261
g1507
g1325
sg1508
g1654
sg335
g1330
sbsS'iwgx_public.defines.txt'
p2262
g309
(g1503
g311
Ntp2263
Rp2264
(dp2265
g1507
g1325
sg1508
g1654
sg335
g1367
sbsS'streambuf.h'
p2266
g309
(g1503
g311
Ntp2267
Rp2268
(dp2269
g1507
g1515
sg1508
g1516
sg335
S'c:/marmalade/7.4/s3e/h/std/c++/streambuf.h'
p2270
sbsS'IwGeomFPlane.h'
p2271
g309
(g1503
g311
Ntp2272
Rp2273
(dp2274
g1507
g1225
sg1508
g1574
sg335
g1291
sbsS'wchar.h'
p2275
g309
(g1503
g311
Ntp2276
Rp2277
(dp2278
g1507
g1515
sg1508
g1537
sg335
S'c:/marmalade/7.4/s3e/h/std/wchar.h'
p2279
sbsS's3eCameraCapture.h'
p2280
g309
(g1503
g311
Ntp2281
Rp2282
(dp2283
g1507
g1515
sg1508
g1737
sg335
S'c:/marmalade/7.4/s3e/h/ext/s3eCameraCapture.h'
p2284
sbsS'eglext.h'
p2285
g309
(g1503
g311
Ntp2286
Rp2287
(dp2288
g1507
g1515
sg1508
g1867
sg335
S'c:/marmalade/7.4/s3e/h/EGL/eglext.h'
p2289
sbsS'IwResHandlerImage.h'
p2290
g309
(g1503
g311
Ntp2291
Rp2292
(dp2293
g1507
g1301
sg1508
g1782
sg335
g1315
sbsS'strstream.h'
p2294
g309
(g1503
g311
Ntp2295
Rp2296
(dp2297
g1507
g1515
sg1508
g1516
sg335
S'c:/marmalade/7.4/s3e/h/std/c++/strstream.h'
p2298
sbsS'tiniconv.h'
p2299
g309
(g1503
g311
Ntp2300
Rp2301
(dp2302
g1507
g1082
sg1508
g1978
sg335
g1086
sbsS'IwGLExt.h'
p2303
g309
(g1503
g311
Ntp2304
Rp2305
(dp2306
g1507
g1182
sg1508
g1525
sg335
g1185
sbsS'app.icf'
p2307
g309
(g1503
g311
Ntp2308
Rp2309
(dp2310
g1507
(dp2311
sg1508
g4
sg335
S'e:/Documents/Michiel/Programmeren/Marmalade/MVSStage3/data/app.icf'
p2312
sbsS'IwClassFactory.h'
p2313
g309
(g1503
g311
Ntp2314
Rp2315
(dp2316
g1507
g1389
sg1508
g1544
sg335
g1424
sbsS'file.h'
p2317
g309
(g1503
g311
Ntp2318
Rp2319
(dp2320
g1507
g1515
sg1508
g1668
sg335
S'c:/marmalade/7.4/s3e/h/std/sys/file.h'
p2321
sbsS'cstring'
p2322
g309
(g1503
g311
Ntp2323
Rp2324
(dp2325
g1507
g1515
sg1508
g1516
sg335
S'c:/marmalade/7.4/s3e/h/std/c++/cstring'
p2326
sbsS'IwSoundInst.cpp'
p2327
g309
(g1503
g311
Ntp2328
Rp2329
(dp2330
g1507
g1092
sg1508
g1560
sg335
g1134
sbsS'iwutil.config.txt'
p2331
g309
(g1503
g311
Ntp2332
Rp2333
(dp2334
g1507
g1389
sg1508
g1544
sg335
g1458
sbsS's3eSMS.h'
p2335
g309
(g1503
g311
Ntp2336
Rp2337
(dp2338
g1507
g1515
sg1508
g1737
sg335
S'c:/marmalade/7.4/s3e/h/ext/s3eSMS.h'
p2339
sbsS'limits.h'
p2340
g309
(g1503
g311
Ntp2341
Rp2342
(dp2343
g1507
g1515
sg1508
g1537
sg335
S'c:/marmalade/7.4/s3e/h/std/limits.h'
p2344
sbsS'iwgl.config.txt'
p2345
g309
(g1503
g311
Ntp2346
Rp2347
(dp2348
g1507
g1182
sg1508
g1525
sg335
g1180
sbsS'IwMaterial.h'
p2349
g309
(g1503
g311
Ntp2350
Rp2351
(dp2352
g1507
g1325
sg1508
g1654
sg335
g1346
sbsS'PVRTexTool_interface.cpp'
p2353
g309
(g1503
g311
Ntp2354
Rp2355
(dp2356
g1507
g1153
sg1508
(lp2357
g1145
ag1147
ag1149
asg335
g1151
sbsS'IwGxSurface.h'
p2358
g309
(g1503
g311
Ntp2359
Rp2360
(dp2361
g1507
g1325
sg1508
g1654
sg335
g1373
sbsS's3eSocket.h'
p2362
g309
(g1503
g311
Ntp2363
Rp2364
(dp2365
g1507
g1515
sg1508
g1531
sg335
S'c:/marmalade/7.4/s3e/h/s3eSocket.h'
p2366
sbsS'IwAutoFile.h'
p2367
g309
(g1503
g311
Ntp2368
Rp2369
(dp2370
g1507
g1389
sg1508
g1544
sg335
g1475
sbsS's3eVibra.h'
p2371
g309
(g1503
g311
Ntp2372
Rp2373
(dp2374
g1507
g1515
sg1508
g1531
sg335
S'c:/marmalade/7.4/s3e/h/s3eVibra.h'
p2375
sbsS'poll_1.h'
p2376
g309
(g1503
g311
Ntp2377
Rp2378
(dp2379
g1507
g1515
sg1508
g1668
sg335
S'c:/marmalade/7.4/s3e/h/std/sys/poll.h'
p2380
sbsS's3eThread.h'
p2381
g309
(g1503
g311
Ntp2382
Rp2383
(dp2384
g1507
g1515
sg1508
g1531
sg335
S'c:/marmalade/7.4/s3e/h/s3eThread.h'
p2385
sbsS'ucontext.h'
p2386
g309
(g1503
g311
Ntp2387
Rp2388
(dp2389
g1507
g1515
sg1508
g1537
sg335
S'c:/marmalade/7.4/s3e/h/std/ucontext.h'
p2390
sbsS'time.h'
p2391
g309
(g1503
g311
Ntp2392
Rp2393
(dp2394
g1507
g1515
sg1508
g1537
sg335
S'c:/marmalade/7.4/s3e/h/std/time.h'
p2395
sbsS'jchuff.h'
p2396
g309
(g1503
g311
Ntp2397
Rp2398
(dp2399
g1507
g1048
sg1508
g1608
sg335
g1051
sbsS'IwSoundPCM.cpp'
p2400
g309
(g1503
g311
Ntp2401
Rp2402
(dp2403
g1507
g1092
sg1508
g1560
sg335
g1116
sbsS's3eSoundRecord.h'
p2404
g309
(g1503
g311
Ntp2405
Rp2406
(dp2407
g1507
g1515
sg1508
g1531
sg335
S'c:/marmalade/7.4/s3e/h/s3eSoundRecord.h'
p2408
sbsS'IwFibre.h'
p2409
g309
(g1503
g311
Ntp2410
Rp2411
(dp2412
g1507
g1389
sg1508
g1544
sg335
g1466
sbsS's3eVersion.h'
p2413
g309
(g1503
g311
Ntp2414
Rp2415
(dp2416
g1507
g1515
sg1508
g1531
sg335
S'c:/marmalade/7.4/s3e/h/s3eVersion.h'
p2417
sbsS'IwSoundGroup.h'
p2418
g309
(g1503
g311
Ntp2419
Rp2420
(dp2421
g1507
g1092
sg1508
g1560
sg335
g1105
sbsS'IwSoundWAV.h'
p2422
g309
(g1503
g311
Ntp2423
Rp2424
(dp2425
g1507
g1092
sg1508
g1560
sg335
g1093
sbsS'IwGxFontGlyph.h'
p2426
g309
(g1503
g311
Ntp2427
Rp2428
(dp2429
g1507
g1203
sg1508
g1509
sg335
g1204
sbsS's3eTypes.h'
p2430
g309
(g1503
g311
Ntp2431
Rp2432
(dp2433
g1507
g1515
sg1508
g1531
sg335
S'c:/marmalade/7.4/s3e/h/s3eTypes.h'
p2434
sbsS'IwSoundSpec.h'
p2435
g309
(g1503
g311
Ntp2436
Rp2437
(dp2438
g1507
g1092
sg1508
g1560
sg335
g1118
sbsS'signal_2.h'
p2439
g309
(g1503
g311
Ntp2440
Rp2441
(dp2442
g1507
g1515
sg1508
g1516
sg335
S'c:/marmalade/7.4/s3e/h/std/c++/signal.h'
p2443
sbsS'termios.h'
p2444
g309
(g1503
g311
Ntp2445
Rp2446
(dp2447
g1507
g1515
sg1508
g1537
sg335
S'c:/marmalade/7.4/s3e/h/std/termios.h'
p2448
sbsS'iw2dscenegraph.mkf'
p2449
g309
(g1503
g311
Ntp2450
Rp2451
(dp2452
g1507
g1172
sg1508
g1824
sg335
g1170
sbsS'slist'
p2453
g309
(g1503
g311
Ntp2454
Rp2455
(dp2456
g1507
g1515
sg1508
g1516
sg335
S'c:/marmalade/7.4/s3e/h/std/c++/slist'
p2457
sbsS'cstdlib'
p2458
g309
(g1503
g311
Ntp2459
Rp2460
(dp2461
g1507
g1515
sg1508
g1516
sg335
S'c:/marmalade/7.4/s3e/h/std/c++/cstdlib'
p2462
sbsS's3eLocation.h'
p2463
g309
(g1503
g311
Ntp2464
Rp2465
(dp2466
g1507
g1515
sg1508
g1531
sg335
S'c:/marmalade/7.4/s3e/h/s3eLocation.h'
p2467
sbsS'IwMemBucketHelpers.h'
p2468
g309
(g1503
g311
Ntp2469
Rp2470
(dp2471
g1507
g1389
sg1508
g1544
sg335
g1438
sbsS's3eHash.h'
p2472
g309
(g1503
g311
Ntp2473
Rp2474
(dp2475
g1507
g1515
sg1508
g1531
sg335
S'c:/marmalade/7.4/s3e/h/s3eHash.h'
p2476
sbsS'IwSoundGroup.cpp'
p2477
g309
(g1503
g311
Ntp2478
Rp2479
(dp2480
g1507
g1092
sg1508
g1560
sg335
g1112
sbsS'IwGeomFMat.h'
p2481
g309
(g1503
g311
Ntp2482
Rp2483
(dp2484
g1507
g1225
sg1508
g1574
sg335
g1293
sbsS'type_traits.h'
p2485
g309
(g1503
g311
Ntp2486
Rp2487
(dp2488
g1507
g1515
sg1508
g1516
sg335
S'c:/marmalade/7.4/s3e/h/std/c++/type_traits.h'
p2489
sbsS'IwMenu.h'
p2490
g309
(g1503
g311
Ntp2491
Rp2492
(dp2493
g1507
g1389
sg1508
g1544
sg335
g1390
sbsS'IwResHandlerITX.h'
p2494
g309
(g1503
g311
Ntp2495
Rp2496
(dp2497
g1507
g1301
sg1508
g1782
sg335
g1299
sbsS'IwSoundData.h'
p2498
g309
(g1503
g311
Ntp2499
Rp2500
(dp2501
g1507
g1092
sg1508
g1560
sg335
g1132
sbsS'IwArray.h'
p2502
g309
(g1503
g311
Ntp2503
Rp2504
(dp2505
g1507
g1389
sg1508
g1544
sg335
g1456
sbsS'IwUTF8.h'
p2506
g309
(g1503
g311
Ntp2507
Rp2508
(dp2509
g1507
g1389
sg1508
g1544
sg335
g1460
sbsS'math_rvct.h'
p2510
g309
(g1503
g311
Ntp2511
Rp2512
(dp2513
g1507
g1515
sg1508
g1537
sg335
S'c:/marmalade/7.4/s3e/h/std/math_rvct.h'
p2514
sbsS'IwUtil.h'
p2515
g309
(g1503
g311
Ntp2516
Rp2517
(dp2518
g1507
g1389
sg1508
g1544
sg335
g1479
sbsS'IwFColour.h'
p2519
g309
(g1503
g311
Ntp2520
Rp2521
(dp2522
g1507
g1325
sg1508
g1654
sg335
g1336
sbsS'wctype.h'
p2523
g309
(g1503
g311
Ntp2524
Rp2525
(dp2526
g1507
g1515
sg1508
g1537
sg335
S'c:/marmalade/7.4/s3e/h/std/wctype.h'
p2527
sbsS'cstddef'
p2528
g309
(g1503
g311
Ntp2529
Rp2530
(dp2531
g1507
g1515
sg1508
g1516
sg335
S'c:/marmalade/7.4/s3e/h/std/c++/cstddef'
p2532
sbsS'assert.h'
p2533
g309
(g1503
g311
Ntp2534
Rp2535
(dp2536
g1507
g1515
sg1508
g1537
sg335
S'c:/marmalade/7.4/s3e/h/std/assert.h'
p2537
sbsS'mman.h'
p2538
g309
(g1503
g311
Ntp2539
Rp2540
(dp2541
g1507
g1515
sg1508
g1668
sg335
S'c:/marmalade/7.4/s3e/h/std/sys/mman.h'
p2542
sbsS'IwRandom.h'
p2543
g309
(g1503
g311
Ntp2544
Rp2545
(dp2546
g1507
g1389
sg1508
g1544
sg335
g1402
sbsS'libgen.h'
p2547
g309
(g1503
g311
Ntp2548
Rp2549
(dp2550
g1507
g1515
sg1508
g1537
sg335
S'c:/marmalade/7.4/s3e/h/std/libgen.h'
p2551
sbsS'utsname.h'
p2552
g309
(g1503
g311
Ntp2553
Rp2554
(dp2555
g1507
g1515
sg1508
g1668
sg335
S'c:/marmalade/7.4/s3e/h/std/sys/utsname.h'
p2556
sbsS'wait.h'
p2557
g309
(g1503
g311
Ntp2558
Rp2559
(dp2560
g1507
g1515
sg1508
g1668
sg335
S'c:/marmalade/7.4/s3e/h/std/sys/wait.h'
p2561
sbsS'param.h'
p2562
g309
(g1503
g311
Ntp2563
Rp2564
(dp2565
g1507
g1515
sg1508
g1668
sg335
S'c:/marmalade/7.4/s3e/h/std/sys/param.h'
p2566
sbsS'IwDivide.h'
p2567
g309
(g1503
g311
Ntp2568
Rp2569
(dp2570
g1507
g1389
sg1508
g1544
sg335
g1452
sbsS'Iw2DSceneGraphCore.cpp'
p2571
g309
(g1503
g311
Ntp2572
Rp2573
(dp2574
g1507
g1382
sg1508
(lp2575
S"'Marmalade Studio'"
p2576
ag1375
asg335
g1380
sbsS'IwResManager.h'
p2577
g309
(g1503
g311
Ntp2578
Rp2579
(dp2580
g1507
g1301
sg1508
g1782
sg335
g1304
sbsS'IwSoundManager.h'
p2581
g309
(g1503
g311
Ntp2582
Rp2583
(dp2584
g1507
g1092
sg1508
g1560
sg335
g1110
sbsS'cwctype'
p2585
g309
(g1503
g311
Ntp2586
Rp2587
(dp2588
g1507
g1515
sg1508
g1516
sg335
S'c:/marmalade/7.4/s3e/h/std/c++/cwctype'
p2589
sbsS'set'
p2590
g309
(g1503
g311
Ntp2591
Rp2592
(dp2593
g1507
g1515
sg1508
g1516
sg335
S'c:/marmalade/7.4/s3e/h/std/c++/set'
p2594
sbsS'IwGeomSQuat.h'
p2595
g309
(g1503
g311
Ntp2596
Rp2597
(dp2598
g1507
g1225
sg1508
g1574
sg335
g1269
sbsS'locale'
p2599
g309
(g1503
g311
Ntp2600
Rp2601
(dp2602
g1507
g1515
sg1508
g1516
sg335
S'c:/marmalade/7.4/s3e/h/std/c++/locale'
p2603
sbsS'cstdio'
p2604
g309
(g1503
g311
Ntp2605
Rp2606
(dp2607
g1507
g1515
sg1508
g1516
sg335
S'c:/marmalade/7.4/s3e/h/std/c++/cstdio'
p2608
sbsS'cdjpeg.h'
p2609
g309
(g1503
g311
Ntp2610
Rp2611
(dp2612
g1507
g1048
sg1508
g1608
sg335
g1055
sbsS'IwList.h'
p2613
g309
(g1503
g311
Ntp2614
Rp2615
(dp2616
g1507
g1389
sg1508
g1544
sg335
g1420
sbsS'inttypes.h'
p2617
g309
(g1503
g311
Ntp2618
Rp2619
(dp2620
g1507
g1515
sg1508
g1537
sg335
S'c:/marmalade/7.4/s3e/h/std/inttypes.h'
p2621
sbsS'dirent.h'
p2622
g309
(g1503
g311
Ntp2623
Rp2624
(dp2625
g1507
g1515
sg1508
g1537
sg335
S'c:/marmalade/7.4/s3e/h/std/dirent.h'
p2626
sbsS'IwGeomVec3.h'
p2627
g309
(g1503
g311
Ntp2628
Rp2629
(dp2630
g1507
g1225
sg1508
g1574
sg335
g1263
sbsS'transupp.h'
p2631
g309
(g1503
g311
Ntp2632
Rp2633
(dp2634
g1507
g1048
sg1508
g1608
sg335
g1067
sbsS'IwMath.h'
p2635
g309
(g1503
g311
Ntp2636
Rp2637
(dp2638
g1507
g1389
sg1508
g1544
sg335
g1464
sbsS'IwGeomQuat.h'
p2639
g309
(g1503
g311
Ntp2640
Rp2641
(dp2642
g1507
g1225
sg1508
g1574
sg335
g1245
sbsS'glplatform.h'
p2643
g309
(g1503
g311
Ntp2644
Rp2645
(dp2646
g1507
g1515
sg1508
g2087
sg335
S'c:/marmalade/7.4/s3e/h/GLES/glplatform.h'
p2647
sbsS'bitset'
p2648
g309
(g1503
g311
Ntp2649
Rp2650
(dp2651
g1507
g1515
sg1508
g1516
sg335
S'c:/marmalade/7.4/s3e/h/std/c++/bitset'
p2652
sbsS'alloca.h'
p2653
g309
(g1503
g311
Ntp2654
Rp2655
(dp2656
g1507
g1515
sg1508
g1537
sg335
S'c:/marmalade/7.4/s3e/h/std/alloca.h'
p2657
sbsS'IwResHandler.h'
p2658
g309
(g1503
g311
Ntp2659
Rp2660
(dp2661
g1507
g1301
sg1508
g1782
sg335
g1317
sbsS'IwResHandlerMTL.h'
p2662
g309
(g1503
g311
Ntp2663
Rp2664
(dp2665
g1507
g1325
sg1508
g1654
sg335
g1354
sbsS'IwRuntime.h'
p2666
g309
(g1503
g311
Ntp2667
Rp2668
(dp2669
g1507
g1389
sg1508
g1544
sg335
g1436
sbsS'limits'
p2670
g309
(g1503
g311
Ntp2671
Rp2672
(dp2673
g1507
g1515
sg1508
g1516
sg335
S'c:/marmalade/7.4/s3e/h/std/c++/limits'
p2674
sbsS'IwGeomBBox.h'
p2675
g309
(g1503
g311
Ntp2676
Rp2677
(dp2678
g1507
g1225
sg1508
g1574
sg335
g1275
sbsS's3eContacts.h'
p2679
g309
(g1503
g311
Ntp2680
Rp2681
(dp2682
g1507
g1515
sg1508
g1531
sg335
S'c:/marmalade/7.4/s3e/h/s3eContacts.h'
p2683
sbsS's3eLicense.h'
p2684
g309
(g1503
g311
Ntp2685
Rp2686
(dp2687
g1507
g1515
sg1508
g1531
sg335
S'c:/marmalade/7.4/s3e/h/s3eLicense.h'
p2688
sbsS'iwgx.config.txt'
p2689
g309
(g1503
g311
Ntp2690
Rp2691
(dp2692
g1507
g1325
sg1508
g1654
sg335
g1360
sbsS'IwTextParser.h'
p2693
g309
(g1503
g311
Ntp2694
Rp2695
(dp2696
g1507
g1389
sg1508
g1544
sg335
g1387
sbsS's3eTimer.h'
p2697
g309
(g1503
g311
Ntp2698
Rp2699
(dp2700
g1507
g1515
sg1508
g1531
sg335
S'c:/marmalade/7.4/s3e/h/s3eTimer.h'
p2701
sbsS'IwGeomVec.h'
p2702
g309
(g1503
g311
Ntp2703
Rp2704
(dp2705
g1507
g1225
sg1508
g1574
sg335
g1253
sbsS'IwSerialise.h'
p2706
g309
(g1503
g311
Ntp2707
Rp2708
(dp2709
g1507
g1389
sg1508
g1544
sg335
g1422
sbsS'cstdarg'
p2710
g309
(g1503
g311
Ntp2711
Rp2712
(dp2713
g1507
g1515
sg1508
g1516
sg335
S'c:/marmalade/7.4/s3e/h/std/c++/cstdarg'
p2714
sbsS'gl2ext.h'
p2715
g309
(g1503
g311
Ntp2716
Rp2717
(dp2718
g1507
g1515
sg1508
g1774
sg335
S'c:/marmalade/7.4/s3e/h/GLES2/gl2ext.h'
p2719
sbsS'IwChar.h'
p2720
g309
(g1503
g311
Ntp2721
Rp2722
(dp2723
g1507
g1389
sg1508
g1544
sg335
g1442
sbsS's3eSound.h'
p2724
g309
(g1503
g311
Ntp2725
Rp2726
(dp2727
g1507
g1515
sg1508
g1531
sg335
S'c:/marmalade/7.4/s3e/h/s3eSound.h'
p2728
sbsS'IwVariableBitField.h'
p2729
g309
(g1503
g311
Ntp2730
Rp2731
(dp2732
g1507
g1389
sg1508
g1544
sg335
g1485
sbsS'exception.h'
p2733
g309
(g1503
g311
Ntp2734
Rp2735
(dp2736
g1507
g1515
sg1508
g1516
sg335
S'c:/marmalade/7.4/s3e/h/std/c++/exception.h'
p2737
sbsS'iwgeom.config.txt'
p2738
g309
(g1503
g311
Ntp2739
Rp2740
(dp2741
g1507
g1225
sg1508
g1574
sg335
g1223
sbsS'iwgx.mkf'
p2742
g309
(g1503
g311
Ntp2743
Rp2744
(dp2745
g1507
g1366
sg1508
g1654
sg335
g1364
sbsS'gl.h'
p2746
g309
(g1503
g311
Ntp2747
Rp2748
(dp2749
g1507
g1515
sg1508
g2087
sg335
S'c:/marmalade/7.4/s3e/h/GLES/gl.h'
p2750
sbsS'zlib.h'
p2751
g309
(g1503
g311
Ntp2752
Rp2753
(dp2754
g1507
g1494
sg1508
g2192
sg335
g1495
sbsS'temp_defines_release.h'
p2755
g309
(g1503
g311
Ntp2756
Rp2757
(dp2758
g1507
(lp2759
sg1508
(lp2760
S"'generated files'"
p2761
asg335
S'e:/Documents/Michiel/Programmeren/Marmalade/MVSStage3/build_mvsstage3_vc12x/temp_defines_release.h'
p2762
sbsS'iwgl.mkf'
p2763
g309
(g1503
g311
Ntp2764
Rp2765
(dp2766
g1507
g1179
sg1508
g1525
sg335
g1177
sbsS'IwColour.h'
p2767
g309
(g1503
g311
Ntp2768
Rp2769
(dp2770
g1507
g1325
sg1508
g1654
sg335
g1338
sbsS's3eLibrary.h'
p2771
g309
(g1503
g311
Ntp2772
Rp2773
(dp2774
g1507
g1515
sg1508
g1737
sg335
S'c:/marmalade/7.4/s3e/h/ext/s3eLibrary.h'
p2775
sbsS'types.h'
p2776
g309
(g1503
g311
Ntp2777
Rp2778
(dp2779
g1507
g1515
sg1508
g1668
sg335
S'c:/marmalade/7.4/s3e/h/std/sys/types.h'
p2780
sbsS'ifaddrs.h'
p2781
g309
(g1503
g311
Ntp2782
Rp2783
(dp2784
g1507
g1515
sg1508
g1537
sg335
S'c:/marmalade/7.4/s3e/h/std/ifaddrs.h'
p2785
sbsS'strstream'
p2786
g309
(g1503
g311
Ntp2787
Rp2788
(dp2789
g1507
g1515
sg1508
g1516
sg335
S'c:/marmalade/7.4/s3e/h/std/c++/strstream'
p2790
sbsS'exception'
p2791
g309
(g1503
g311
Ntp2792
Rp2793
(dp2794
g1507
g1515
sg1508
g1516
sg335
S'c:/marmalade/7.4/s3e/h/std/c++/exception'
p2795
sbsS'rlocks.h'
p2796
g309
(g1503
g311
Ntp2797
Rp2798
(dp2799
g1507
g1515
sg1508
g1516
sg335
S'c:/marmalade/7.4/s3e/h/std/c++/rlocks.h'
p2800
sbsS'ioctl.h'
p2801
g309
(g1503
g311
Ntp2802
Rp2803
(dp2804
g1507
g1515
sg1508
g1668
sg335
S'c:/marmalade/7.4/s3e/h/std/sys/ioctl.h'
p2805
sbsS'rope'
p2806
g309
(g1503
g311
Ntp2807
Rp2808
(dp2809
g1507
g1515
sg1508
g1516
sg335
S'c:/marmalade/7.4/s3e/h/std/c++/rope'
p2810
sbsS'jinclude.h'
p2811
g309
(g1503
g311
Ntp2812
Rp2813
(dp2814
g1507
g1048
sg1508
g1608
sg335
g1057
sbsS'IwEvent.h'
p2815
g309
(g1503
g311
Ntp2816
Rp2817
(dp2818
g1507
g1389
sg1508
g1544
sg335
g1462
sbsS'IwOptimiseSize.h'
p2819
g309
(g1503
g311
Ntp2820
Rp2821
(dp2822
g1507
g1389
sg1508
g1544
sg335
g1487
sbsS'iwgxfont_public.defines.txt'
p2823
g309
(g1503
g311
Ntp2824
Rp2825
(dp2826
g1507
g1203
sg1508
g1509
sg335
g1201
sbsS'iconv.h'
p2827
g309
(g1503
g311
Ntp2828
Rp2829
(dp2830
g1507
g1515
sg1508
g1537
sg335
S'c:/marmalade/7.4/s3e/h/std/iconv.h'
p2831
sbsS'sendfile.h'
p2832
g309
(g1503
g311
Ntp2833
Rp2834
(dp2835
g1507
g1515
sg1508
g1668
sg335
S'c:/marmalade/7.4/s3e/h/std/sys/sendfile.h'
p2836
sbsS'IwGeomSphere.h'
p2837
g309
(g1503
g311
Ntp2838
Rp2839
(dp2840
g1507
g1225
sg1508
g1574
sg335
g1283
sbsS'tiniconv.mkf'
p2841
g309
(g1503
g311
Ntp2842
Rp2843
(dp2844
g1507
g1085
sg1508
g1978
sg335
g1083
sbsS'iw2dscenegraph.defines.txt'
p2845
g309
(g1503
g311
Ntp2846
Rp2847
(dp2848
g1507
g1167
sg1508
g1824
sg335
g1173
sbsS'jdct.h'
p2849
g309
(g1503
g311
Ntp2850
Rp2851
(dp2852
g1507
g1048
sg1508
g1608
sg335
g1063
sbsS'cctype'
p2853
g309
(g1503
g311
Ntp2854
Rp2855
(dp2856
g1507
g1515
sg1508
g1516
sg335
S'c:/marmalade/7.4/s3e/h/std/c++/cctype'
p2857
sbsS'IwSoundADPCM.cpp'
p2858
g309
(g1503
g311
Ntp2859
Rp2860
(dp2861
g1507
g1092
sg1508
g1560
sg335
g1114
sbsS's3eConfig.h'
p2862
g309
(g1503
g311
Ntp2863
Rp2864
(dp2865
g1507
g1515
sg1508
g1531
sg335
S'c:/marmalade/7.4/s3e/h/s3eConfig.h'
p2866
sbsS'IwHashString.h'
p2867
g309
(g1503
g311
Ntp2868
Rp2869
(dp2870
g1507
g1389
sg1508
g1544
sg335
g1414
sbsS'stat.h'
p2871
g309
(g1503
g311
Ntp2872
Rp2873
(dp2874
g1507
g1515
sg1508
g1668
sg335
S'c:/marmalade/7.4/s3e/h/std/sys/stat.h'
p2875
sbsS'byteswap.h'
p2876
g309
(g1503
g311
Ntp2877
Rp2878
(dp2879
g1507
g1515
sg1508
g1537
sg335
S'c:/marmalade/7.4/s3e/h/std/byteswap.h'
p2880
sbsS'iwresmanager.mkf'
p2881
g309
(g1503
g311
Ntp2882
Rp2883
(dp2884
g1507
g1314
sg1508
g1782
sg335
g1312
sbsS'IwUtilInitTerm.h'
p2885
g309
(g1503
g311
Ntp2886
Rp2887
(dp2888
g1507
g1389
sg1508
g1544
sg335
g1392
sbsS'pthread_1.h'
p2889
g309
(g1503
g311
Ntp2890
Rp2891
(dp2892
g1507
g1515
sg1508
g1516
sg335
S'c:/marmalade/7.4/s3e/h/std/c++/pthread.h'
p2893
sbsS'iw2d.mkf'
p2894
g309
(g1503
g311
Ntp2895
Rp2896
(dp2897
g1507
g1198
sg1508
g1613
sg335
g1196
sbsS'complex'
p2898
g309
(g1503
g311
Ntp2899
Rp2900
(dp2901
g1507
g1515
sg1508
g1516
sg335
S'c:/marmalade/7.4/s3e/h/std/c++/complex'
p2902
sbsS'algorithm'
p2903
g309
(g1503
g311
Ntp2904
Rp2905
(dp2906
g1507
g1515
sg1508
g1516
sg335
S'c:/marmalade/7.4/s3e/h/std/c++/algorithm'
p2907
sbsS's3e.icf'
p2908
g309
(g1503
g311
Ntp2909
Rp2910
(dp2911
g1507
g1515
sg1508
g1531
sg335
S'c:/marmalade/7.4/s3e/s3e.icf'
p2912
sbsS'sem.h'
p2913
g309
(g1503
g311
Ntp2914
Rp2915
(dp2916
g1507
g1515
sg1508
g1668
sg335
S'c:/marmalade/7.4/s3e/h/std/sys/sem.h'
p2917
sbsS'IwGxFontState.h'
p2918
g309
(g1503
g311
Ntp2919
Rp2920
(dp2921
g1507
g1203
sg1508
g1509
sg335
g1214
sbsS'stdio.h'
p2922
g309
(g1503
g311
Ntp2923
Rp2924
(dp2925
g1507
g1515
sg1508
g1537
sg335
S'c:/marmalade/7.4/s3e/h/std/stdio.h'
p2926
sbsS'jmemsys.h'
p2927
g309
(g1503
g311
Ntp2928
Rp2929
(dp2930
g1507
g1048
sg1508
g1608
sg335
g1049
sbsS'ios'
p2931
g309
(g1503
g311
Ntp2932
Rp2933
(dp2934
g1507
g1515
sg1508
g1516
sg335
S'c:/marmalade/7.4/s3e/h/std/c++/ios'
p2935
sbsS'PVRTexTool.defines.txt'
p2936
g309
(g1503
g311
Ntp2937
Rp2938
(dp2939
g1507
g1153
sg1508
g2357
sg335
g1154
sbsS'stack'
p2940
g309
(g1503
g311
Ntp2941
Rp2942
(dp2943
g1507
g1515
sg1508
g1516
sg335
S'c:/marmalade/7.4/s3e/h/std/c++/stack'
p2944
sbsS'IwSoundParams.h'
p2945
g309
(g1503
g311
Ntp2946
Rp2947
(dp2948
g1507
g1092
sg1508
g1560
sg335
g1126
sbsS'new.h'
p2949
g309
(g1503
g311
Ntp2950
Rp2951
(dp2952
g1507
g1515
sg1508
g1516
sg335
S'c:/marmalade/7.4/s3e/h/std/c++/new.h'
p2953
sbsS's3eEMail.h'
p2954
g309
(g1503
g311
Ntp2955
Rp2956
(dp2957
g1507
g1515
sg1508
g1737
sg335
S'c:/marmalade/7.4/s3e/h/ext/s3eEMail.h'
p2958
sbsS's3eVideo.h'
p2959
g309
(g1503
g311
Ntp2960
Rp2961
(dp2962
g1507
g1515
sg1508
g1531
sg335
S'c:/marmalade/7.4/s3e/h/s3eVideo.h'
p2963
sbsS'pngconf.h'
p2964
g309
(g1503
g311
Ntp2965
Rp2966
(dp2967
g1507
g1037
sg1508
g2247
sg335
g1038
sbsS'pwd.h'
p2968
g309
(g1503
g311
Ntp2969
Rp2970
(dp2971
g1507
g1515
sg1508
g1537
sg335
S'c:/marmalade/7.4/s3e/h/std/pwd.h'
p2972
sbsS'IwOptimiseThumb.h'
p2973
g309
(g1503
g311
Ntp2974
Rp2975
(dp2976
g1507
g1389
sg1508
g1544
sg335
g1477
sbsS'gl3.h'
p2977
g309
(g1503
g311
Ntp2978
Rp2979
(dp2980
g1507
g1515
sg1508
g1835
sg335
S'c:/marmalade/7.4/s3e/h/GLES3/gl3.h'
p2981
sbsS'IwClip.h'
p2982
g309
(g1503
g311
Ntp2983
Rp2984
(dp2985
g1507
g1325
sg1508
g1654
sg335
g1342
sbsS'IwSoundInst.h'
p2986
g309
(g1503
g311
Ntp2987
Rp2988
(dp2989
g1507
g1092
sg1508
g1560
sg335
g1090
sbsS'iwresmanager.config.txt'
p2990
g309
(g1503
g311
Ntp2991
Rp2992
(dp2993
g1507
g1301
sg1508
g1782
sg335
g1319
sbsS'IwGxShaderTechnique.h'
p2994
g309
(g1503
g311
Ntp2995
Rp2996
(dp2997
g1507
g1325
sg1508
g1654
sg335
g1369
sbsS'IwCore.h'
p2998
g309
(g1503
g311
Ntp2999
Rp3000
(dp3001
g1507
g1389
sg1508
g1544
sg335
g1408
sbsS'cfloat'
p3002
g309
(g1503
g311
Ntp3003
Rp3004
(dp3005
g1507
g1515
sg1508
g1516
sg335
S'c:/marmalade/7.4/s3e/h/std/c++/cfloat'
p3006
sbsS'IwGeomMat2D.h'
p3007
g309
(g1503
g311
Ntp3008
Rp3009
(dp3010
g1507
g1225
sg1508
g1574
sg335
g1281
sbsS'IwAllocator.h'
p3011
g309
(g1503
g311
Ntp3012
Rp3013
(dp3014
g1507
g1389
sg1508
g1544
sg335
g1428
sbsS'IwPath.h'
p3015
g309
(g1503
g311
Ntp3016
Rp3017
(dp3018
g1507
g1389
sg1508
g1544
sg335
g1481
sbsS'iwgxfont.mkf'
p3019
g309
(g1503
g311
Ntp3020
Rp3021
(dp3022
g1507
g1220
sg1508
g1509
sg335
g1218
sbsS'IwTexture.h'
p3023
g309
(g1503
g311
Ntp3024
Rp3025
(dp3026
g1507
g1325
sg1508
g1654
sg335
g1334
sbsS'IwGeomVec.h.tpl'
p3027
g309
(g1503
g311
Ntp3028
Rp3029
(dp3030
g1507
g1225
sg1508
g1574
sg335
g1233
sbsS's3eAccelerometer.h'
p3031
g309
(g1503
g311
Ntp3032
Rp3033
(dp3034
g1507
g1515
sg1508
g1531
sg335
S'c:/marmalade/7.4/s3e/h/s3eAccelerometer.h'
p3035
sbsS'setjmp.h'
p3036
g309
(g1503
g311
Ntp3037
Rp3038
(dp3039
g1507
g1515
sg1508
g1537
sg335
S'c:/marmalade/7.4/s3e/h/std/setjmp.h'
p3040
sbsS'IwSoundParams.cpp'
p3041
g309
(g1503
g311
Ntp3042
Rp3043
(dp3044
g1507
g1092
sg1508
g1560
sg335
g1095
sbsS'IwFile.h'
p3045
g309
(g1503
g311
Ntp3046
Rp3047
(dp3048
g1507
g1389
sg1508
g1544
sg335
g1434
sbsS'IwTextParseable.h'
p3049
g309
(g1503
g311
Ntp3050
Rp3051
(dp3052
g1507
g1389
sg1508
g1544
sg335
g1432
sbsS'istream.h'
p3053
g309
(g1503
g311
Ntp3054
Rp3055
(dp3056
g1507
g1515
sg1508
g1516
sg335
S'c:/marmalade/7.4/s3e/h/std/c++/istream.h'
p3057
sbsS'stdint.h'
p3058
g309
(g1503
g311
Ntp3059
Rp3060
(dp3061
g1507
g1515
sg1508
g1537
sg335
S'c:/marmalade/7.4/s3e/h/std/stdint.h'
p3062
sbsS'semaphore.h'
p3063
g309
(g1503
g311
Ntp3064
Rp3065
(dp3066
g1507
g1515
sg1508
g1537
sg335
S'c:/marmalade/7.4/s3e/h/std/semaphore.h'
p3067
sbsS'ctime'
p3068
g309
(g1503
g311
Ntp3069
Rp3070
(dp3071
g1507
g1515
sg1508
g1516
sg335
S'c:/marmalade/7.4/s3e/h/std/c++/ctime'
p3072
sbsS'sstream'
p3073
g309
(g1503
g311
Ntp3074
Rp3075
(dp3076
g1507
g1515
sg1508
g1516
sg335
S'c:/marmalade/7.4/s3e/h/std/c++/sstream'
p3077
sbsS'IwGeomFBBox.h'
p3078
g309
(g1503
g311
Ntp3079
Rp3080
(dp3081
g1507
g1225
sg1508
g1574
sg335
g1247
sbsS'IwDebugPrim.h'
p3082
g309
(g1503
g311
Ntp3083
Rp3084
(dp3085
g1507
g1325
sg1508
g1654
sg335
g1323
sbsS'IwGxFontContainer.h'
p3086
g309
(g1503
g311
Ntp3087
Rp3088
(dp3089
g1507
g1203
sg1508
g1509
sg335
g1216
sbsS'IwGeomSVec3.h'
p3090
g309
(g1503
g311
Ntp3091
Rp3092
(dp3093
g1507
g1225
sg1508
g1574
sg335
g1259
sbsS'iw2dscenegraphcore.mkf'
p3094
g309
(g1503
g311
Ntp3095
Rp3096
(dp3097
g1507
g1379
sg1508
g2575
sg335
g1377
sbsS's3eExt.h'
p3098
g309
(g1503
g311
Ntp3099
Rp3100
(dp3101
g1507
g1515
sg1508
g1531
sg335
S'c:/marmalade/7.4/s3e/h/s3eExt.h'
p3102
sbsS'IwGeomFVec3.h'
p3103
g309
(g1503
g311
Ntp3104
Rp3105
(dp3106
g1507
g1225
sg1508
g1574
sg335
g1285
sbsS'streambuf'
p3107
g309
(g1503
g311
Ntp3108
Rp3109
(dp3110
g1507
g1515
sg1508
g1516
sg335
S'c:/marmalade/7.4/s3e/h/std/c++/streambuf'
p3111
sbsS's3eMetrics.h'
p3112
g309
(g1503
g311
Ntp3113
Rp3114
(dp3115
g1507
g1515
sg1508
g1737
sg335
S'c:/marmalade/7.4/s3e/h/ext/s3eMetrics.h'
p3116
sbsS'IwGxFont.h'
p3117
g309
(g1503
g311
Ntp3118
Rp3119
(dp3120
g1507
g1203
sg1508
g1509
sg335
g1208
sbsS's3eSecureStorage.h'
p3121
g309
(g1503
g311
Ntp3122
Rp3123
(dp3124
g1507
g1515
sg1508
g1531
sg335
S'c:/marmalade/7.4/s3e/h/s3eSecureStorage.h'
p3125
sbsS'string.h'
p3126
g309
(g1503
g311
Ntp3127
Rp3128
(dp3129
g1507
g1515
sg1508
g1537
sg335
S'c:/marmalade/7.4/s3e/h/std/string.h'
p3130
sbsS'IwResource.h'
p3131
g309
(g1503
g311
Ntp3132
Rp3133
(dp3134
g1507
g1389
sg1508
g1544
sg335
g1406
sbsS'IwGeomSVec2.h'
p3135
g309
(g1503
g311
Ntp3136
Rp3137
(dp3138
g1507
g1225
sg1508
g1574
sg335
g1279
sbsS'libjpeg.mkf'
p3139
g309
(g1503
g311
Ntp3140
Rp3141
(dp3142
g1507
g1077
sg1508
(lp3143
g1043
asg335
g1075
sbsS'IwGxDebug.h'
p3144
g309
(g1503
g311
Ntp3145
Rp3146
(dp3147
g1507
g1325
sg1508
g1654
sg335
g1348
sbsS'pthread_types.h'
p3148
g309
(g1503
g311
Ntp3149
Rp3150
(dp3151
g1507
g1515
sg1508
g1537
sg335
S'c:/marmalade/7.4/s3e/h/std/pthread_types.h'
p3152
sbsS'iomanip.h'
p3153
g309
(g1503
g311
Ntp3154
Rp3155
(dp3156
g1507
g1515
sg1508
g1516
sg335
S'c:/marmalade/7.4/s3e/h/std/c++/iomanip.h'
p3157
sbsS'IwKeymap.h'
p3158
g309
(g1503
g311
Ntp3159
Rp3160
(dp3161
g1507
g1389
sg1508
g1544
sg335
g1404
sbsS'IwDebug.h'
p3162
g309
(g1503
g311
Ntp3163
Rp3164
(dp3165
g1507
g1389
sg1508
g1544
sg335
g1396
sbsS's3eIOSBackgroundAudio.h'
p3166
g309
(g1503
g311
Ntp3167
Rp3168
(dp3169
g1507
g1515
sg1508
g1737
sg335
S'c:/marmalade/7.4/s3e/h/ext/s3eIOSBackgroundAudio.h'
p3170
sbsS'IwGeomMenu.h'
p3171
g309
(g1503
g311
Ntp3172
Rp3173
(dp3174
g1507
g1225
sg1508
g1574
sg335
g1239
sbsS'IwDivTable.h'
p3175
g309
(g1503
g311
Ntp3176
Rp3177
(dp3178
g1507
g1389
sg1508
g1544
sg335
g1398
sbsS'ctype.h'
p3179
g309
(g1503
g311
Ntp3180
Rp3181
(dp3182
g1507
g1515
sg1508
g1537
sg335
S'c:/marmalade/7.4/s3e/h/std/ctype.h'
p3183
sbsS'IwGeomMat.h'
p3184
g309
(g1503
g311
Ntp3185
Rp3186
(dp3187
g1507
g1225
sg1508
g1574
sg335
g1261
sbsS'IwResGroup.h'
p3188
g309
(g1503
g311
Ntp3189
Rp3190
(dp3191
g1507
g1301
sg1508
g1782
sg335
g1302
sbsS'signal_1.h'
p3192
g309
(g1503
g311
Ntp3193
Rp3194
(dp3195
g1507
g1515
sg1508
g1668
sg335
S'c:/marmalade/7.4/s3e/h/std/sys/signal.h'
p3196
sbsS'IwSoundData.cpp'
p3197
g309
(g1503
g311
Ntp3198
Rp3199
(dp3200
g1507
g1092
sg1508
g1560
sg335
g1120
sbsS'functional'
p3201
g309
(g1503
g311
Ntp3202
Rp3203
(dp3204
g1507
g1515
sg1508
g1516
sg335
S'c:/marmalade/7.4/s3e/h/std/c++/functional'
p3205
sbsS'shm.h'
p3206
g309
(g1503
g311
Ntp3207
Rp3208
(dp3209
g1507
g1515
sg1508
g1668
sg335
S'c:/marmalade/7.4/s3e/h/std/sys/shm.h'
p3210
sbsS'IwManagedList.h'
p3211
g309
(g1503
g311
Ntp3212
Rp3213
(dp3214
g1507
g1389
sg1508
g1544
sg335
g1418
sbsS'prctl.h'
p3215
g309
(g1503
g311
Ntp3216
Rp3217
(dp3218
g1507
g1515
sg1508
g1668
sg335
S'c:/marmalade/7.4/s3e/h/std/sys/prctl.h'
p3219
sbsS'un.h'
p3220
g309
(g1503
g311
Ntp3221
Rp3222
(dp3223
g1507
g1515
sg1508
g1668
sg335
S'c:/marmalade/7.4/s3e/h/std/sys/un.h'
p3224
sbsS'temp_defines_debug.h'
p3225
g309
(g1503
g311
Ntp3226
Rp3227
(dp3228
g1507
(lp3229
sg1508
(lp3230
g2761
asg335
S'e:/Documents/Michiel/Programmeren/Marmalade/MVSStage3/build_mvsstage3_vc12x/temp_defines_debug.h'
p3231
sbsS'utility'
p3232
g309
(g1503
g311
Ntp3233
Rp3234
(dp3235
g1507
g1515
sg1508
g1516
sg335
S'c:/marmalade/7.4/s3e/h/std/c++/utility'
p3236
sbsS'IwGeomLegacy.h'
p3237
g309
(g1503
g311
Ntp3238
Rp3239
(dp3240
g1507
g1225
sg1508
g1574
sg335
g1267
sbsS'IwTPage.h'
p3241
g309
(g1503
g311
Ntp3242
Rp3243
(dp3244
g1507
g1325
sg1508
g1654
sg335
g1344
sbsS'IwResSerialise.h'
p3245
g309
(g1503
g311
Ntp3246
Rp3247
(dp3248
g1507
g1301
sg1508
g1782
sg335
g1308
sbsS's3eCrypto.h'
p3249
g309
(g1503
g311
Ntp3250
Rp3251
(dp3252
g1507
g1515
sg1508
g1531
sg335
S'c:/marmalade/7.4/s3e/h/s3eCrypto.h'
p3253
sbsS's3eKeyboard.h'
p3254
g309
(g1503
g311
Ntp3255
Rp3256
(dp3257
g1507
g1515
sg1508
g1531
sg335
S'c:/marmalade/7.4/s3e/h/s3eKeyboard.h'
p3258
sbsS'fcntl.h'
p3259
g309
(g1503
g311
Ntp3260
Rp3261
(dp3262
g1507
g1515
sg1508
g1537
sg335
S'c:/marmalade/7.4/s3e/h/std/fcntl.h'
p3263
sbsS'Iw2DSceneGraphCore.h'
p3264
g309
(g1503
g311
Ntp3265
Rp3266
(dp3267
g1507
g1382
sg1508
g2575
sg335
g1383
sbsS'memory.h'
p3268
g309
(g1503
g311
Ntp3269
Rp3270
(dp3271
g1507
g1515
sg1508
g1537
sg335
S'c:/marmalade/7.4/s3e/h/std/memory.h'
p3272
sbsS'pthread.h'
p3273
g309
(g1503
g311
Ntp3274
Rp3275
(dp3276
g1507
g1515
sg1508
g1537
sg335
S'c:/marmalade/7.4/s3e/h/std/pthread.h'
p3277
sbsS'IwGeomIntersect.h'
p3278
g309
(g1503
g311
Ntp3279
Rp3280
(dp3281
g1507
g1225
sg1508
g1574
sg335
g1277
sbsS'IwTextParserITX.h'
p3282
g309
(g1503
g311
Ntp3283
Rp3284
(dp3285
g1507
g1389
sg1508
g1544
sg335
g1410
sbsS'egl_1.h'
p3286
g309
(g1503
g311
Ntp3287
Rp3288
(dp3289
g1507
g1515
sg1508
g2087
sg335
S'c:/marmalade/7.4/s3e/h/GLES/egl.h'
p3290
sbsS'Iw2DSceneGraph.cpp'
p3291
g309
(g1503
g311
Ntp3292
Rp3293
(dp3294
g1507
g1167
sg1508
g1824
sg335
g1168
sbsS'ostream.h'
p3295
g309
(g1503
g311
Ntp3296
Rp3297
(dp3298
g1507
g1515
sg1508
g1516
sg335
S'c:/marmalade/7.4/s3e/h/std/c++/ostream.h'
p3299
sbsS'stl_user_config.h'
p3300
g309
(g1503
g311
Ntp3301
Rp3302
(dp3303
g1507
g1515
sg1508
g1516
sg335
S'c:/marmalade/7.4/s3e/h/std/c++/stl_user_config.h'
p3304
sbsS'IwProfileMenu.h'
p3305
g309
(g1503
g311
Ntp3306
Rp3307
(dp3308
g1507
g1389
sg1508
g1544
sg335
g1416
sbsS'MarmaladeVersion.h'
p3309
g309
(g1503
g311
Ntp3310
Rp3311
(dp3312
g1507
g1515
sg1508
g1531
sg335
S'c:/marmalade/7.4/s3e/h/MarmaladeVersion.h'
p3313
sbsS'IwResHandlerWAV.h'
p3314
g309
(g1503
g311
Ntp3315
Rp3316
(dp3317
g1507
g1092
sg1508
g1560
sg335
g1136
sbsS'gl3platform.h'
p3318
g309
(g1503
g311
Ntp3319
Rp3320
(dp3321
g1507
g1515
sg1508
g1835
sg335
S'c:/marmalade/7.4/s3e/h/GLES3/gl3platform.h'
p3322
sbsS'ios.h'
p3323
g309
(g1503
g311
Ntp3324
Rp3325
(dp3326
g1507
g1515
sg1508
g1516
sg335
S'c:/marmalade/7.4/s3e/h/std/c++/ios.h'
p3327
sbsS'IwImageHelper.h'
p3328
g309
(g1503
g311
Ntp3329
Rp3330
(dp3331
g1507
g1389
sg1508
g1544
sg335
g1448
sbsS'hash_set'
p3332
g309
(g1503
g311
Ntp3333
Rp3334
(dp3335
g1507
g1515
sg1508
g1516
sg335
S'c:/marmalade/7.4/s3e/h/std/c++/hash_set'
p3336
sbsS'IwGeomFQuat.h'
p3337
g309
(g1503
g311
Ntp3338
Rp3339
(dp3340
g1507
g1225
sg1508
g1574
sg335
g1237
sbsS'jmorecfg.h'
p3341
g309
(g1503
g311
Ntp3342
Rp3343
(dp3344
g1507
g1048
sg1508
g1608
sg335
g1073
sbsS'eglplatform.h'
p3345
g309
(g1503
g311
Ntp3346
Rp3347
(dp3348
g1507
g1515
sg1508
g1867
sg335
S'c:/marmalade/7.4/s3e/h/EGL/eglplatform.h'
p3349
sbsS'cmath'
p3350
g309
(g1503
g311
Ntp3351
Rp3352
(dp3353
g1507
g1515
sg1508
g1516
sg335
S'c:/marmalade/7.4/s3e/h/std/c++/cmath'
p3354
sbsS'math_gcc.h'
p3355
g309
(g1503
g311
Ntp3356
Rp3357
(dp3358
g1507
g1515
sg1508
g1537
sg335
S'c:/marmalade/7.4/s3e/h/std/math_gcc.h'
p3359
sbsS's3eMemory.h'
p3360
g309
(g1503
g311
Ntp3361
Rp3362
(dp3363
g1507
g1515
sg1508
g1531
sg335
S'c:/marmalade/7.4/s3e/h/s3eMemory.h'
p3364
sbsS'strings.h'
p3365
g309
(g1503
g311
Ntp3366
Rp3367
(dp3368
g1507
g1515
sg1508
g1537
sg335
S'c:/marmalade/7.4/s3e/h/std/strings.h'
p3369
sbsS's3eFile.h'
p3370
g309
(g1503
g311
Ntp3371
Rp3372
(dp3373
g1507
g1515
sg1508
g1531
sg335
S'c:/marmalade/7.4/s3e/h/s3eFile.h'
p3374
sbsS'IwGxTypes.h'
p3375
g309
(g1503
g311
Ntp3376
Rp3377
(dp3378
g1507
g1325
sg1508
g1654
sg335
g1371
sbsS'cerrno'
p3379
g309
(g1503
g311
Ntp3380
Rp3381
(dp3382
g1507
g1515
sg1508
g1516
sg335
S'c:/marmalade/7.4/s3e/h/std/c++/cerrno'
p3383
sbsS'IwSoundManager.cpp'
p3384
g309
(g1503
g311
Ntp3385
Rp3386
(dp3387
g1507
g1092
sg1508
g1560
sg335
g1097
sbsS'soundengine.mkf'
p3388
g309
(g1503
g311
Ntp3389
Rp3390
(dp3391
g1507
g1109
sg1508
g1560
sg335
g1107
sbsS'resource.h'
p3392
g309
(g1503
g311
Ntp3393
Rp3394
(dp3395
g1507
g1515
sg1508
g1668
sg335
S'c:/marmalade/7.4/s3e/h/std/sys/resource.h'
p3396
sbsS'clocale'
p3397
g309
(g1503
g311
Ntp3398
Rp3399
(dp3400
g1507
g1515
sg1508
g1516
sg335
S'c:/marmalade/7.4/s3e/h/std/c++/clocale'
p3401
sbsS'pvrtextool.mkf'
p3402
g309
(g1503
g311
Ntp3403
Rp3404
(dp3405
g1507
g1158
sg1508
g2124
sg335
g1156
sbsS'csetjmp'
p3406
g309
(g1503
g311
Ntp3407
Rp3408
(dp3409
g1507
g1515
sg1508
g1516
sg335
S'c:/marmalade/7.4/s3e/h/std/c++/csetjmp'
p3410
sbsS'netdb.h'
p3411
g309
(g1503
g311
Ntp3412
Rp3413
(dp3414
g1507
g1515
sg1508
g1537
sg335
S'c:/marmalade/7.4/s3e/h/std/netdb.h'
p3415
sbsS's3eAndroidJNI.h'
p3416
g309
(g1503
g311
Ntp3417
Rp3418
(dp3419
g1507
g1515
sg1508
g1737
sg335
S'c:/marmalade/7.4/s3e/h/ext/s3eAndroidJNI.h'
p3420
sbsS'stdexcept'
p3421
g309
(g1503
g311
Ntp3422
Rp3423
(dp3424
g1507
g1515
sg1508
g1516
sg335
S'c:/marmalade/7.4/s3e/h/std/c++/stdexcept'
p3425
sbsS'math.h'
p3426
g309
(g1503
g311
Ntp3427
Rp3428
(dp3429
g1507
g1515
sg1508
g1537
sg335
S'c:/marmalade/7.4/s3e/h/std/math.h'
p3430
sbsS'stdbool.h'
p3431
g309
(g1503
g311
Ntp3432
Rp3433
(dp3434
g1507
g1515
sg1508
g1537
sg335
S'c:/marmalade/7.4/s3e/h/std/stdbool.h'
p3435
sbsS'uio.h'
p3436
g309
(g1503
g311
Ntp3437
Rp3438
(dp3439
g1507
g1515
sg1508
g1668
sg335
S'c:/marmalade/7.4/s3e/h/std/sys/uio.h'
p3440
sbsS'IwUncopyable.h'
p3441
g309
(g1503
g311
Ntp3442
Rp3443
(dp3444
g1507
g1389
sg1508
g1544
sg335
g1440
sbssS'juice_build_type'
p3445
g4
sS'tests'
p3446
(lp3447
sS'project_name'
p3448
g317
sS'root_file'
p3449
g122
sS'current_root'
p3450
S'e:/Documents/Michiel/Programmeren/Marmalade/MVSStage3'
p3451
sS'dependencies'
p3452
(lp3453
sS'include_paths'
p3454
(lp3455
S'c:/marmalade/7.4/modules/iw2d/h'
p3456
aS'c:/marmalade/7.4/modules/iwgx/h'
p3457
aS'c:/marmalade/7.4/modules/iwgl/h'
p3458
aS'c:/marmalade/7.4/modules/iwutil/h'
p3459
aS'c:/marmalade/7.4/modules/third_party/libjpeg/h'
p3460
aS'c:/marmalade/7.4/modules/third_party/zlib/h'
p3461
aS'c:/marmalade/7.4/modules/third_party/libpng/h'
p3462
aS'c:/marmalade/7.4/modules/iwgeom/h'
p3463
aS'c:/marmalade/7.4/modules/iwresmanager/h'
p3464
aS'c:/marmalade/7.4/extensions/pvrtextool/h'
p3465
aS'c:/marmalade/7.4/modules/iwgxfont/h'
p3466
aS'c:/marmalade/7.4/modules/third_party/tiniconv/source'
p3467
aS'c:/marmalade/7.4/modules/iw2dscenegraph/h'
p3468
aS'c:/marmalade/7.4/modules/iw2dscenegraphcore/h'
p3469
aS'c:/marmalade/7.4/examples/gametutorial/cpp/modules/soundengine/h'
p3470
aS'c:/marmalade/7.4/examples/gametutorial/cpp/modules/soundengine/source'
p3471
aS'c:/marmalade/7.4/s3e/h'
p3472
aS'c:/marmalade/7.4/s3e/h/ext'
p3473
aS'c:/marmalade/7.4/s3e/h/std'
p3474
aS'c:/marmalade/7.4/s3e/h/std/c++'
p3475
aS'c:/marmalade/7.4/s3e/h/ext_legacy'
p3476
aS'c:/marmalade/7.4/s3e/h/legacy'
p3477
asS'weak_frameworks'
p3478
(lp3479
sS'extprojects'
p3480
(dp3481
sg573
(dp3482
g567
(lp3483
(S'e:/Documents/Michiel/Programmeren/Marmalade/MVSStage3/data/audio'
p3484
S'audio'
p3485
I0
tp3486
a(S'e:/Documents/Michiel/Programmeren/Marmalade/MVSStage3/data/textures'
p3487
S'textures'
p3488
I0
tp3489
a(S'e:/Documents/Michiel/Programmeren/Marmalade/MVSStage3/data-ram/data-gles1,e:/Documents/Michiel/Programmeren/Marmalade/MVSStage3/data'
p3490
S'.'
p3491
I0
tp3492
assS'macro_types'
p3493
(dp3494
g508
I1
sg509
I0
sg510
I0
sg511
I0
sg513
I0
sg514
I0
sg515
I0
sg516
I0
sg517
I0
sg519
I0
sg520
I0
sg521
I0
sg522
I0
sg523
I0
sg525
I0
sg527
I0
sg528
I0
sg529
I0
sg530
I0
sg531
I0
sg532
I1
sg533
I0
sg534
I0
sg535
I0
sg536
I0
sg537
I01
sg538
I1
sg539
I0
sg540
I0
sg541
I0
sg542
I0
sg543
I0
sg544
I0
sg545
I0
ssS'commands'
p3495
(lp3496
sg575
(g1024
S'VC12X'
p3497
S'X86ARM'
p3498
tp3499
sS'build_libs'
p3500
(dp3501
sg577
g0
sS'frameworks'
p3502
(lp3503
sS'environ'
p3504
(dp3505
sS'target_name_debug'
p3506
g317
sS'builders'
p3507
(dp3508
g567
(dp3509
S'.S'
p3510
(dp3511
S'rvct'
p3512
(lp3513
S'.obj'
p3514
aS'echo ARM Assembling(RVCT) ${SOURCE}...'
p3515
aS'c:/marmalade/7.4/s3e\\rvct\\bin\\armasm -o ${TARGET} ${SOURCE}'
p3516
asg431
(lp3517
g3514
aS'echo ARM Assembling(GCC) ${SOURCE}...'
p3518
aS'c:/marmalade/7.4/s3e\\gcc\\bin\\arm-none-eabi-gcc -c -o ${TARGET} ${SOURCE}'
p3519
asS'ppu'
p3520
(lp3521
S'.a'
p3522
aS'echo PPU Assembling(SNC) ${SOURCE}...'
p3523
aS'c:/marmalade/7.4/s3e\\rvct\\bin\\armasm -o ${TARGET} ${SOURCE}'
p3524
assS'.s'
p3525
g3511
sS'.vp'
p3526
(lp3527
NaS'"C:/Marmalade/7.4/s3e/python/python.exe" "c:/marmalade/7.4/modules/iwgx/tools/compile_shaders.py" ${SOURCE}'
p3528
asssS'extproject_names'
p3529
(lp3530
sbtp3531
.