((dp0
S'arm_dbg_args'
p1
S'-via:"e:\\Documents\\Michiel\\Programmeren\\Marmalade\\MVSStage3\\build_mvsstage3_vc12x\\MVSStage3_vc12x_arm_debug.via" -qemu'
p2
sS'game-icf'
p3
S''
p4
sS'dist'
p5
NsS'csproj'
p6
g4
sS'module_path_append'
p7
NsS'global_path'
p8
S'e:\\documents\\michiel\\programmeren\\marmalade'
p9
sS'system_path'
p10
S'c:\\marmalade\\7.4\\s3e\\makefile_builder'
p11
sS'android_x86_dbg_args'
p12
S'../../tools/DeployTool/DeployTool.exe --dir "e:\\Documents\\Michiel\\Programmeren\\Marmalade\\MVSStage3\\build_mvsstage3_vc12x"'
p13
sS'no-emit'
p14
NsS'arm-float-abi'
p15
g4
sS'arm_rel_rtsm_args'
p16
S'-via:"e:\\Documents\\Michiel\\Programmeren\\Marmalade\\MVSStage3\\build_mvsstage3_vc12x\\MVSStage3_vc12x_arm_release.via" -qemu'
p17
sS'amd64'
p18
NsS'line-width'
p19
I80
sS'gcc_dbg_args'
p20
S'-via:"e:\\Documents\\Michiel\\Programmeren\\Marmalade\\MVSStage3\\build_mvsstage3_vc12x\\MVSStage3_vc12x_gcc_debug.via" -qemu'
p21
sS'android-x86'
p22
NsS'x86_dbg_exe'
p23
S'c:/marmalade/7.4/s3e\\win32\\s3e_simulator_debug.exe'
p24
sS'disable-runtime-checks'
p25
NsS'release'
p26
NsS'no-make'
p27
NsS'xcode-x86-build-settings'
p28
g4
sS'optimise-size'
p29
NsS'output-name-debug'
p30
g4
sS'arm-fpu'
p31
g4
sS'proj_name'
p32
S'MVSStage3_vc12x'
p33
sS'enable-stdinc'
p34
NsS'compiler'
p35
g4
sS'execute'
p36
NsS'compile-static'
p37
NsS'msvc-project'
p38
I01
sS'buildenv'
p39
S'VC12X'
p40
sS'quick'
p41
NsS'module_path'
p42
(lp43
S'C:/Marmalade/7.4/examples/GameTutorial/CPP/modules'
p44
asS'use-release-std-libs'
p45
NsS'using_perforce'
p46
I00
sS'tizen-x86'
p47
NsS'mips-s3e'
p48
NsS's3e-api-lib-name'
p49
S's3e_api_iwgl'
p50
sS'ios-no-pic'
p51
NsS'shared-arm-lib'
p52
NsS'arm-cpu'
p53
g4
sS'compile-thumb'
p54
NsS'no-ide'
p55
NsS'msvc-version'
p56
S'6.0'
p57
sS'arm'
p58
NsS'builddir'
p59
g4
sS'compile-debug-as-release'
p60
I0
sS'arm-arch'
p61
g4
sS'brief'
p62
NsS'dll'
p63
NsS'buildenv-toolset'
p64
g4
sS'version'
p65
NsS'ccache'
p66
I0
sS'offline'
p67
NsS'ios-version'
p68
g4
sS'hub_data'
p69
g4
sS'fake_vc_call'
p70
I01
sS'jobs'
p71
I0
sS'linkflags'
p72
NsS'debug'
p73
NsS'xcode-build-order'
p74
g4
sS'gcc_rel_rtsm_args'
p75
S'-via:"e:\\Documents\\Michiel\\Programmeren\\Marmalade\\MVSStage3\\build_mvsstage3_vc12x\\MVSStage3_vc12x_gcc_release.via" -qemu'
p76
sS'done_defaults'
p77
I1
sS'path'
p78
NsS's3e-data-dir'
p79
S'e:/Documents/Michiel/Programmeren/Marmalade/MVSStage3\\data'
p80
sS'enable-exceptions'
p81
NsS'osx-dll'
p82
NsS'extension'
p83
g4
sS'no-vc6'
p84
NsS'non-interactive'
p85
NsS'win32-console'
p86
NsS'dist-format'
p87
g4
sS's3e-force-arch'
p88
NsS'dump_defines'
p89
NsS'use_prebuilt'
p90
NsS'gcc-version'
p91
g4
sS'x86_dbg_args'
p92
S'-via:"e:\\Documents\\Michiel\\Programmeren\\Marmalade\\MVSStage3\\build_mvsstage3_vc12x\\MVSStage3_vc12x_debug.via"'
p93
sS'tizen_x86_dbg_args'
p94
g13
sS'arm-debugger'
p95
g4
sS'use_temp_extension'
p96
NsS'verbose'
p97
I0
sS'log'
p98
NsS'no-strip'
p99
NsS'rebuild'
p100
NsS'win32-simulator-dll'
p101
NsS'strict'
p102
NsS'mips_dbg_args'
p103
g13
sS'enable-global-path'
p104
NsS'cflags'
p105
NsS'dist-dir'
p106
g4
sS'xcode-arm-build-settings'
p107
g4
sS'jflags'
p108
NsS'csprojSDKRefs'
p109
g4
sS'tizen_x86_rel_exe'
p110
S'c:\\marmalade\\7.4\\s3e\\makefile_builder\\tool_launcher.exe'
p111
sS'test-assets'
p112
g4
sS'distcc'
p113
NsS'external-compiler'
p114
NsS'no-distcc'
p115
NsS'preinclude'
p116
NsS'using_sdk'
p117
I01
sS'nologo'
p118
NsS'warn-level'
p119
I2
sS'mips_dbg_exe'
p120
g111
sS'mkb_in'
p121
S'e:/Documents/Michiel/Programmeren/Marmalade/MVSStage3/MVSStage3.mkb'
p122
sS'tizen_x86_dbg_exe'
p123
g111
sS'arm_dbg_exe'
p124
S'c:/marmalade/7.4/s3e\\bin\\armdebug.exe'
p125
sS'csprojDLLRef'
p126
NsS'tizen_x86_rel_args'
p127
g13
sS'android_x86_dbg_exe'
p128
g111
sS'test-config'
p129
g4
sS'list-targets'
p130
NsS'arm_rel_exe'
p131
g111
sS'arm_rel_args'
p132
g13
sS'makedeps'
p133
NsS'android_x86_rel_exe'
p134
g111
sS'default-buildenv'
p135
S'vc12x'
p136
sS'x86_rel_exe'
p137
g24
sS'preprocess-java'
p138
NsS'mips_rel_args'
p139
g13
sS'defines'
p140
NsS'lib'
p141
NsS'global_argv'
p142
(lp143
S'C:\\Marmalade\\7.4\\s3e\\makefile_builder\\mkb.py'
p144
aS'e:/Documents/Michiel/Programmeren/Marmalade/MVSStage3/MVSStage3.mkb'
p145
aS'--buildenv=VC12X'
p146
aS'--fake-vc-call'
p147
aS'--default-buildenv=vc12x'
p148
aS'--msvc-project'
p149
asS'make'
p150
NsS'optimise-speed'
p151
NsS'internal'
p152
NsS'rvct-version'
p153
g4
sS'deploy-only'
p154
NsS'x86'
p155
NsS'deploy'
p156
g4
sS'x86_run_exe'
p157
S'c:/marmalade/7.4/s3e\\win32\\s3e_console.exe'
p158
sS'x86_rel_args'
p159
S'-via:"e:\\Documents\\Michiel\\Programmeren\\Marmalade\\MVSStage3\\build_mvsstage3_vc12x\\MVSStage3_vc12x_release.via"'
p160
sS'gcc_rel_args'
p161
g13
sS'mips'
p162
NsS'xcode-build-settings'
p163
g4
sS'incredibuild'
p164
NsS'strict-compile'
p165
NsS'use-auto-subdirs'
p166
NsS'mips_rel_exe'
p167
g111
sS'android_x86_rel_args'
p168
g13
sS'app-icf'
p169
g4
sS'deployargs'
p170
NsS'iosnativedebug'
p171
NsS'mkf_in'
p172
(lp173
S'c:\\marmalade\\7.4\\modules\\iw2d\\iw2d.mkf'
p174
aS'c:\\marmalade\\7.4\\modules\\iwgx\\iwgx.mkf'
p175
aS'c:\\marmalade\\7.4\\modules\\iwgl\\iwgl.mkf'
p176
aS'c:\\marmalade\\7.4\\modules\\iwutil\\iwutil.mkf'
p177
aS'c:\\marmalade\\7.4\\modules\\third_party\\libjpeg\\libjpeg.mkf'
p178
aS'c:\\marmalade\\7.4\\modules\\third_party\\libpng\\libpng.mkf'
p179
aS'c:\\marmalade\\7.4\\modules\\third_party\\zlib\\zlib.mkf'
p180
aS'c:\\marmalade\\7.4\\modules\\iwgeom\\iwgeom.mkf'
p181
aS'c:\\marmalade\\7.4\\modules\\iwresmanager\\iwresmanager.mkf'
p182
aS'c:\\marmalade\\7.4\\extensions\\pvrtextool\\pvrtextool.mkf'
p183
aS'c:\\marmalade\\7.4\\modules\\iwgxfont\\iwgxfont.mkf'
p184
aS'c:\\marmalade\\7.4\\modules\\third_party\\tiniconv\\tiniconv.mkf'
p185
aS'c:\\marmalade\\7.4\\modules\\iw2dscenegraph\\iw2dscenegraph.mkf'
p186
aS'c:\\marmalade\\7.4\\modules\\iw2dscenegraphcore\\iw2dscenegraphcore.mkf'
p187
aS'c:\\marmalade\\7.4\\examples\\gametutorial\\cpp\\modules\\soundengine\\soundengine.mkf'
p188
asS'strict-mkb'
p189
NsS'executeargs'
p190
NsS'clean'
p191
NsS'no-asm'
p192
NsS'output-name'
p193
g4
sS'no-modules'
p194
NsS'find_define'
p195
g4
s(dp196
S'c:\\marmalade\\7.4\\s3e\\makefile_builder\\plugins\\Emitter.pyc'
p197
F1411758008.0
sS'c:\\marmalade\\7.4\\s3e\\makefile_builder\\templates\\ws8_ext_sln.pyc'
p198
F1411758010.0
sS'c:\\marmalade\\7.4\\s3e\\makefile_builder\\templates\\MainWindow.xib'
p199
F1411756764.0
sS'c:\\marmalade\\7.4\\s3e\\makefile_builder\\templates\\template.suo'
p200
F1411756764.0
sS'c:\\marmalade\\7.4\\s3e\\makefile_builder\\plugins\\xcode4_schememanagement.py'
p201
F1411756764.0
sS'c:\\marmalade\\7.4\\s3e\\makefile_builder\\templates\\ws81_sln.pyc'
p202
F1411758010.0
sS'c:\\marmalade\\7.4\\s3e\\makefile_builder\\templates\\win8_ext_csproj.pyc'
p203
F1411758010.0
sS'c:\\marmalade\\7.4\\s3e\\makefile_builder\\mkb_option.pyc'
p204
F1411758008.0
sS'c:\\marmalade\\7.4\\s3e\\makefile_builder\\plugins\\s3e_xcode.py'
p205
F1411756764.0
sS'c:\\marmalade\\7.4\\s3e\\makefile_builder\\plugins\\s3e_scons.pyc'
p206
F1411758008.0
sS'c:\\marmalade\\7.4\\s3e\\makefile_builder\\templates\\win8_vcxproj.pyc'
p207
F1411758010.0
sS'c:\\marmalade\\7.4\\s3e\\makefile_builder\\plugins\\null.pyc'
p208
F1411758008.0
sS'c:\\marmalade\\7.4\\s3e\\makefile_builder\\templates\\vc8_user.pyc'
p209
F1411758010.0
sS'c:\\marmalade\\7.4\\s3e\\makefile_builder\\templates\\wp81_ext_sln.pyc'
p210
F1411758010.0
sS'c:\\marmalade\\7.4\\s3e\\makefile_builder\\templates\\scons.pyc'
p211
F1411758010.0
sS'c:\\marmalade\\7.4\\s3e\\makefile_builder\\templates\\wp8_ext_csproj.pyc'
p212
F1411758010.0
sS'c:\\marmalade\\7.4\\s3e\\makefile_builder\\templates\\xcode_pbxuser.py'
p213
F1411756766.0
sS'c:\\marmalade\\7.4\\s3e\\makefile_builder\\plugins\\s3e_qmake.py'
p214
F1411756764.0
sS'c:\\marmalade\\7.4\\s3e\\makefile_builder\\plugins\\iphone.pyc'
p215
F1411758010.0
sS'c:\\marmalade\\7.4\\s3e\\makefile_builder\\templates\\ws81_ext_csproj.pyc'
p216
F1411758010.0
sS'c:\\marmalade\\7.4\\s3e\\makefile_builder\\templates\\vc6_opt.pyc'
p217
F1411758010.0
sS'c:\\marmalade\\7.4\\s3e\\makefile_builder\\plugins\\s3e_win8.pyc'
p218
F1411758010.0
sS'c:\\marmalade\\7.4\\s3e\\makefile_builder\\mkb_main.pyc'
p219
F1411758008.0
sS'c:\\marmalade\\7.4\\s3e\\makefile_builder\\templates\\wp8_csproj.pyc'
p220
F1411758010.0
sS'c:\\marmalade\\7.4\\s3e\\makefile_builder\\templates\\win32_vcproj.pyc'
p221
F1411758010.0
sS'c:\\marmalade\\7.4\\s3e\\makefile_builder\\templates\\win8_sln.pyc'
p222
F1411758010.0
sS'c:\\marmalade\\7.4\\s3e\\makefile_builder\\mkb_launcher.exe'
p223
F1411757118.0
sS'c:\\marmalade\\7.4\\s3e\\makefile_builder\\plugins\\osx_xcode.pyc'
p224
F1411758010.0
sS'c:\\marmalade\\7.4\\s3e\\makefile_builder\\plugins'
p225
F1411803920.271899
sS'c:\\marmalade\\7.4\\s3e\\makefile_builder\\templates\\wp8_csproj_user.pyc'
p226
F1411758010.0
sS'c:\\marmalade\\7.4\\s3e\\makefile_builder\\plugins\\win32_vc6.pyc'
p227
F1411758010.0
sS'c:\\marmalade\\7.4\\s3e\\makefile_builder\\plugins\\s3e_vc6.pyc'
p228
F1411758008.0
sS'c:\\marmalade\\7.4\\s3e\\makefile_builder\\templates\\vc10_user.pyc'
p229
F1411758010.0
sS'c:\\marmalade\\7.4\\s3e\\makefile_builder\\docs\\deprecated.defines.txt'
p230
F1411756764.0
sS'c:\\marmalade\\7.4\\s3e\\makefile_builder\\templates\\wp81_csproj_user.pyc'
p231
F1411758010.0
sS'c:\\marmalade\\7.4\\s3e\\makefile_builder\\templates\\ws81_ext_sln.pyc'
p232
F1411758010.0
sS'c:\\marmalade\\7.4\\s3e\\makefile_builder\\templates\\make.py'
p233
F1411756764.0
sS'c:\\marmalade\\7.4\\s3e\\makefile_builder\\plugins\\wp81_wp81.pyc'
p234
F1411758010.0
sS'c:\\marmalade\\7.4\\s3e\\makefile_builder\\plugins\\s3e_qmake.pyc'
p235
F1411803920.1701696
sS'c:\\marmalade\\7.4\\s3e\\makefile_builder\\templates\\mips_linker_script'
p236
F1411756764.0
sS'c:\\marmalade\\7.4\\s3e\\makefile_builder\\plugins\\deploy.pyc'
p237
F1411758008.0
sS'c:\\marmalade\\7.4\\s3e\\makefile_builder\\plugins\\ws81_ws81.pyc'
p238
F1411758010.0
sS'c:\\marmalade\\7.4\\s3e\\makefile_builder\\mkb.py'
p239
F1411756764.0
sS'c:\\marmalade\\7.4\\s3e\\makefile_builder\\docs\\options.txt'
p240
F1411756764.0
sS'c:\\marmalade\\7.4\\s3e\\makefile_builder\\mkb_parser.pyc'
p241
F1411758008.0
sS'c:\\marmalade\\7.4\\s3e\\makefile_builder\\templates\\qmake_user.py'
p242
F1411756764.0
sS'c:\\marmalade\\7.4\\s3e\\makefile_builder\\docs\\mkb.defines.txt'
p243
F1411756764.0
sS'c:\\marmalade\\7.4\\s3e\\makefile_builder\\deployment.pyc'
p244
F1411758008.0
sS'c:\\marmalade\\7.4\\s3e\\makefile_builder\\plugins\\wp8_wp8.pyc'
p245
F1411758010.0
sS'c:\\marmalade\\7.4\\s3e\\makefile_builder\\plugins\\linux_scons.pyc'
p246
F1411758010.0
sS'c:\\marmalade\\7.4\\s3e\\makefile_builder\\plugins\\s3e_web.pyc'
p247
F1411758008.0
sS'c:\\marmalade\\7.4\\s3e\\makefile_builder\\plugins\\S3EEmitter.pyc'
p248
F1411758008.0
sS'c:\\marmalade\\7.4\\s3e\\makefile_builder\\plugins\\Win8Emitter.pyc'
p249
F1411758010.0
sS'c:\\marmalade\\7.4\\s3e\\makefile_builder\\templates\\xcode4_arm.xcscheme'
p250
F1411756766.0
sS'c:\\marmalade\\7.4\\s3e\\makefile_builder\\plugins\\vc6_utils.pyc'
p251
F1411758010.0
sS'c:\\marmalade\\7.4\\s3e\\makefile_builder\\templates\\wp8_vcxproj.pyc'
p252
F1411758010.0
sS'c:\\marmalade\\7.4\\s3e\\makefile_builder\\templates\\xcode4.xcscheme'
p253
F1411756766.0
sS'c:\\marmalade\\7.4\\s3e\\makefile_builder\\plugins\\MakeEmitter.pyc'
p254
F1411758008.0
sS'c:\\marmalade\\7.4\\s3e\\makefile_builder\\plugins\\java.pyc'
p255
F1411758010.0
sS'c:\\marmalade\\7.4\\s3e\\makefile_builder\\plugins\\XcodeEmitter.pyc'
p256
F1411803919.9116752
sS'c:\\marmalade\\7.4\\s3e\\makefile_builder\\plugins\\XcodeEmitter.py'
p257
F1411756764.0
sS'c:\\marmalade\\7.4\\s3e\\makefile_builder\\mkb_globals.pyc'
p258
F1411758008.0
sS'c:\\marmalade\\7.4\\s3e\\makefile_builder\\tool_launcher.exe'
p259
F1411757118.0
sS'c:\\marmalade\\7.4\\s3e\\makefile_builder\\mkb_util.pyc'
p260
F1411758008.0
sS'c:\\marmalade\\7.4\\s3e\\makefile_builder\\plugins\\xcode4_schememanagement.pyc'
p261
F1411803919.9427035
sS'c:\\marmalade\\7.4\\s3e\\makefile_builder\\templates\\ws8_sln.pyc'
p262
F1411758010.0
sS'c:\\marmalade\\7.4\\s3e\\makefile_builder\\templates\\win32_sln.pyc'
p263
F1411758010.0
sS'c:\\marmalade\\7.4\\s3e\\makefile_builder\\templates\\wp81_ext_csproj.pyc'
p264
F1411758010.0
sS'c:\\marmalade\\7.4\\s3e\\makefile_builder\\plugins\\s3e_wp81.pyc'
p265
F1411758010.0
sS'c:\\marmalade\\7.4\\s3e\\makefile_builder\\plugins\\s3e_wp8.pyc'
p266
F1411758010.0
sS'c:\\marmalade\\7.4\\s3e\\makefile_builder\\templates\\qmake.py'
p267
F1411756764.0
sS'c:\\marmalade\\7.4\\s3e\\makefile_builder\\templates\\gdb_start.txt'
p268
F1411756764.0
sS'c:\\marmalade\\7.4\\s3e\\makefile_builder\\templates'
p269
F1411803678.9534326
sS'c:\\marmalade\\7.4\\s3e\\makefile_builder\\templates\\ws8_ext_csproj.pyc'
p270
F1411758010.0
sS'c:\\marmalade\\7.4\\s3e\\makefile_builder\\templates\\win8_csproj_user.pyc'
p271
F1411758010.0
sS'c:\\marmalade\\7.4\\s3e\\makefile_builder\\templates\\vc7_suo.pyc'
p272
F1411758010.0
sS'c:\\marmalade\\7.4\\s3e\\makefile_builder\\plugins\\VisualStudioEmitter.pyc'
p273
F1411758010.0
sS'c:\\marmalade\\7.4\\s3e\\makefile_builder\\templates\\linker_script'
p274
F1411756764.0
sS'c:\\marmalade\\7.4\\s3e\\makefile_builder\\docs\\deprecated.options.txt'
p275
F1411756764.0
sS'c:\\marmalade\\7.4\\s3e\\makefile_builder\\plugins\\s3e_xcode.pyc'
p276
F1411803920.2749066
sS'c:\\marmalade\\7.4\\s3e\\makefile_builder\\plugins\\s3e_ws8.pyc'
p277
F1411758010.0
sS'c:\\marmalade\\7.4\\s3e\\makefile_builder\\templates\\xcode4_DeployTool.xcscheme'
p278
F1411756766.0
sS'c:\\marmalade\\7.4\\s3e\\makefile_builder\\templates\\ws8_csproj_user.pyc'
p279
F1411758010.0
sS'c:\\marmalade\\7.4\\s3e\\makefile_builder\\plugins\\osx_scons.pyc'
p280
F1411758010.0
sS'c:\\marmalade\\7.4\\s3e\\makefile_builder\\templates\\ws81_csproj.pyc'
p281
F1411758010.0
sS'c:\\marmalade\\7.4\\s3e\\makefile_builder\\templates\\wp8_sln.pyc'
p282
F1411758010.0
sS'c:\\marmalade\\7.4\\s3e\\makefile_builder\\docs'
p283
F1411803679.0535107
sS'c:\\marmalade\\7.4\\s3e\\makefile_builder\\plugins\\ws8_ws8.pyc'
p284
F1411758010.0
sS'c:\\marmalade\\7.4\\s3e\\makefile_builder\\docs\\deployment_options.txt'
p285
F1411756764.0
sS'c:\\marmalade\\7.4\\s3e\\makefile_builder\\templates\\win32_vcxproj_filters.pyc'
p286
F1411758010.0
sS'c:\\marmalade\\7.4\\s3e\\makefile_builder\\templates\\win32_dsw.pyc'
p287
F1411758010.0
sS'c:\\marmalade\\7.4\\s3e\\makefile_builder\\plugins\\s3e_ws81.pyc'
p288
F1411758010.0
sS'c:\\marmalade\\7.4\\s3e\\makefile_builder\\plugins\\SConsEmitter.pyc'
p289
F1411758010.0
sS'c:\\marmalade\\7.4\\s3e\\makefile_builder\\templates\\wp81_vcxproj.pyc'
p290
F1411758010.0
sS'c:\\marmalade\\7.4\\s3e\\makefile_builder\\plugins\\win8_utils.pyc'
p291
F1411758010.0
sS'c:\\marmalade\\7.4\\s3e\\makefile_builder\\templates\\template.opt'
p292
F1411756764.0
sS'c:\\marmalade\\7.4\\s3e\\makefile_builder\\plugins\\vc7_utils.pyc'
p293
F1411758010.0
sS'c:\\marmalade\\7.4\\s3e\\makefile_builder\\templates\\win32_dsp.pyc'
p294
F1411758010.0
sS'c:\\marmalade\\7.4\\s3e\\makefile_builder\\plugins\\s3e_make.pyc'
p295
F1411758008.0
sS'c:\\marmalade\\7.4\\s3e\\makefile_builder\\templates\\rvct_linker_script'
p296
F1411756764.0
sS'c:\\marmalade\\7.4\\s3e\\makefile_builder\\templates\\win8_csproj.pyc'
p297
F1411758010.0
sS'c:\\marmalade\\7.4\\s3e\\makefile_builder\\templates\\xcode.py'
p298
F1411756766.0
sS'c:\\marmalade\\7.4\\s3e\\makefile_builder\\templates\\ws8_vcxproj.pyc'
p299
F1411758010.0
sS'c:\\marmalade\\7.4\\s3e\\makefile_builder\\templates\\wp81_csproj.pyc'
p300
F1411758010.0
sS'c:\\marmalade\\7.4\\s3e\\makefile_builder\\mkb_upstream.pyc'
p301
F1411758008.0
sS'c:\\marmalade\\7.4\\s3e\\makefile_builder\\templates\\win32_vcxproj.pyc'
p302
F1411758010.0
sS'c:\\marmalade\\7.4\\s3e\\makefile_builder\\templates\\ws8_csproj.pyc'
p303
F1411758010.0
sS'c:\\marmalade\\7.4\\s3e\\makefile_builder\\docs\\parse_options.pyc'
p304
F1411758012.0
sS'c:\\marmalade\\7.4\\s3e\\makefile_builder\\templates\\Info.plist'
p305
F1411756764.0
sS'c:\\marmalade\\7.4\\s3e\\makefile_builder\\templates\\wp81_sln.pyc'
p306
F1411758010.0
sS'c:\\marmalade\\7.4\\s3e\\makefile_builder\\templates\\ws81_csproj_user.pyc'
p307
F1411758010.0
sS'c:\\marmalade\\7.4\\s3e\\makefile_builder\\templates\\ws81_vcxproj.pyc'
p308
F1411758010.0
sccopy_reg
_reconstructor
p309
(cmkb_main
MkbFile
p310
c__builtin__
object
p311
Ntp312
Rp313
(dp314
g5
(lp315
sS'target_name'
p316
S'MVSStage3'
p317
sS'current_file'
p318
g122
sS'package_path'
p319
(lp320
sS'post_build'
p321
(lp322
(lp323
S'c:/marmalade/7.4/s3e/tools'
p324
aS'C:\\Marmalade\\7.4\\s3e\\python\\python.exe .\\process_map.py "$(TargetPath)"'
p325
aa(S'c:\\marmalade\\7.4\\s3e\\bin'
p326
S'"s3e_plink" -l "$(TargetPath)" '
p327
g155
tp328
asS'librarys'
p329
(lp330
g309
(cmkb_main
Library
p331
g311
Ntp332
Rp333
(dp334
S'name'
p335
S'vc6_compat.lib'
p336
sS'expand_name'
p337
I00
sS'include_spec_rvct_objs'
p338
(lp339
sS'include_all_objs'
p340
I00
sS'share_arm'
p341
I00
sS'arch'
p342
S'x86'
p343
sS'nodebug'
p344
I00
sg35
Nsbag309
(g331
g311
Ntp345
Rp346
(dp347
g335
S'iw2d'
p348
sg337
I01
sg338
(lp349
sg340
Nsg341
Nsg342
Nsg344
I00
sg35
Nsbag309
(g331
g311
Ntp350
Rp351
(dp352
g335
S'ATI_Compress_MT_VC7.lib'
p353
sg337
I00
sg338
g349
sg340
Nsg341
Nsg342
S'x86'
p354
sg344
I00
sg35
Nsbag309
(g331
g311
Ntp355
Rp356
(dp357
g335
S'iwgx'
p358
sg337
I01
sg338
g349
sg340
Nsg341
Nsg342
Nsg344
I00
sg35
Nsbag309
(g331
g311
Ntp359
Rp360
(dp361
g335
S'iwgl'
p362
sg337
I01
sg338
g349
sg340
Nsg341
Nsg342
Nsg344
I00
sg35
Nsbag309
(g331
g311
Ntp363
Rp364
(dp365
g335
S'iwutil'
p366
sg337
I01
sg338
g349
sg340
Nsg341
Nsg342
Nsg344
I00
sg35
Nsbag309
(g331
g311
Ntp367
Rp368
(dp369
g335
S'jpeg'
p370
sg337
I01
sg338
g349
sg340
Nsg341
Nsg342
Nsg344
I00
sg35
Nsbag309
(g331
g311
Ntp371
Rp372
(dp373
g335
S'z'
p374
sg337
I01
sg338
g349
sg340
Nsg341
Nsg342
Nsg344
I00
sg35
Nsbag309
(g331
g311
Ntp375
Rp376
(dp377
g335
S'png'
p378
sg337
I01
sg338
g349
sg340
Nsg341
Nsg342
Nsg344
I00
sg35
Nsbag309
(g331
g311
Ntp379
Rp380
(dp381
g335
S'iwgeom'
p382
sg337
I01
sg338
g349
sg340
Nsg341
Nsg342
Nsg344
I00
sg35
Nsbag309
(g331
g311
Ntp383
Rp384
(dp385
g335
S'iwresmanager'
p386
sg337
I01
sg338
g349
sg340
Nsg341
Nsg342
Nsg344
I00
sg35
Nsbag309
(g331
g311
Ntp387
Rp388
(dp389
g335
S'iwgxfont'
p390
sg337
I01
sg338
g349
sg340
Nsg341
Nsg342
Nsg344
I00
sg35
Nsbag309
(g331
g311
Ntp391
Rp392
(dp393
g335
S'tiniconv'
p394
sg337
I01
sg338
g349
sg340
Nsg341
Nsg342
Nsg344
I00
sg35
Nsbag309
(g331
g311
Ntp395
Rp396
(dp397
g335
S's3e_cpp'
p398
sg337
I01
sg338
g339
sg340
I00
sg341
I00
sg342
Nsg344
I00
sg35
Nsbag309
(g331
g311
Ntp399
Rp400
(dp401
g335
S's3e'
p402
sg337
I01
sg338
(lp403
S'iwcrt.o'
p404
asg340
I00
sg341
I00
sg342
Nsg344
I00
sg35
Nsbag309
(g331
g311
Ntp405
Rp406
(dp407
g335
g50
sg337
I01
sg338
g339
sg340
I00
sg341
I00
sg342
S'x86'
p408
sg344
I01
sg35
Nsbag309
(g331
g311
Ntp409
Rp410
(dp411
g335
g50
sg337
I01
sg338
g339
sg340
I00
sg341
I00
sg342
S'!x86'
p412
sg344
I01
sg35
Nsbag309
(g331
g311
Ntp413
Rp414
(dp415
g335
S'stdc++'
p416
sg337
I00
sg338
g339
sg340
I00
sg341
I00
sg342
S'mips'
p417
sg344
I00
sg35
Nsbag309
(g331
g311
Ntp418
Rp419
(dp420
g335
S'c'
p421
sg337
I00
sg338
g339
sg340
I00
sg341
I00
sg342
S'mips'
p422
sg344
I00
sg35
Nsbag309
(g331
g311
Ntp423
Rp424
(dp425
g335
S'm'
p426
sg337
I00
sg338
g339
sg340
I00
sg341
I00
sg342
S'mips'
p427
sg344
I00
sg35
Nsbag309
(g331
g311
Ntp428
Rp429
(dp430
g335
S'gcc'
p431
sg337
I00
sg338
g339
sg340
I00
sg341
I00
sg342
S'mips'
p432
sg344
I00
sg35
Nsbag309
(g331
g311
Ntp433
Rp434
(dp435
g335
S'stdc++'
p436
sg337
I00
sg338
g339
sg340
I00
sg341
I00
sg342
S'gcc_x86_android'
p437
sg344
I00
sg35
Nsbag309
(g331
g311
Ntp438
Rp439
(dp440
g335
g421
sg337
I00
sg338
g339
sg340
I00
sg341
I00
sg342
S'gcc_x86_android'
p441
sg344
I00
sg35
Nsbag309
(g331
g311
Ntp442
Rp443
(dp444
g335
g426
sg337
I00
sg338
g339
sg340
I00
sg341
I00
sg342
S'gcc_x86_android'
p445
sg344
I00
sg35
Nsbag309
(g331
g311
Ntp446
Rp447
(dp448
g335
g431
sg337
I00
sg338
g339
sg340
I00
sg341
I00
sg342
S'gcc_x86_android'
p449
sg344
I00
sg35
NsbasS'library_paths'
p450
(lp451
g309
(cmkb_main
LibraryPath
p452
g311
Ntp453
Rp454
(dp455
S'expand_path'
p456
I01
sg335
S'c:/marmalade/7.4/modules/iw2d'
p457
sbag309
(g452
g311
Ntp458
Rp459
(dp460
g456
I00
sg335
S'c:/marmalade/7.4/modules/iwgx/atitools'
p461
sbag309
(g452
g311
Ntp462
Rp463
(dp464
g456
I01
sg335
S'c:/marmalade/7.4/modules/iwgx'
p465
sbag309
(g452
g311
Ntp466
Rp467
(dp468
g456
I01
sg335
S'c:/marmalade/7.4/modules/iwgl'
p469
sbag309
(g452
g311
Ntp470
Rp471
(dp472
g456
I01
sg335
S'c:/marmalade/7.4/modules/iwutil'
p473
sbag309
(g452
g311
Ntp474
Rp475
(dp476
g456
I01
sg335
S'c:/marmalade/7.4/modules/third_party/libjpeg'
p477
sbag309
(g452
g311
Ntp478
Rp479
(dp480
g456
I01
sg335
S'c:/marmalade/7.4/modules/third_party/zlib'
p481
sbag309
(g452
g311
Ntp482
Rp483
(dp484
g456
I01
sg335
S'c:/marmalade/7.4/modules/third_party/libpng'
p485
sbag309
(g452
g311
Ntp486
Rp487
(dp488
g456
I01
sg335
S'c:/marmalade/7.4/modules/iwgeom'
p489
sbag309
(g452
g311
Ntp490
Rp491
(dp492
g456
I01
sg335
S'c:/marmalade/7.4/modules/iwresmanager'
p493
sbag309
(g452
g311
Ntp494
Rp495
(dp496
g456
I01
sg335
S'c:/marmalade/7.4/modules/iwgxfont'
p497
sbag309
(g452
g311
Ntp498
Rp499
(dp500
g456
I01
sg335
S'c:/marmalade/7.4/modules/third_party/tiniconv'
p501
sbag309
(g452
g311
Ntp502
Rp503
(dp504
g456
I01
sg335
S'c:/marmalade/7.4/s3e'
p505
sbasS'macros'
p506
(dp507
S'IW_USE_CALLSTACK'
p508
NsS'IW_MKF_IWGEOM'
p509
NsS'I3D_PLATFORM_S3E'
p510
NsS'IW_TRACE_CHANNEL_PVRTEXTOOL_VERBOSE'
p511
S'2'
p512
sS'IW_MKF_LIBJPEG'
p513
NsS'I3D_OS_S3E'
p514
NsS'IW_MKF_PVRTEXTOOL'
p515
NsS'IW_MKF_TINICONV'
p516
NsS'IW_APP_VERSION'
p517
S'"1.0"'
p518
sS'__S3E__'
p519
NsS'IW_MKF_IWRESMANAGER'
p520
NsS'IW_MKF_IWUTIL'
p521
NsS'IW_PLATFORM_S3E'
p522
NsS'IW_ASSERTION_CHANNEL_2D'
p523
S'1'
p524
sS'IW_APP_NAME'
p525
S'"MVSStage3"'
p526
sS'IW_MKF_IWGXFONT'
p527
NsS'IW_MKF_ZLIB'
p528
NsS'IW_MKF_IWGX'
p529
NsS'IW_MKF_IW2DSCENEGRAPH'
p530
NsS'IW_MKF_SOUNDENGINE'
p531
NsS'IW_USE_ASSERTIONS'
p532
NsS'_CRT_SECURE_NO_DEPRECATE'
p533
NsS'IW_MKF_IWGL'
p534
NsS'IW_MKF_LIBPNG'
p535
NsS'IW_TRACE_CHANNEL_IW_2DSCENEGRAPH'
p536
g524
sS'IW_DEBUG'
p537
NsS'IW_USE_TRACING'
p538
NsS'IW_ASSERTION_CHANNEL_IW_2DSCENEGRAPH'
p539
g524
sS'IW_TRACE_CHANNEL_PVRTEXTOOL'
p540
g524
sS'IW_SDK'
p541
NsS'S3E_INCLUDE_LEGACY'
p542
NsS'IW_MKF_IW2DSCENEGRAPHCORE'
p543
NsS'IW_MKF_IW2D'
p544
NsS'IW_ASSERTION_CHANNEL_PVRTEXTOOL'
p545
g524
ssS'done_warnings'
p546
(dp547
sS'subprojects'
p548
(dp549
g187
S'../iw2dscenegraphcore'
p550
sg180
S'zlib'
p551
sg179
S'libpng'
p552
sg178
S'libjpeg'
p553
sg185
S'tiniconv'
p554
sg175
S'iwgx'
p555
sg181
S'iwgeom'
p556
sg177
S'iwutil'
p557
sg186
S'iw2dscenegraph'
p558
sg174
S'iw2d'
p559
sg184
S'iwgxfont'
p560
sg182
S'iwresmanager'
p561
sg188
S'SoundEngine'
p562
sg176
S'iwgl'
p563
sg183
S'PVRTexTool'
p564
ssS'deployments'
p565
(dp566
S'Default'
p567
g309
(cdeployment
Deployment
p568
g311
Ntp569
Rp570
(dp571
S'got_version'
p572
I0
sS'assets'
p573
g567
sS'mkb'
p574
g313
sS'target'
p575
Nsg342
(lp576
sS'options'
p577
(dp578
S'iphone-link-lib'
p579
(lp580
sS'game-icf'
p581
NsS'android-tm'
p582
NsS'winmobile-icon32'
p583
NsS'ws8-logo-image150x150'
p584
NsS'wp81-logo-image150x150'
p585
NsS'ws81-product-version'
p586
NsS'osx-ext-dll'
p587
(lp588
S'c:/marmalade/7.4/extensions/pvrtextool/lib/osx/libPVRTexTool.dylib'
p589
asS'iphone-provisioning-profile'
p590
NsS'ws8-splash-screen-image620x300'
p591
NsS'wp81-extra-pri'
p592
(lp593
sS'ws8-ext-capabilities'
p594
(lp595
sS'android-icon-hdpi'
p596
NsS'brew-icon-large'
p597
NsS'iphone-splash-full-orient'
p598
NsS'wp8-tile-fliptemplate-supports-large'
p599
NsS'iphone-show-status-bar'
p600
NsS'roku-requires-mkv'
p601
NsS'long-caption'
p602
NsS'android-pkgname'
p603
NsS'wp81-publisher-display-name'
p604
NsS'blackberry-permissions-read-device-identifying-information'
p605
NsS'ws81-certificate-end-date'
p606
NsS'psp-dlgcontentid'
p607
NsS'iphone-minimum-ios-version'
p608
NsS'target-folder'
p609
NsS'tizen-dist1-CA-path'
p610
NsS'symbian-icon2-format'
p611
NsS'tizen-author-key'
p612
NsS'firefoxos-icon-128X128'
p613
NsS'iphone-region'
p614
NsS'uiq3-icon3-mask'
p615
NsS'brew-encoding'
p616
NsS'android-x86'
p617
NsS'nds-initialcode'
p618
NsS'iphone-persistent-wifi'
p619
NsS'psp-snd0'
p620
NsS'roku-icon-focus-hd'
p621
NsS'winmobile-install-folder'
p622
NsS'android-external-res'
p623
(lp624
sS'ws8-product-version'
p625
NsS'brew-priviledges'
p626
NsS'iphone-icon-ipad-search'
p627
NsS'iphone-icon-ipad'
p628
NsS'roku-hidden'
p629
NsS'psp-titlename'
p630
NsS'wp81-product-version'
p631
NsS'symbian-icon1-mask'
p632
NsS'psp-parentallevel'
p633
NsS'splashscreen-use-all'
p634
NsS'wp8-author'
p635
NsS'symbian-disable-ecompxl'
p636
NsS'splashscreen-auto-onblack'
p637
NsS'win32-ext-dll'
p638
(lp639
S'c:/marmalade/7.4/extensions/pvrtextool/lib/win32/PVRTexTool.dll'
p640
asS'iphone-development-key'
p641
NsS'winmobile-icon48'
p642
NsS'android-unsigned'
p643
NsS'osx-appstore-category'
p644
NsS'version-revision'
p645
NsS'roku-icon-focus-sd'
p646
NsS'android-keystore'
p647
NsS'winmobile-png90'
p648
NsS'iphone-icon-ipad-high-res'
p649
NsS'iphone-disable-ipad'
p650
NsS'wp8-product-id'
p651
NsS'ws81-splash-screen-background'
p652
NsS'wp8-ext-capabilities'
p653
(lp654
sS'iphone-ipad-only'
p655
NsS'symbian-icon1-mask-black'
p656
NsS'iphone-nosign'
p657
NsS'iphone-bundle-localisations'
p658
NsS'winmobile-png60'
p659
NsS'blackberry-permissions-access-shared'
p660
NsS'blackberry-author'
p661
NsS'android-icon-xxxhdpi'
p662
NsS'olddeploytoolstyle'
p663
NsS'android_icon_gallery'
p664
NsS'wp81-splash-screen-background'
p665
NsS'winmobile-cab-compress'
p666
NsS'iphone-info-plist'
p667
NsS'ws81-ext-managed-dll'
p668
(lp669
sS'playbook-cskpass'
p670
NsS'ws8-distribution-pfx-password'
p671
NsS'symbian-key'
p672
NsS'app-icf'
p673
NsS'blackberry-storepass'
p674
NsS'wp8-tile-fliptemplate-back-title'
p675
NsS'brew-compress-loader'
p676
NsS'win32-pref-windowposy'
p677
NsS'win32-pref-windowposx'
p678
NsS'roku-requires-audiometadata'
p679
NsS'wp8-exclude-low-mem'
p680
NsS'iphone-icon-ipad-search-high-res'
p681
NsS'iphone-link-libdir'
p682
(lp683
sS'wp81-ext-capabilities'
p684
(lp685
sS'blackberry-permissions-read-geolocation'
p686
NsS'ws81-ext-device-capabilities'
p687
(lp688
sS'tizen-signed'
p689
NsS'android-extra-application-manifest'
p690
(lp691
sS'ws8-ext-native-dll'
p692
(lp693
sS'symbian-icon2-mask'
p694
NsS'iphone-backgroundmode-audio'
p695
NsS'webos-memory'
p696
NsS'android-keypass'
p697
NsS'name'
p698
NsS'uiq3-icon2-format'
p699
NsS'roku-splash-screen-sd'
p700
NsS'auto-derbh'
p701
NsS'roku-icon-side-sd'
p702
NsS'android-external-assets'
p703
(lp704
sS'nds-publicsavedatasize'
p705
NsS'splashscreen'
p706
NsS'brew-mif'
p707
NsS'iphone-icon-settings-high-res'
p708
NsS'android-manifest'
p709
NsS'ws81-splash-screen-image620x300'
p710
NsS'wp81-product-name'
p711
NsS's3e-compression'
p712
NsS'tizen-author-password'
p713
NsS'wp8-tile-fliptemplate-back-content'
p714
NsS'blackberry-extra-descriptor'
p715
(lp716
sS'symbian-icon1'
p717
NsS'symbian-icon2'
p718
NsS'android-extra-styles-file'
p719
NsS'wp81-publisher-id'
p720
NsS'nds-bannertitle-jp'
p721
NsS'wp81-logo-image44x44'
p722
NsS'osx-sign-for-store'
p723
NsS'symbian7-uid'
p724
NsS'wp8-tile-fliptemplate-large-back-content'
p725
NsS'wp81-phone-publisher-id'
p726
NsS'nds-bannertitle-cn'
p727
NsS'iphone-distribution-key'
p728
NsS'android-icon-gallery'
p729
NsS'blackberry-keystore'
p730
NsS'ws8-extra-res'
p731
(lp732
sS'caption'
p733
NsS'android-extra-manifest'
p734
(lp735
sS'wp81-ext-sdk-ref'
p736
(lp737
sS'android-icon-xxhdpi'
p738
NsS'version-minor'
p739
NsS'iphone-link-libdirs'
p740
(lp741
sS'iphone-icon-large'
p742
NsS'symbian-keypwd'
p743
NsS'symbian8-uid'
p744
NsS'symbian-cert-key'
p745
NsS'winmobile-ampd-part-number'
p746
NsS'arch'
p747
NsS'nds-romheadertemplate'
p748
NsS'webos-icon'
p749
NsS'wp81-ext-device-capabilities'
p750
(lp751
sS'psp-dlgprotectdocument'
p752
NsS'ws8-splash-screen-background'
p753
NsS'android-icon-mdpi'
p754
NsS'nds-icon'
p755
NsS'ws8-custom-manifest-fill'
p756
NsS'iphone-development-cert'
p757
NsS'blackberry-phone-icon'
p758
NsS'iphone-enable-4inch-retina'
p759
NsS'ws8-custom-manifest'
p760
NsS'version-major'
p761
NsS'wp8-genre-isgame'
p762
NsS'uiq3-uid'
p763
NsS'iphone-splash-retina-generate'
p764
NsS'tizen-hw-acceleration'
p765
NsS'iphone_bundle_localisations'
p766
NsS'tizen-dist1-key'
p767
NsS'wp81-custom-manifest-fill'
p768
NsS'wp8-custom-manifest'
p769
NsS'nds-bannertitle-ge'
p770
NsS'iphone-sign-for-distribution'
p771
NsS'wp8-tile-fliptemplate-medium-back-image'
p772
NsS'wp8-publisher-id'
p773
NsS'icon'
p774
NsS'wp8-exclude-wxga'
p775
NsS'wp81-identity-name'
p776
NsS'uiq3-icon2-mask'
p777
NsS'iphone-splashscreen-portrait'
p778
NsS'iphone-icon-high-res'
p779
NsS'ws81-distribution-pfx-password'
p780
NsS'playbook-author'
p781
NsS'android-icon-xhdpi'
p782
NsS'linux-ext-lib'
p783
(lp784
sS'blackberry-permissions-access-internet'
p785
NsS'wp8-exclude-720p'
p786
NsS'lgtv-use-drm'
p787
NsS'symbian-platsecflags'
p788
NsS'ws8-description'
p789
NsS'blackberry-playbook-icon'
p790
NsS'copyright'
p791
NsS'win32-gles-directory'
p792
NsS'version'
p793
NsS'ws81-logo-image150x150'
p794
NsS'osx-signing-identity-app'
p795
NsS'tizen-project-url'
p796
NsS'symbian-icon-svg'
p797
NsS'android-aliasname'
p798
NsS'psp-dlgmanual'
p799
NsS'brew-uid'
p800
NsS'symbian-locationsupport'
p801
NsS'wp81-logo-image50x50'
p802
NsS'ws8-ext-managed-dll'
p803
(lp804
sS'nds-bannertitle-it'
p805
NsS'ws81-custom-manifest-fill'
p806
NsS'ws8-ext-sdk-manifest-part'
p807
(lp808
sS'uiq3-icon1-mask'
p809
NsS'winmobile-icon16'
p810
NsS'ws8-product-name'
p811
NsS'blackberry-cskpass'
p812
NsS'winmobile-start-menu-folder'
p813
NsS'brew-clsid'
p814
NsS'roku-requires-bluetooth'
p815
NsS'ws8-ext-device-capabilities'
p816
(lp817
sS'blackberry-permissions-use-camera'
p818
NsS'ws81-extra-pri'
p819
(lp820
sS'iphone-prerendered-icon'
p821
NsS'iphone-appid'
p822
NsS'ws8-identity-name'
p823
NsS'tizen-dist2-CA-path'
p824
NsS'android-external-jars'
p825
(lp826
sS'winmobile-icon64'
p827
NsS'blackberry-permissions-post-notification'
p828
NsS'winmobile-setup-dll'
p829
NsS'firefoxos-manifest'
p830
NsS'win8-winrt-extra-res'
p831
(lp832
sS'wp81-ext-sdk-manifest-part'
p833
(lp834
sS'symbian9-uid'
p835
NsS'iphone-icon-ipad-ios7'
p836
NsS'winmobile-trace-file'
p837
NsS'roku-splash-color'
p838
NsS'psp-appversion'
p839
NsS'ws8-publisher-id'
p840
NsS'android-supports-gl-texture'
p841
(lp842
sS'winmobile-png45'
p843
NsS'wp81-extra-res'
p844
(lp845
sS'android-storepass'
p846
NsS'osx-signing-identity-inst'
p847
NsS'android-custom-activity'
p848
NsS'psp-discversion'
p849
NsS'wp81-ext-managed-dll'
p850
(lp851
sS'psp-copyright'
p852
NsS'embed-icf'
p853
NsS'tizen-manifest'
p854
NsS'osx-icon'
p855
NsS'webos-appinfo'
p856
NsS'psp-dlghealthwarning'
p857
NsS'webos-appid'
p858
NsS'roku-icon-side-hd'
p859
NsS'iphone-icon-ipad-search-high-res-ios7'
p860
NsS'ws81-ext-sdk-manifest-part'
p861
(lp862
sS'loader_name_prefix'
p863
NsS'nds-titlename'
p864
NsS'ws81-logo-image50x50'
p865
NsS'wp81-custom-manifest'
p866
NsS'osx-entitlements-plist'
p867
NsS'psp-dlgicon0'
p868
NsS'winmobile-nouninstall'
p869
NsS'psp-discid'
p870
NsS'tizen-dist2-password'
p871
NsS'ws8-ext-sdk-ref'
p872
(lp873
sS'iphone-extra-string'
p874
(lp875
sS'version-string'
p876
NsS'iphone-icon-high-res-ios7'
p877
NsS'blackberry-permissions-record-audio'
p878
NsS'ws8-certificate-end-date'
p879
NsS'tizen-so'
p880
(lp881
sS'wp8-tile-fliptemplate-small-image'
p882
NsS'playbook-authorid'
p883
NsS'iphone-signing-identity'
p884
NsS'roku-persist-quota'
p885
NsS'nds-bannertitle-fr'
p886
NsS'ws8-distribution-pfx'
p887
NsS'ws8-publisher-display-name'
p888
NsS'brew-icon-small'
p889
NsS'psp-dlgpic2'
p890
NsS'psp-dlgpic0'
p891
NsS'psp-pic0'
p892
NsS'psp-pic1'
p893
NsS'win32-pref-windowtitle'
p894
NsS'psp-icon0'
p895
NsS'psp-icon1'
p896
NsS'ws81-identity-name'
p897
NsS'winmobile-icon'
p898
NsS'iphone-no-splash'
p899
NsS'iphone-splash'
p900
NsS'iphone-app-fonts'
p901
NsS'wp8-ext-native-dll'
p902
(lp903
sS'wp81-splash-screen-image480x800'
p904
NsS'ws81-distribution-cer'
p905
NsS'uiq3-icon2'
p906
NsS'uiq3-icon3'
p907
NsS'uiq3-icon1'
p908
NsS'uiq3-icon1-format'
p909
NsS'ws8-logo-image50x50'
p910
NsS'symbian-icon2-mask-black'
p911
NsS'symbian-run-on-install'
p912
NsS'wp81-description'
p913
NsS'ws81-publisher-display-name'
p914
NsS'firefoxos-xulrunner'
p915
NsS'symbian-soundrecordsupport'
p916
NsS'nds-bannertitle-sp'
p917
NsS'psp-producer'
p918
NsS'iphone-apple-wwdr-cert'
p919
NsS'android-icon-nonstandard'
p920
NsS'win32-pref-processtitle'
p921
NsS'nds-bannertitle-hn'
p922
NsS'tizen-dist2-key'
p923
NsS'brew-depends'
p924
NsS'ws81-custom-manifest'
p925
NsS'iphone-icon-ipad-search-ios7'
p926
NsS'brew-icon-medium'
p927
NsS'iphone-bundle-url-name'
p928
NsS'wp8-tile-fliptemplate-large-front-image'
p929
NsS'tizen-dist2-CA-root-path'
p930
NsS'ws81-description'
p931
NsS'uiq3-icon3-format'
p932
NsS'ws81-logo-image30x30'
p933
NsS'win8-phone-extra-res'
p934
(lp935
sS'iphone-signing-host'
p936
NsS'tizen-icon'
p937
NsS'osx-info-plist'
p938
NsS'symbian-icon1-format'
p939
NsS'win8-store-extra-res'
p940
(lp941
sS'blackberry-authorid'
p942
NsS'ws81-publisher-id'
p943
NsS'ws81-distribution-pfx'
p944
NsS'wp8-description'
p945
NsS'iphone-link-opts'
p946
(lp947
sS'ws81-ext-sdk-ref'
p948
(lp949
sS'roku-splash-min-time'
p950
NsS'wp8-tile-fliptemplate-medium-front-image'
p951
NsS'provider'
p952
NsS'playbook-keystore'
p953
NsS'tizen-appid'
p954
NsS'wp8-extra-res'
p955
(lp956
sS'symbian-osexecsupport'
p957
NsS'android-install-location'
p958
NsS'nds-privatesavedatasize'
p959
NsS'playbook-storepass'
p960
NsS'android-icon-ldpi'
p961
NsS'manufacturer'
p962
NsS'itunes-artwork'
p963
NsS'iphone-extra-sections'
p964
NsS'ws81-product-name'
p965
NsS'ws81-ext-native-dll'
p966
(lp967
sS'ws8-extra-pri'
p968
(lp969
sS'win32-icon'
p970
NsS'ws8-logo-image30x30'
p971
NsS'wp8-ext-managed-dll'
p972
(lp973
sS'iphone-splashscreen-landscape'
p974
NsS'symbian-maxheapsize'
p975
NsS'nds-makercode'
p976
NsS'priv-sign-key'
p977
NsS'networking'
p978
NsS'android-icon'
p979
NsS'iphone-icon-settings'
p980
NsS'wp81-phone-product-id'
p981
NsS'firefoxos-icon-60X60'
p982
NsS'iphone-distribution-cert'
p983
NsS'android_extra_strings'
p984
NsS'nds-bannertitle-en'
p985
NsS'wp8-tile-fliptemplate-title'
p986
NsS'android-so'
p987
(lp988
sS'wp8-higher-mem'
p989
NsS'wp8-ext-sdk-ref'
p990
(lp991
sS'roku-splash-screen-hd'
p992
NsS'iphone-bundle-url-schemes'
p993
NsS'roku-screensaver-private'
p994
NsS'osx-extra-res'
p995
(lp996
sS'ws81-extra-res'
p997
(lp998
sS'playbook-icon'
p999
NsS'uid'
p1000
NsS'pkguid-as-uid'
p1001
NsS'wp81-ext-native-dll'
p1002
(lp1003
sS'tizen-dist1-password'
p1004
NsS'roku-screensaver-title'
p1005
NsS'osx-minimum-osx-version'
p1006
NsS'symbian-cert'
p1007
NsS'iphone-icon'
p1008
NsS'ws81-ext-capabilities'
p1009
(lp1010
sS'ws8-distribution-cer'
p1011
NsS'playbook-access-shared'
p1012
NsS'iphone-icon-ipad-high-res-ios7'
p1013
NsS'iphone-link-libs'
p1014
(lp1015
sS'wp8-exclude-wvga'
p1016
NsS'assets'
p1017
NsS'wp8-tile-fliptemplate-large-back-image'
p1018
NsS'wp8-custom-manifest-fill'
p1019
NsS'pub-sign-key'
p1020
NsS'android-extra-strings'
p1021
NsS'tizen-author-CA-path'
p1022
Nssg335
g567
sbssS'platform'
p1023
S'S3E'
p1024
sg65
S'1.0'
p1025
sS'arcade_platform'
p1026
g4
sS'extensions'
p1027
(dp1028
sS'source_groups_tree'
p1029
(dp1030
S'(libpng)'
p1031
(dp1032
S'h'
p1033
(dp1034
S'c:/marmalade/7.4/modules/third_party/libpng/h/png.h'
p1035
(lp1036
I1
a(dp1037
asS'c:/marmalade/7.4/modules/third_party/libpng/h/pngconf.h'
p1038
(lp1039
I1
ag1037
assS'c:/marmalade/7.4/modules/third_party/libpng/libpng.mkf'
p1040
(lp1041
I1
a(dp1042
assS'(libjpeg)'
p1043
(dp1044
g1033
(dp1045
S'c:/marmalade/7.4/modules/third_party/libjpeg/h/jerror.h'
p1046
(lp1047
I1
a(dp1048
asS'c:/marmalade/7.4/modules/third_party/libjpeg/h/jmemsys.h'
p1049
(lp1050
I1
ag1048
asS'c:/marmalade/7.4/modules/third_party/libjpeg/h/jchuff.h'
p1051
(lp1052
I1
ag1048
asS'c:/marmalade/7.4/modules/third_party/libjpeg/h/jpeglib.h'
p1053
(lp1054
I1
ag1048
asS'c:/marmalade/7.4/modules/third_party/libjpeg/h/cdjpeg.h'
p1055
(lp1056
I1
ag1048
asS'c:/marmalade/7.4/modules/third_party/libjpeg/h/jinclude.h'
p1057
(lp1058
I1
ag1048
asS'c:/marmalade/7.4/modules/third_party/libjpeg/h/jconfig.h'
p1059
(lp1060
I1
ag1048
asS'c:/marmalade/7.4/modules/third_party/libjpeg/h/cderror.h'
p1061
(lp1062
I1
ag1048
asS'c:/marmalade/7.4/modules/third_party/libjpeg/h/jdct.h'
p1063
(lp1064
I1
ag1048
asS'c:/marmalade/7.4/modules/third_party/libjpeg/h/jversion.h'
p1065
(lp1066
I1
ag1048
asS'c:/marmalade/7.4/modules/third_party/libjpeg/h/transupp.h'
p1067
(lp1068
I1
ag1048
asS'c:/marmalade/7.4/modules/third_party/libjpeg/h/jdhuff.h'
p1069
(lp1070
I1
ag1048
asS'c:/marmalade/7.4/modules/third_party/libjpeg/h/jpegint.h'
p1071
(lp1072
I1
ag1048
asS'c:/marmalade/7.4/modules/third_party/libjpeg/h/jmorecfg.h'
p1073
(lp1074
I1
ag1048
assS'c:/marmalade/7.4/modules/third_party/libjpeg/libjpeg.mkf'
p1075
(lp1076
I1
a(dp1077
assS'(tiniconv)'
p1078
(dp1079
S'c:/marmalade/7.4/modules/third_party/tiniconv/source/tiniconv_int.h'
p1080
(lp1081
I1
a(dp1082
asS'c:/marmalade/7.4/modules/third_party/tiniconv/tiniconv.mkf'
p1083
(lp1084
I1
a(dp1085
asS'c:/marmalade/7.4/modules/third_party/tiniconv/source/tiniconv.h'
p1086
(lp1087
I1
ag1082
assS'(SoundEngine)'
p1088
(dp1089
S'c:/marmalade/7.4/examples/gametutorial/cpp/modules/soundengine/h/IwSoundInst.h'
p1090
(lp1091
I1
a(dp1092
asS'c:/marmalade/7.4/examples/gametutorial/cpp/modules/soundengine/h/IwSoundWAV.h'
p1093
(lp1094
I1
ag1092
asS'c:/marmalade/7.4/examples/gametutorial/cpp/modules/soundengine/source/IwSoundParams.cpp'
p1095
(lp1096
I1
ag1092
asS'c:/marmalade/7.4/examples/gametutorial/cpp/modules/soundengine/source/IwSoundManager.cpp'
p1097
(lp1098
I1
ag1092
asS'c:/marmalade/7.4/examples/gametutorial/cpp/modules/soundengine/h/IwSoundPCM.h'
p1099
(lp1100
I1
ag1092
asS'Docs'
p1101
(dp1102
S'c:/marmalade/7.4/examples/gametutorial/cpp/modules/soundengine/docs/iwsound.config.txt'
p1103
(lp1104
I1
ag1092
assS'c:/marmalade/7.4/examples/gametutorial/cpp/modules/soundengine/h/IwSoundGroup.h'
p1105
(lp1106
I1
ag1092
asS'c:/marmalade/7.4/examples/gametutorial/cpp/modules/soundengine/soundengine.mkf'
p1107
(lp1108
I1
a(dp1109
asS'c:/marmalade/7.4/examples/gametutorial/cpp/modules/soundengine/h/IwSoundManager.h'
p1110
(lp1111
I1
ag1092
asS'c:/marmalade/7.4/examples/gametutorial/cpp/modules/soundengine/source/IwSoundGroup.cpp'
p1112
(lp1113
I1
ag1092
asS'c:/marmalade/7.4/examples/gametutorial/cpp/modules/soundengine/source/IwSoundADPCM.cpp'
p1114
(lp1115
I1
ag1092
asS'c:/marmalade/7.4/examples/gametutorial/cpp/modules/soundengine/source/IwSoundPCM.cpp'
p1116
(lp1117
I1
ag1092
asS'c:/marmalade/7.4/examples/gametutorial/cpp/modules/soundengine/h/IwSoundSpec.h'
p1118
(lp1119
I1
ag1092
asS'c:/marmalade/7.4/examples/gametutorial/cpp/modules/soundengine/source/IwSoundData.cpp'
p1120
(lp1121
I1
ag1092
asS'c:/marmalade/7.4/examples/gametutorial/cpp/modules/soundengine/source/IwResHandlerWAV.cpp'
p1122
(lp1123
I1
ag1092
asS'c:/marmalade/7.4/examples/gametutorial/cpp/modules/soundengine/h/IwSoundADPCM.h'
p1124
(lp1125
I1
ag1092
asS'c:/marmalade/7.4/examples/gametutorial/cpp/modules/soundengine/h/IwSoundParams.h'
p1126
(lp1127
I1
ag1092
asS'c:/marmalade/7.4/examples/gametutorial/cpp/modules/soundengine/h/IwSound.h'
p1128
(lp1129
I1
ag1092
asS'c:/marmalade/7.4/examples/gametutorial/cpp/modules/soundengine/source/IwSoundSpec.cpp'
p1130
(lp1131
I1
ag1092
asS'c:/marmalade/7.4/examples/gametutorial/cpp/modules/soundengine/h/IwSoundData.h'
p1132
(lp1133
I1
ag1092
asS'c:/marmalade/7.4/examples/gametutorial/cpp/modules/soundengine/source/IwSoundInst.cpp'
p1134
(lp1135
I1
ag1092
asS'c:/marmalade/7.4/examples/gametutorial/cpp/modules/soundengine/h/IwResHandlerWAV.h'
p1136
(lp1137
I1
ag1092
asS'c:/marmalade/7.4/examples/gametutorial/cpp/modules/soundengine/source/IwSoundWAV.cpp'
p1138
(lp1139
I1
ag1092
assS'source'
p1140
(dp1141
S'e:/Documents/Michiel/Programmeren/Marmalade/MVSStage3/source/audio.cpp'
p1142
(lp1143
I1
a(dp1144
asS'e:/Documents/Michiel/Programmeren/Marmalade/MVSStage3/source/resources.cpp'
p1145
(lp1146
I1
ag1144
asS'e:/Documents/Michiel/Programmeren/Marmalade/MVSStage3/source/input.cpp'
p1147
(lp1148
I1
ag1144
asS'e:/Documents/Michiel/Programmeren/Marmalade/MVSStage3/source/pauseMenu.cpp'
p1149
(lp1150
I1
ag1144
asS'e:/Documents/Michiel/Programmeren/Marmalade/MVSStage3/source/scene.cpp'
p1151
(lp1152
I1
ag1144
asS'e:/Documents/Michiel/Programmeren/Marmalade/MVSStage3/source/game.cpp'
p1153
(lp1154
I1
ag1144
asS'e:/Documents/Michiel/Programmeren/Marmalade/MVSStage3/source/mainMenu.cpp'
p1155
(lp1156
I1
ag1144
asS'e:/Documents/Michiel/Programmeren/Marmalade/MVSStage3/source/MVSStage3_main.cpp'
p1157
(lp1158
I1
ag1144
assS'Extensions'
p1159
(dp1160
S'PVRTexTool'
p1161
(dp1162
S'interface'
p1163
(dp1164
S'c:/marmalade/7.4/extensions/pvrtextool/interface/PVRTexTool_interface.cpp'
p1165
(lp1166
I1
a(dp1167
asS'c:/marmalade/7.4/extensions/pvrtextool/interface/PVRTexTool.defines.txt'
p1168
(lp1169
I1
ag1167
assS'c:/marmalade/7.4/extensions/pvrtextool/pvrtextool.mkf'
p1170
(lp1171
I1
a(dp1172
asS'c:/marmalade/7.4/extensions/pvrtextool/h/PVRTexTool.h'
p1173
(lp1174
I1
ag1167
asssS"'Marmalade Studio'"
p1175
(dp1176
S'iw2dscenegraph'
p1177
(dp1178
S'c:/marmalade/7.4/modules/iw2dscenegraph/h/Iw2DSceneGraph.h'
p1179
(lp1180
I1
a(dp1181
asS'c:/marmalade/7.4/modules/iw2dscenegraph/source/Iw2DSceneGraph.cpp'
p1182
(lp1183
I1
ag1181
asS'c:/marmalade/7.4/modules/iw2dscenegraph/iw2dscenegraph.mkf'
p1184
(lp1185
I1
a(dp1186
asS'c:/marmalade/7.4/modules/iw2dscenegraph/docs/iw2dscenegraph.defines.txt'
p1187
(lp1188
I1
ag1181
assS'iwgl'
p1189
(dp1190
S'c:/marmalade/7.4/modules/iwgl/iwgl.mkf'
p1191
(lp1192
I1
a(dp1193
asS'c:/marmalade/7.4/modules/iwgl/docs/iwgl.config.txt'
p1194
(lp1195
I1
a(dp1196
asS'c:/marmalade/7.4/modules/iwgl/h/IwGL.h'
p1197
(lp1198
I1
ag1196
asS'c:/marmalade/7.4/modules/iwgl/h/IwGLExt.h'
p1199
(lp1200
I1
ag1196
assS'iw2d'
p1201
(dp1202
S'c:/marmalade/7.4/modules/iw2d/docs/iw2d.config.txt'
p1203
(lp1204
I1
a(dp1205
asS'c:/marmalade/7.4/modules/iw2d/iw2d.mkf'
p1206
(lp1207
I1
a(dp1208
asS'c:/marmalade/7.4/modules/iw2d/h/Iw2D.h'
p1209
(lp1210
I1
ag1205
asS'c:/marmalade/7.4/modules/iw2d/docs/iw2d_public.defines.txt'
p1211
(lp1212
I1
ag1205
assS'iwgxfont'
p1213
(dp1214
S'c:/marmalade/7.4/modules/iwgxfont/docs/iwgxfont_public.defines.txt'
p1215
(lp1216
I1
a(dp1217
asS'c:/marmalade/7.4/modules/iwgxfont/h/IwGxFontGlyph.h'
p1218
(lp1219
I1
ag1217
asS'c:/marmalade/7.4/modules/iwgxfont/docs/iwgxfont.config.txt'
p1220
(lp1221
I1
ag1217
asS'c:/marmalade/7.4/modules/iwgxfont/h/IwGxFont.h'
p1222
(lp1223
I1
ag1217
asS'c:/marmalade/7.4/modules/iwgxfont/h/IwGxFontTypes.h'
p1224
(lp1225
I1
ag1217
asS'c:/marmalade/7.4/modules/iwgxfont/h/IwGxFontPreparedData.h'
p1226
(lp1227
I1
ag1217
asS'c:/marmalade/7.4/modules/iwgxfont/h/IwGxFontState.h'
p1228
(lp1229
I1
ag1217
asS'c:/marmalade/7.4/modules/iwgxfont/h/IwGxFontContainer.h'
p1230
(lp1231
I1
ag1217
asS'c:/marmalade/7.4/modules/iwgxfont/iwgxfont.mkf'
p1232
(lp1233
I1
a(dp1234
assS'iwgeom'
p1235
(dp1236
S'c:/marmalade/7.4/modules/iwgeom/docs/iwgeom.config.txt'
p1237
(lp1238
I1
a(dp1239
asS'c:/marmalade/7.4/modules/iwgeom/h/IwGeomFIntersect.h'
p1240
(lp1241
I1
ag1239
asS'c:/marmalade/7.4/modules/iwgeom/h/IwGeomMat2D.h.tpl'
p1242
(lp1243
I1
ag1239
asS'c:/marmalade/7.4/modules/iwgeom/h/IwGeomCore.h'
p1244
(lp1245
I1
ag1239
asS'c:/marmalade/7.4/modules/iwgeom/h/IwGeomVec.h.tpl'
p1246
(lp1247
I1
ag1239
asS'c:/marmalade/7.4/modules/iwgeom/h/IwGeomFSphere.h'
p1248
(lp1249
I1
ag1239
asS'c:/marmalade/7.4/modules/iwgeom/h/IwGeomFQuat.h'
p1250
(lp1251
I1
ag1239
asS'c:/marmalade/7.4/modules/iwgeom/h/IwGeomMenu.h'
p1252
(lp1253
I1
ag1239
asS'c:/marmalade/7.4/modules/iwgeom/h/IwGeomFMat2D.h'
p1254
(lp1255
I1
ag1239
asS'c:/marmalade/7.4/modules/iwgeom/h/IwGeomFVec4.h'
p1256
(lp1257
I1
ag1239
asS'c:/marmalade/7.4/modules/iwgeom/h/IwGeomQuat.h'
p1258
(lp1259
I1
ag1239
asS'c:/marmalade/7.4/modules/iwgeom/h/IwGeomFBBox.h'
p1260
(lp1261
I1
ag1239
asS'c:/marmalade/7.4/modules/iwgeom/h/IwGeomSVec4.h'
p1262
(lp1263
I1
ag1239
asS'c:/marmalade/7.4/modules/iwgeom/h/IwGeomFVec2.h'
p1264
(lp1265
I1
ag1239
asS'c:/marmalade/7.4/modules/iwgeom/h/IwGeomVec.h'
p1266
(lp1267
I1
ag1239
asS'c:/marmalade/7.4/modules/iwgeom/h/IwGeomPlane.h'
p1268
(lp1269
I1
ag1239
asS'c:/marmalade/7.4/modules/iwgeom/h/IwGeomQuat.h.tpl'
p1270
(lp1271
I1
ag1239
asS'c:/marmalade/7.4/modules/iwgeom/h/IwGeomSVec3.h'
p1272
(lp1273
I1
ag1239
asS'c:/marmalade/7.4/modules/iwgeom/h/IwGeomMat.h'
p1274
(lp1275
I1
ag1239
asS'c:/marmalade/7.4/modules/iwgeom/h/IwGeomVec3.h'
p1276
(lp1277
I1
ag1239
asS'c:/marmalade/7.4/modules/iwgeom/h/IwGeomVec2.h'
p1278
(lp1279
I1
ag1239
asS'c:/marmalade/7.4/modules/iwgeom/h/IwGeomLegacy.h'
p1280
(lp1281
I1
ag1239
asS'c:/marmalade/7.4/modules/iwgeom/h/IwGeomSQuat.h'
p1282
(lp1283
I1
ag1239
asS'c:/marmalade/7.4/modules/iwgeom/iwgeom.mkf'
p1284
(lp1285
I1
a(dp1286
asS'c:/marmalade/7.4/modules/iwgeom/h/IwGeomVec4.h'
p1287
(lp1288
I1
ag1239
asS'c:/marmalade/7.4/modules/iwgeom/h/IwGeomBBox.h'
p1289
(lp1290
I1
ag1239
asS'c:/marmalade/7.4/modules/iwgeom/h/IwGeomIntersect.h'
p1291
(lp1292
I1
ag1239
asS'c:/marmalade/7.4/modules/iwgeom/h/IwGeomSVec2.h'
p1293
(lp1294
I1
ag1239
asS'c:/marmalade/7.4/modules/iwgeom/h/IwGeomMat2D.h'
p1295
(lp1296
I1
ag1239
asS'c:/marmalade/7.4/modules/iwgeom/h/IwGeomSphere.h'
p1297
(lp1298
I1
ag1239
asS'c:/marmalade/7.4/modules/iwgeom/h/IwGeomFVec3.h'
p1299
(lp1300
I1
ag1239
asS'c:/marmalade/7.4/modules/iwgeom/h/IwGeom.h'
p1301
(lp1302
I1
ag1239
asS'c:/marmalade/7.4/modules/iwgeom/h/IwGeomMat.h.tpl'
p1303
(lp1304
I1
ag1239
asS'c:/marmalade/7.4/modules/iwgeom/h/IwGeomFPlane.h'
p1305
(lp1306
I1
ag1239
asS'c:/marmalade/7.4/modules/iwgeom/h/IwGeomFMat.h'
p1307
(lp1308
I1
ag1239
asS'c:/marmalade/7.4/modules/iwgeom/h/IwGeomSqrt.h'
p1309
(lp1310
I1
ag1239
assS'iwresmanager'
p1311
(dp1312
S'c:/marmalade/7.4/modules/iwresmanager/h/IwResHandlerITX.h'
p1313
(lp1314
I1
a(dp1315
asS'c:/marmalade/7.4/modules/iwresmanager/h/IwResGroup.h'
p1316
(lp1317
I1
ag1315
asS'c:/marmalade/7.4/modules/iwresmanager/h/IwResManager.h'
p1318
(lp1319
I1
ag1315
asS'c:/marmalade/7.4/modules/iwresmanager/h/IwResManagerClass.h'
p1320
(lp1321
I1
ag1315
asS'c:/marmalade/7.4/modules/iwresmanager/h/IwResSerialise.h'
p1322
(lp1323
I1
ag1315
asS'c:/marmalade/7.4/modules/iwresmanager/h/IwResHandlerGROUP.h'
p1324
(lp1325
I1
ag1315
asS'c:/marmalade/7.4/modules/iwresmanager/iwresmanager.mkf'
p1326
(lp1327
I1
a(dp1328
asS'c:/marmalade/7.4/modules/iwresmanager/h/IwResHandlerImage.h'
p1329
(lp1330
I1
ag1315
asS'c:/marmalade/7.4/modules/iwresmanager/h/IwResHandler.h'
p1331
(lp1332
I1
ag1315
asS'c:/marmalade/7.4/modules/iwresmanager/docs/iwresmanager.config.txt'
p1333
(lp1334
I1
ag1315
assS'iwgx'
p1335
(dp1336
S'c:/marmalade/7.4/modules/iwgx/h/IwDebugPrim.h'
p1337
(lp1338
I1
a(dp1339
asS'c:/marmalade/7.4/modules/iwgx/h/IwGxFuncTable.h'
p1340
(lp1341
I1
ag1339
asS'c:/marmalade/7.4/modules/iwgx/h/IwClip.inl'
p1342
(lp1343
I1
ag1339
asS'c:/marmalade/7.4/modules/iwgx/h/IwGxPrint.h'
p1344
(lp1345
I1
ag1339
asS'c:/marmalade/7.4/modules/iwgx/h/IwGx.h'
p1346
(lp1347
I1
ag1339
asS'c:/marmalade/7.4/modules/iwgx/h/IwTexture.h'
p1348
(lp1349
I1
ag1339
asS'c:/marmalade/7.4/modules/iwgx/h/IwFColour.h'
p1350
(lp1351
I1
ag1339
asS'c:/marmalade/7.4/modules/iwgx/h/IwColour.h'
p1352
(lp1353
I1
ag1339
asS'c:/marmalade/7.4/modules/iwgx/h/IwGxState.h'
p1354
(lp1355
I1
ag1339
asS'c:/marmalade/7.4/modules/iwgx/h/IwClip.h'
p1356
(lp1357
I1
ag1339
asS'c:/marmalade/7.4/modules/iwgx/h/IwTPage.h'
p1358
(lp1359
I1
ag1339
asS'c:/marmalade/7.4/modules/iwgx/h/IwMaterial.h'
p1360
(lp1361
I1
ag1339
asS'c:/marmalade/7.4/modules/iwgx/h/IwGxDebug.h'
p1362
(lp1363
I1
ag1339
asS'c:/marmalade/7.4/modules/iwgx/h/IwMatAnim.h'
p1364
(lp1365
I1
ag1339
asS'c:/marmalade/7.4/modules/iwgx/h/IwGxStream.h'
p1366
(lp1367
I1
ag1339
asS'c:/marmalade/7.4/modules/iwgx/h/IwResHandlerMTL.h'
p1368
(lp1369
I1
ag1339
asS'c:/marmalade/7.4/modules/iwgx/h/IwGxMetrics.h'
p1370
(lp1371
I1
ag1339
asS'c:/marmalade/7.4/modules/iwgx/h/IwGxError.h'
p1372
(lp1373
I1
ag1339
asS'c:/marmalade/7.4/modules/iwgx/docs/iwgx.config.txt'
p1374
(lp1375
I1
ag1339
asS'c:/marmalade/7.4/modules/iwgx/h/IwGxTransformSW.h'
p1376
(lp1377
I1
ag1339
asS'c:/marmalade/7.4/modules/iwgx/iwgx.mkf'
p1378
(lp1379
I1
a(dp1380
asS'c:/marmalade/7.4/modules/iwgx/docs/iwgx_public.defines.txt'
p1381
(lp1382
I1
ag1339
asS'c:/marmalade/7.4/modules/iwgx/h/IwGxShaderTechnique.h'
p1383
(lp1384
I1
ag1339
asS'c:/marmalade/7.4/modules/iwgx/h/IwGxTypes.h'
p1385
(lp1386
I1
ag1339
asS'c:/marmalade/7.4/modules/iwgx/h/IwGxSurface.h'
p1387
(lp1388
I1
ag1339
assS'iw2dscenegraphcore'
p1389
(dp1390
S'c:/marmalade/7.4/modules/iw2dscenegraphcore/iw2dscenegraphcore.mkf'
p1391
(lp1392
I1
a(dp1393
asS'c:/marmalade/7.4/modules/iw2dscenegraphcore/source/Iw2DSceneGraphCore.cpp'
p1394
(lp1395
I1
a(dp1396
asS'c:/marmalade/7.4/modules/iw2dscenegraphcore/h/Iw2DSceneGraphCore.h'
p1397
(lp1398
I1
ag1396
assS'iwutil'
p1399
(dp1400
S'c:/marmalade/7.4/modules/iwutil/h/IwTextParser.h'
p1401
(lp1402
I1
a(dp1403
asS'c:/marmalade/7.4/modules/iwutil/h/IwMenu.h'
p1404
(lp1405
I1
ag1403
asS'c:/marmalade/7.4/modules/iwutil/h/IwUtilInitTerm.h'
p1406
(lp1407
I1
ag1403
asS'c:/marmalade/7.4/modules/iwutil/h/IwCopyingPtr.h'
p1408
(lp1409
I1
ag1403
asS'c:/marmalade/7.4/modules/iwutil/h/IwDebug.h'
p1410
(lp1411
I1
ag1403
asS'c:/marmalade/7.4/modules/iwutil/h/IwDivTable.h'
p1412
(lp1413
I1
ag1403
asS'c:/marmalade/7.4/modules/iwutil/h/IwBuffer.h'
p1414
(lp1415
I1
ag1403
asS'c:/marmalade/7.4/modules/iwutil/h/IwRandom.h'
p1416
(lp1417
I1
ag1403
asS'c:/marmalade/7.4/modules/iwutil/h/IwKeymap.h'
p1418
(lp1419
I1
ag1403
asS'c:/marmalade/7.4/modules/iwutil/h/IwResource.h'
p1420
(lp1421
I1
ag1403
asS'c:/marmalade/7.4/modules/iwutil/h/IwCore.h'
p1422
(lp1423
I1
ag1403
asS'c:/marmalade/7.4/modules/iwutil/h/IwTextParserITX.h'
p1424
(lp1425
I1
ag1403
asS'c:/marmalade/7.4/modules/iwutil/h/IwManaged.h'
p1426
(lp1427
I1
ag1403
asS'c:/marmalade/7.4/modules/iwutil/h/IwHashString.h'
p1428
(lp1429
I1
ag1403
asS'c:/marmalade/7.4/modules/iwutil/h/IwProfileMenu.h'
p1430
(lp1431
I1
ag1403
asS'c:/marmalade/7.4/modules/iwutil/h/IwManagedList.h'
p1432
(lp1433
I1
ag1403
asS'c:/marmalade/7.4/modules/iwutil/h/IwList.h'
p1434
(lp1435
I1
ag1403
asS'c:/marmalade/7.4/modules/iwutil/h/IwSerialise.h'
p1436
(lp1437
I1
ag1403
asS'c:/marmalade/7.4/modules/iwutil/h/IwClassFactory.h'
p1438
(lp1439
I1
ag1403
asS'c:/marmalade/7.4/modules/iwutil/h/IwTypes.h'
p1440
(lp1441
I1
ag1403
asS'c:/marmalade/7.4/modules/iwutil/h/IwAllocator.h'
p1442
(lp1443
I1
ag1403
asS'c:/marmalade/7.4/modules/iwutil/h/IwMemory.h'
p1444
(lp1445
I1
ag1403
asS'c:/marmalade/7.4/modules/iwutil/h/IwTextParseable.h'
p1446
(lp1447
I1
ag1403
asS'c:/marmalade/7.4/modules/iwutil/h/IwFile.h'
p1448
(lp1449
I1
ag1403
asS'c:/marmalade/7.4/modules/iwutil/h/IwRuntime.h'
p1450
(lp1451
I1
ag1403
asS'c:/marmalade/7.4/modules/iwutil/h/IwMemBucketHelpers.h'
p1452
(lp1453
I1
ag1403
asS'c:/marmalade/7.4/modules/iwutil/h/IwUncopyable.h'
p1454
(lp1455
I1
ag1403
asS'c:/marmalade/7.4/modules/iwutil/h/IwChar.h'
p1456
(lp1457
I1
ag1403
asS'c:/marmalade/7.4/modules/iwutil/h/IwOptimiseARM.h'
p1458
(lp1459
I1
ag1403
asS'c:/marmalade/7.4/modules/iwutil/h/IwImage.h'
p1460
(lp1461
I1
ag1403
asS'c:/marmalade/7.4/modules/iwutil/h/IwImageHelper.h'
p1462
(lp1463
I1
ag1403
asS'c:/marmalade/7.4/modules/iwutil/h/IwMemBucket.h'
p1464
(lp1465
I1
ag1403
asS'c:/marmalade/7.4/modules/iwutil/h/IwDivide.h'
p1466
(lp1467
I1
ag1403
asS'c:/marmalade/7.4/modules/iwutil/h/IwOptimiseSpeed.h'
p1468
(lp1469
I1
ag1403
asS'c:/marmalade/7.4/modules/iwutil/h/IwArray.h'
p1470
(lp1471
I1
ag1403
asS'c:/marmalade/7.4/modules/iwutil/docs/iwutil.config.txt'
p1472
(lp1473
I1
ag1403
asS'c:/marmalade/7.4/modules/iwutil/h/IwUTF8.h'
p1474
(lp1475
I1
ag1403
asS'c:/marmalade/7.4/modules/iwutil/h/IwEvent.h'
p1476
(lp1477
I1
ag1403
asS'c:/marmalade/7.4/modules/iwutil/h/IwMath.h'
p1478
(lp1479
I1
ag1403
asS'c:/marmalade/7.4/modules/iwutil/h/IwFibre.h'
p1480
(lp1481
I1
ag1403
asS'c:/marmalade/7.4/modules/iwutil/h/IwString.h'
p1482
(lp1483
I1
ag1403
asS'c:/marmalade/7.4/modules/iwutil/iwutil.mkf'
p1484
(lp1485
I1
a(dp1486
asS'c:/marmalade/7.4/modules/iwutil/h/IwSingleton.h'
p1487
(lp1488
I1
ag1403
asS'c:/marmalade/7.4/modules/iwutil/h/IwAutoFile.h'
p1489
(lp1490
I1
ag1403
asS'c:/marmalade/7.4/modules/iwutil/h/IwOptimiseThumb.h'
p1491
(lp1492
I1
ag1403
asS'c:/marmalade/7.4/modules/iwutil/h/IwUtil.h'
p1493
(lp1494
I1
ag1403
asS'c:/marmalade/7.4/modules/iwutil/h/IwPath.h'
p1495
(lp1496
I1
ag1403
asS'c:/marmalade/7.4/modules/iwutil/h/IwMemManagerDL.h'
p1497
(lp1498
I1
ag1403
asS'c:/marmalade/7.4/modules/iwutil/h/IwVariableBitField.h'
p1499
(lp1500
I1
ag1403
asS'c:/marmalade/7.4/modules/iwutil/h/IwOptimiseSize.h'
p1501
(lp1502
I1
ag1403
asssS'(zlib)'
p1503
(dp1504
g1033
(dp1505
S'c:/marmalade/7.4/modules/third_party/zlib/h/zconf.h'
p1506
(lp1507
I1
a(dp1508
asS'c:/marmalade/7.4/modules/third_party/zlib/h/zlib.h'
p1509
(lp1510
I1
ag1508
assS'c:/marmalade/7.4/modules/third_party/zlib/zlib.mkf'
p1511
(lp1512
I1
a(dp1513
assS'include'
p1514
(dp1515
S'e:/Documents/Michiel/Programmeren/Marmalade/MVSStage3/include/pauseMenu.h'
p1516
(lp1517
I1
ag1144
asS'e:/Documents/Michiel/Programmeren/Marmalade/MVSStage3/include/resources.h'
p1518
(lp1519
I1
ag1144
asS'e:/Documents/Michiel/Programmeren/Marmalade/MVSStage3/include/audio.h'
p1520
(lp1521
I1
ag1144
asS'e:/Documents/Michiel/Programmeren/Marmalade/MVSStage3/include/scene.h'
p1522
(lp1523
I1
ag1144
asS'e:/Documents/Michiel/Programmeren/Marmalade/MVSStage3/include/mainMenu.h'
p1524
(lp1525
I1
ag1144
asS'e:/Documents/Michiel/Programmeren/Marmalade/MVSStage3/include/game.h'
p1526
(lp1527
I1
ag1144
asS'e:/Documents/Michiel/Programmeren/Marmalade/MVSStage3/include/input.h'
p1528
(lp1529
I1
ag1144
asssS'files'
p1530
(dp1531
S'IwGxFontPreparedData.h'
p1532
g309
(cmkb_main
File
p1533
g311
Ntp1534
Rp1535
(dp1536
S'flags'
p1537
g1217
sS'group'
p1538
(lp1539
S"'Marmalade Studio'"
p1540
ag1213
asg335
g1226
sbsS'iterator'
p1541
g309
(g1533
g311
Ntp1542
Rp1543
(dp1544
g1537
(dp1545
sg1538
(lp1546
S"'Marmalade System (S3E)'"
p1547
aS'stdc headers'
p1548
aS'c++'
p1549
asg335
S'c:/marmalade/7.4/s3e/h/std/c++/iterator'
p1550
sbsS'IwGL.h'
p1551
g309
(g1533
g311
Ntp1552
Rp1553
(dp1554
g1537
g1196
sg1538
(lp1555
S"'Marmalade Studio'"
p1556
ag1189
asg335
g1197
sbsS's3e.h'
p1557
g309
(g1533
g311
Ntp1558
Rp1559
(dp1560
g1537
g1545
sg1538
(lp1561
g1547
asg335
S'c:/marmalade/7.4/s3e/h/s3e.h'
p1562
sbsS'errno.h'
p1563
g309
(g1533
g311
Ntp1564
Rp1565
(dp1566
g1537
g1545
sg1538
(lp1567
g1547
aS'stdc headers'
p1568
asg335
S'c:/marmalade/7.4/s3e/h/std/errno.h'
p1569
sbsS'IwSingleton.h'
p1570
g309
(g1533
g311
Ntp1571
Rp1572
(dp1573
g1537
g1403
sg1538
(lp1574
S"'Marmalade Studio'"
p1575
ag1399
asg335
g1487
sbsS'dlfcn.h'
p1576
g309
(g1533
g311
Ntp1577
Rp1578
(dp1579
g1537
g1545
sg1538
g1567
sg335
S'c:/marmalade/7.4/s3e/h/std/dlfcn.h'
p1580
sbsS'MVSStage3_main.cpp'
p1581
g309
(g1533
g311
Ntp1582
Rp1583
(dp1584
g1537
g1144
sg1538
(lp1585
g1140
asg335
g1157
sbsS'IwSoundWAV.cpp'
p1586
g309
(g1533
g311
Ntp1587
Rp1588
(dp1589
g1537
g1092
sg1538
(lp1590
g1088
asg335
g1138
sbsS'sched.h'
p1591
g309
(g1533
g311
Ntp1592
Rp1593
(dp1594
g1537
g1545
sg1538
g1567
sg335
S'c:/marmalade/7.4/s3e/h/std/sched.h'
p1595
sbsS'IwSoundPCM.h'
p1596
g309
(g1533
g311
Ntp1597
Rp1598
(dp1599
g1537
g1092
sg1538
g1590
sg335
g1099
sbsS'IwGeomFMat2D.h'
p1600
g309
(g1533
g311
Ntp1601
Rp1602
(dp1603
g1537
g1239
sg1538
(lp1604
S"'Marmalade Studio'"
p1605
ag1235
asg335
g1254
sbsS'cassert'
p1606
g309
(g1533
g311
Ntp1607
Rp1608
(dp1609
g1537
g1545
sg1538
g1546
sg335
S'c:/marmalade/7.4/s3e/h/std/c++/cassert'
p1610
sbsS'grp.h'
p1611
g309
(g1533
g311
Ntp1612
Rp1613
(dp1614
g1537
g1545
sg1538
g1567
sg335
S'c:/marmalade/7.4/s3e/h/std/grp.h'
p1615
sbsS'list'
p1616
g309
(g1533
g311
Ntp1617
Rp1618
(dp1619
g1537
g1545
sg1538
g1546
sg335
S'c:/marmalade/7.4/s3e/h/std/c++/list'
p1620
sbsS'IwSoundSpec.cpp'
p1621
g309
(g1533
g311
Ntp1622
Rp1623
(dp1624
g1537
g1092
sg1538
g1590
sg335
g1130
sbsS'IwGeomMat.h.tpl'
p1625
g309
(g1533
g311
Ntp1626
Rp1627
(dp1628
g1537
g1239
sg1538
g1604
sg335
g1303
sbsS'istream'
p1629
g309
(g1533
g311
Ntp1630
Rp1631
(dp1632
g1537
g1545
sg1538
g1546
sg335
S'c:/marmalade/7.4/s3e/h/std/c++/istream'
p1633
sbsS'jpeglib.h'
p1634
g309
(g1533
g311
Ntp1635
Rp1636
(dp1637
g1537
g1048
sg1538
(lp1638
g1043
ag1033
asg335
g1053
sbsS'iw2d_public.defines.txt'
p1639
g309
(g1533
g311
Ntp1640
Rp1641
(dp1642
g1537
g1205
sg1538
(lp1643
S"'Marmalade Studio'"
p1644
ag1201
asg335
g1211
sbsS'iostream.h'
p1645
g309
(g1533
g311
Ntp1646
Rp1647
(dp1648
g1537
g1545
sg1538
g1546
sg335
S'c:/marmalade/7.4/s3e/h/std/c++/iostream.h'
p1649
sbsS'IwSoundADPCM.h'
p1650
g309
(g1533
g311
Ntp1651
Rp1652
(dp1653
g1537
g1092
sg1538
g1590
sg335
g1124
sbsS'string'
p1654
g309
(g1533
g311
Ntp1655
Rp1656
(dp1657
g1537
g1545
sg1538
g1546
sg335
S'c:/marmalade/7.4/s3e/h/std/c++/string'
p1658
sbsS'IwMemory.h'
p1659
g309
(g1533
g311
Ntp1660
Rp1661
(dp1662
g1537
g1403
sg1538
g1574
sg335
g1444
sbsS'IwGeomPlane.h'
p1663
g309
(g1533
g311
Ntp1664
Rp1665
(dp1666
g1537
g1239
sg1538
g1604
sg335
g1268
sbsS'iw2d.config.txt'
p1667
g309
(g1533
g311
Ntp1668
Rp1669
(dp1670
g1537
g1205
sg1538
g1643
sg335
g1203
sbsS'iomanip'
p1671
g309
(g1533
g311
Ntp1672
Rp1673
(dp1674
g1537
g1545
sg1538
g1546
sg335
S'c:/marmalade/7.4/s3e/h/std/c++/iomanip'
p1675
sbsS'iwgeom.mkf'
p1676
g309
(g1533
g311
Ntp1677
Rp1678
(dp1679
g1537
g1286
sg1538
g1604
sg335
g1284
sbsS'IwGxError.h'
p1680
g309
(g1533
g311
Ntp1681
Rp1682
(dp1683
g1537
g1339
sg1538
(lp1684
S"'Marmalade Studio'"
p1685
ag1335
asg335
g1372
sbsS'IwGeom.h'
p1686
g309
(g1533
g311
Ntp1687
Rp1688
(dp1689
g1537
g1239
sg1538
g1604
sg335
g1301
sbsS'scene.cpp'
p1690
g309
(g1533
g311
Ntp1691
Rp1692
(dp1693
g1537
g1144
sg1538
g1585
sg335
g1151
sbsS'IwGeomVec4.h'
p1694
g309
(g1533
g311
Ntp1695
Rp1696
(dp1697
g1537
g1239
sg1538
g1604
sg335
g1287
sbsS'dir.h'
p1698
g309
(g1533
g311
Ntp1699
Rp1700
(dp1701
g1537
g1545
sg1538
(lp1702
g1547
aS'stdc headers'
p1703
aS'sys'
p1704
asg335
S'c:/marmalade/7.4/s3e/h/std/sys/dir.h'
p1705
sbsS'locale.h'
p1706
g309
(g1533
g311
Ntp1707
Rp1708
(dp1709
g1537
g1545
sg1538
g1567
sg335
S'c:/marmalade/7.4/s3e/h/std/locale.h'
p1710
sbsS'vector'
p1711
g309
(g1533
g311
Ntp1712
Rp1713
(dp1714
g1537
g1545
sg1538
g1546
sg335
S'c:/marmalade/7.4/s3e/h/std/c++/vector'
p1715
sbsS'IwManaged.h'
p1716
g309
(g1533
g311
Ntp1717
Rp1718
(dp1719
g1537
g1403
sg1538
g1574
sg335
g1426
sbsS's3eCompass.h'
p1720
g309
(g1533
g311
Ntp1721
Rp1722
(dp1723
g1537
g1545
sg1538
g1561
sg335
S'c:/marmalade/7.4/s3e/h/s3eCompass.h'
p1724
sbsS'cderror.h'
p1725
g309
(g1533
g311
Ntp1726
Rp1727
(dp1728
g1537
g1048
sg1538
g1638
sg335
g1061
sbsS'climits'
p1729
g309
(g1533
g311
Ntp1730
Rp1731
(dp1732
g1537
g1545
sg1538
g1546
sg335
S'c:/marmalade/7.4/s3e/h/std/c++/climits'
p1733
sbsS'ipc.h'
p1734
g309
(g1533
g311
Ntp1735
Rp1736
(dp1737
g1537
g1545
sg1538
g1702
sg335
S'c:/marmalade/7.4/s3e/h/std/sys/ipc.h'
p1738
sbsS'jversion.h'
p1739
g309
(g1533
g311
Ntp1740
Rp1741
(dp1742
g1537
g1048
sg1538
g1638
sg335
g1065
sbsS'fnmatch.h'
p1743
g309
(g1533
g311
Ntp1744
Rp1745
(dp1746
g1537
g1545
sg1538
g1567
sg335
S'c:/marmalade/7.4/s3e/h/std/fnmatch.h'
p1747
sbsS'IwGxState.h'
p1748
g309
(g1533
g311
Ntp1749
Rp1750
(dp1751
g1537
g1339
sg1538
g1684
sg335
g1354
sbsS's3eAudio.h'
p1752
g309
(g1533
g311
Ntp1753
Rp1754
(dp1755
g1537
g1545
sg1538
g1561
sg335
S'c:/marmalade/7.4/s3e/h/s3eAudio.h'
p1756
sbsS's3eSurface.h'
p1757
g309
(g1533
g311
Ntp1758
Rp1759
(dp1760
g1537
g1545
sg1538
g1561
sg335
S'c:/marmalade/7.4/s3e/h/s3eSurface.h'
p1761
sbsS'new'
p1762
g309
(g1533
g311
Ntp1763
Rp1764
(dp1765
g1537
g1545
sg1538
g1546
sg335
S'c:/marmalade/7.4/s3e/h/std/c++/new'
p1766
sbsS's3eWindow.h'
p1767
g309
(g1533
g311
Ntp1768
Rp1769
(dp1770
g1537
g1545
sg1538
(lp1771
g1547
aS'Extensions'
p1772
asg335
S'c:/marmalade/7.4/s3e/h/ext/s3eWindow.h'
p1773
sbsS'IwBuffer.h'
p1774
g309
(g1533
g311
Ntp1775
Rp1776
(dp1777
g1537
g1403
sg1538
g1574
sg335
g1414
sbsS'stdio_streambuf'
p1778
g309
(g1533
g311
Ntp1779
Rp1780
(dp1781
g1537
g1545
sg1538
g1546
sg335
S'c:/marmalade/7.4/s3e/h/std/c++/stdio_streambuf'
p1782
sbsS'IwGeomQuat.h.tpl'
p1783
g309
(g1533
g311
Ntp1784
Rp1785
(dp1786
g1537
g1239
sg1538
g1604
sg335
g1270
sbsS's3eOSExec.h'
p1787
g309
(g1533
g311
Ntp1788
Rp1789
(dp1790
g1537
g1545
sg1538
g1771
sg335
S'c:/marmalade/7.4/s3e/h/ext/s3eOSExec.h'
p1791
sbsS'IwGxTransformSW.h'
p1792
g309
(g1533
g311
Ntp1793
Rp1794
(dp1795
g1537
g1339
sg1538
g1684
sg335
g1376
sbsS'IwGxMetrics.h'
p1796
g309
(g1533
g311
Ntp1797
Rp1798
(dp1799
g1537
g1339
sg1538
g1684
sg335
g1370
sbsS'iwgxfont.config.txt'
p1800
g309
(g1533
g311
Ntp1801
Rp1802
(dp1803
g1537
g1217
sg1538
g1539
sg335
g1220
sbsS'gl2platform.h'
p1804
g309
(g1533
g311
Ntp1805
Rp1806
(dp1807
g1537
g1545
sg1538
(lp1808
g1547
aS'GL'
p1809
aS'GLES 2.0'
p1810
asg335
S'c:/marmalade/7.4/s3e/h/GLES2/gl2platform.h'
p1811
sbsS'IwResManagerClass.h'
p1812
g309
(g1533
g311
Ntp1813
Rp1814
(dp1815
g1537
g1315
sg1538
(lp1816
g1175
ag1311
asg335
g1320
sbsS'queue'
p1817
g309
(g1533
g311
Ntp1818
Rp1819
(dp1820
g1537
g1545
sg1538
g1546
sg335
S'c:/marmalade/7.4/s3e/h/std/c++/queue'
p1821
sbsS'time_1.h'
p1822
g309
(g1533
g311
Ntp1823
Rp1824
(dp1825
g1537
g1545
sg1538
g1702
sg335
S'c:/marmalade/7.4/s3e/h/std/sys/time.h'
p1826
sbsS'Iw2D.h'
p1827
g309
(g1533
g311
Ntp1828
Rp1829
(dp1830
g1537
g1205
sg1538
g1643
sg335
g1209
sbsS'IwGeomVec2.h'
p1831
g309
(g1533
g311
Ntp1832
Rp1833
(dp1834
g1537
g1239
sg1538
g1604
sg335
g1278
sbsS's3eDevice.h'
p1835
g309
(g1533
g311
Ntp1836
Rp1837
(dp1838
g1537
g1545
sg1538
g1561
sg335
S'c:/marmalade/7.4/s3e/h/s3eDevice.h'
p1839
sbsS'malloc.h'
p1840
g309
(g1533
g311
Ntp1841
Rp1842
(dp1843
g1537
g1545
sg1538
g1567
sg335
S'c:/marmalade/7.4/s3e/h/std/malloc.h'
p1844
sbsS'stdarg.h'
p1845
g309
(g1533
g311
Ntp1846
Rp1847
(dp1848
g1537
g1545
sg1538
g1567
sg335
S'c:/marmalade/7.4/s3e/h/std/stdarg.h'
p1849
sbsS'IwGeomCore.h'
p1850
g309
(g1533
g311
Ntp1851
Rp1852
(dp1853
g1537
g1239
sg1538
g1604
sg335
g1244
sbsS'Iw2DSceneGraph.h'
p1854
g309
(g1533
g311
Ntp1855
Rp1856
(dp1857
g1537
g1181
sg1538
(lp1858
S"'Marmalade Studio'"
p1859
ag1177
asg335
g1179
sbsS'endian.h'
p1860
g309
(g1533
g311
Ntp1861
Rp1862
(dp1863
g1537
g1545
sg1538
g1567
sg335
S'c:/marmalade/7.4/s3e/h/std/endian.h'
p1864
sbsS'gl3ext.h'
p1865
g309
(g1533
g311
Ntp1866
Rp1867
(dp1868
g1537
g1545
sg1538
(lp1869
g1547
aS'GL'
p1870
aS'GLES 3.0'
p1871
asg335
S'c:/marmalade/7.4/s3e/h/GLES3/gl3ext.h'
p1872
sbsS'glob.h'
p1873
g309
(g1533
g311
Ntp1874
Rp1875
(dp1876
g1537
g1545
sg1538
g1567
sg335
S'c:/marmalade/7.4/s3e/h/std/glob.h'
p1877
sbsS'fstream'
p1878
g309
(g1533
g311
Ntp1879
Rp1880
(dp1881
g1537
g1545
sg1538
g1546
sg335
S'c:/marmalade/7.4/s3e/h/std/c++/fstream'
p1882
sbsS's3eCamera.h'
p1883
g309
(g1533
g311
Ntp1884
Rp1885
(dp1886
g1537
g1545
sg1538
g1561
sg335
S'c:/marmalade/7.4/s3e/h/s3eCamera.h'
p1887
sbsS'jconfig.h'
p1888
g309
(g1533
g311
Ntp1889
Rp1890
(dp1891
g1537
g1048
sg1538
g1638
sg335
g1059
sbsS'memory'
p1892
g309
(g1533
g311
Ntp1893
Rp1894
(dp1895
g1537
g1545
sg1538
g1546
sg335
S'c:/marmalade/7.4/s3e/h/std/c++/memory'
p1896
sbsS'egl.h'
p1897
g309
(g1533
g311
Ntp1898
Rp1899
(dp1900
g1537
g1545
sg1538
(lp1901
g1547
aS'GL'
p1902
aS'EGL'
p1903
asg335
S'c:/marmalade/7.4/s3e/h/EGL/egl.h'
p1904
sbsS'egl_1.h'
p1905
g309
(g1533
g311
Ntp1906
Rp1907
(dp1908
g1537
g1545
sg1538
(lp1909
g1547
aS'GL'
p1910
aS'GLES 1.x'
p1911
asg335
S'c:/marmalade/7.4/s3e/h/GLES/egl.h'
p1912
sbsS'IwMemManagerDL.h'
p1913
g309
(g1533
g311
Ntp1914
Rp1915
(dp1916
g1537
g1403
sg1538
g1574
sg335
g1497
sbsS'deque'
p1917
g309
(g1533
g311
Ntp1918
Rp1919
(dp1920
g1537
g1545
sg1538
g1546
sg335
S'c:/marmalade/7.4/s3e/h/std/c++/deque'
p1921
sbsS'IwString.h'
p1922
g309
(g1533
g311
Ntp1923
Rp1924
(dp1925
g1537
g1403
sg1538
g1574
sg335
g1482
sbsS'cwchar'
p1926
g309
(g1533
g311
Ntp1927
Rp1928
(dp1929
g1537
g1545
sg1538
g1546
sg335
S'c:/marmalade/7.4/s3e/h/std/c++/cwchar'
p1930
sbsS'iwutil.mkf'
p1931
g309
(g1533
g311
Ntp1932
Rp1933
(dp1934
g1537
g1486
sg1538
g1574
sg335
g1484
sbsS'csignal'
p1935
g309
(g1533
g311
Ntp1936
Rp1937
(dp1938
g1537
g1545
sg1538
g1546
sg335
S'c:/marmalade/7.4/s3e/h/std/c++/csignal'
p1939
sbsS'float.h'
p1940
g309
(g1533
g311
Ntp1941
Rp1942
(dp1943
g1537
g1545
sg1538
g1567
sg335
S'c:/marmalade/7.4/s3e/h/std/float.h'
p1944
sbsS'pthread_alloc'
p1945
g309
(g1533
g311
Ntp1946
Rp1947
(dp1948
g1537
g1545
sg1538
g1546
sg335
S'c:/marmalade/7.4/s3e/h/std/c++/pthread_alloc'
p1949
sbsS'getopt.h'
p1950
g309
(g1533
g311
Ntp1951
Rp1952
(dp1953
g1537
g1545
sg1538
g1567
sg335
S'c:/marmalade/7.4/s3e/h/std/getopt.h'
p1954
sbsS'IwOptimiseARM.h'
p1955
g309
(g1533
g311
Ntp1956
Rp1957
(dp1958
g1537
g1403
sg1538
g1574
sg335
g1458
sbsS'times.h'
p1959
g309
(g1533
g311
Ntp1960
Rp1961
(dp1962
g1537
g1545
sg1538
g1702
sg335
S'c:/marmalade/7.4/s3e/h/std/sys/times.h'
p1963
sbsS'IwGeomFSphere.h'
p1964
g309
(g1533
g311
Ntp1965
Rp1966
(dp1967
g1537
g1239
sg1538
g1604
sg335
g1248
sbsS'game.h'
p1968
g309
(g1533
g311
Ntp1969
Rp1970
(dp1971
g1537
g1144
sg1538
(lp1972
g1514
asg335
g1526
sbsS'IwTypes.h'
p1973
g309
(g1533
g311
Ntp1974
Rp1975
(dp1976
g1537
g1403
sg1538
g1574
sg335
g1440
sbsS'unistd.h'
p1977
g309
(g1533
g311
Ntp1978
Rp1979
(dp1980
g1537
g1545
sg1538
g1567
sg335
S'c:/marmalade/7.4/s3e/h/std/unistd.h'
p1981
sbsS'audio.cpp'
p1982
g309
(g1533
g311
Ntp1983
Rp1984
(dp1985
g1537
g1144
sg1538
g1585
sg335
g1142
sbsS's3eCompression.h'
p1986
g309
(g1533
g311
Ntp1987
Rp1988
(dp1989
g1537
g1545
sg1538
g1561
sg335
S'c:/marmalade/7.4/s3e/h/s3eCompression.h'
p1990
sbsS'langinfo.h'
p1991
g309
(g1533
g311
Ntp1992
Rp1993
(dp1994
g1537
g1545
sg1538
g1567
sg335
S'c:/marmalade/7.4/s3e/h/std/langinfo.h'
p1995
sbsS's3edebugHeap.h'
p1996
g309
(g1533
g311
Ntp1997
Rp1998
(dp1999
g1537
g1545
sg1538
g1771
sg335
S'c:/marmalade/7.4/s3e/h/ext/s3edebugHeap.h'
p2000
sbsS'AirplayVersion.h'
p2001
g309
(g1533
g311
Ntp2002
Rp2003
(dp2004
g1537
g1545
sg1538
g1561
sg335
S'c:/marmalade/7.4/s3e/h/AirplayVersion.h'
p2005
sbsS'gl2extimg.h'
p2006
g309
(g1533
g311
Ntp2007
Rp2008
(dp2009
g1537
g1545
sg1538
g1808
sg335
S'c:/marmalade/7.4/s3e/h/GLES2/gl2extimg.h'
p2010
sbsS'app.config.txt'
p2011
g309
(g1533
g311
Ntp2012
Rp2013
(dp2014
g1537
(dp2015
sg1538
g4
sg335
S'e:/Documents/Michiel/Programmeren/Marmalade/MVSStage3/data/app.config.txt'
p2016
sbsS'IwGeomSqrt.h'
p2017
g309
(g1533
g311
Ntp2018
Rp2019
(dp2020
g1537
g1239
sg1538
g1604
sg335
g1309
sbsS'tiniconv_int.h'
p2021
g309
(g1533
g311
Ntp2022
Rp2023
(dp2024
g1537
g1082
sg1538
(lp2025
g1078
asg335
g1080
sbsS'syslog.h'
p2026
g309
(g1533
g311
Ntp2027
Rp2028
(dp2029
g1537
g1545
sg1538
g1567
sg335
S'c:/marmalade/7.4/s3e/h/std/syslog.h'
p2030
sbsS'IwGxFontTypes.h'
p2031
g309
(g1533
g311
Ntp2032
Rp2033
(dp2034
g1537
g1217
sg1538
g1539
sg335
g1224
sbsS'IwGeomFIntersect.h'
p2035
g309
(g1533
g311
Ntp2036
Rp2037
(dp2038
g1537
g1239
sg1538
g1604
sg335
g1240
sbsS'hash_map'
p2039
g309
(g1533
g311
Ntp2040
Rp2041
(dp2042
g1537
g1545
sg1538
g1546
sg335
S'c:/marmalade/7.4/s3e/h/std/c++/hash_map'
p2043
sbsS's3e.mkf'
p2044
g309
(g1533
g311
Ntp2045
Rp2046
(dp2047
g1537
(dp2048
sg1538
g1561
sg335
S'c:/marmalade/7.4/s3e/s3e.mkf'
p2049
sbsS'IwGeomMat2D.h.tpl'
p2050
g309
(g1533
g311
Ntp2051
Rp2052
(dp2053
g1537
g1239
sg1538
g1604
sg335
g1242
sbsS's3eOSReadString.h'
p2054
g309
(g1533
g311
Ntp2055
Rp2056
(dp2057
g1537
g1545
sg1538
g1771
sg335
S'c:/marmalade/7.4/s3e/h/ext/s3eOSReadString.h'
p2058
sbsS'IwSound.h'
p2059
g309
(g1533
g311
Ntp2060
Rp2061
(dp2062
g1537
g1092
sg1538
g1590
sg335
g1128
sbsS'map'
p2063
g309
(g1533
g311
Ntp2064
Rp2065
(dp2066
g1537
g1545
sg1538
g1546
sg335
S'c:/marmalade/7.4/s3e/h/std/c++/map'
p2067
sbsS'IwOptimiseSpeed.h'
p2068
g309
(g1533
g311
Ntp2069
Rp2070
(dp2071
g1537
g1403
sg1538
g1574
sg335
g1468
sbsS'ostream'
p2072
g309
(g1533
g311
Ntp2073
Rp2074
(dp2075
g1537
g1545
sg1538
g1546
sg335
S'c:/marmalade/7.4/s3e/h/std/c++/ostream'
p2076
sbsS'msl_string.h'
p2077
g309
(g1533
g311
Ntp2078
Rp2079
(dp2080
g1537
g1545
sg1538
g1546
sg335
S'c:/marmalade/7.4/s3e/h/std/c++/msl_string.h'
p2081
sbsS'select.h'
p2082
g309
(g1533
g311
Ntp2083
Rp2084
(dp2085
g1537
g1545
sg1538
g1702
sg335
S'c:/marmalade/7.4/s3e/h/std/sys/select.h'
p2086
sbsS'zlib.mkf'
p2087
g309
(g1533
g311
Ntp2088
Rp2089
(dp2090
g1537
g1513
sg1538
(lp2091
g1503
asg335
g1511
sbsS'signal.h'
p2092
g309
(g1533
g311
Ntp2093
Rp2094
(dp2095
g1537
g1545
sg1538
g1567
sg335
S'c:/marmalade/7.4/s3e/h/std/signal.h'
p2096
sbsS'sigcontext.h'
p2097
g309
(g1533
g311
Ntp2098
Rp2099
(dp2100
g1537
g1545
sg1538
g1567
sg335
S'c:/marmalade/7.4/s3e/h/std/sigcontext.h'
p2101
sbsS'libpng.mkf'
p2102
g309
(g1533
g311
Ntp2103
Rp2104
(dp2105
g1537
g1042
sg1538
(lp2106
g1031
asg335
g1040
sbsS's3eClipboard.h'
p2107
g309
(g1533
g311
Ntp2108
Rp2109
(dp2110
g1537
g1545
sg1538
g1561
sg335
S'c:/marmalade/7.4/s3e/h/s3eClipboard.h'
p2111
sbsS'IwGxFuncTable.h'
p2112
g309
(g1533
g311
Ntp2113
Rp2114
(dp2115
g1537
g1339
sg1538
g1684
sg335
g1340
sbsS'IwResHandlerGROUP.h'
p2116
g309
(g1533
g311
Ntp2117
Rp2118
(dp2119
g1537
g1315
sg1538
g1816
sg335
g1324
sbsS's3eDebug.h'
p2120
g309
(g1533
g311
Ntp2121
Rp2122
(dp2123
g1537
g1545
sg1538
g1561
sg335
S'c:/marmalade/7.4/s3e/h/s3eDebug.h'
p2124
sbsS'socket.h'
p2125
g309
(g1533
g311
Ntp2126
Rp2127
(dp2128
g1537
g1545
sg1538
g1702
sg335
S'c:/marmalade/7.4/s3e/h/std/sys/socket.h'
p2129
sbsS'glext.h'
p2130
g309
(g1533
g311
Ntp2131
Rp2132
(dp2133
g1537
g1545
sg1538
g1909
sg335
S'c:/marmalade/7.4/s3e/h/GLES/glext.h'
p2134
sbsS'typeinfo.h'
p2135
g309
(g1533
g311
Ntp2136
Rp2137
(dp2138
g1537
g1545
sg1538
g1546
sg335
S'c:/marmalade/7.4/s3e/h/std/c++/typeinfo.h'
p2139
sbsS'typeinfo'
p2140
g309
(g1533
g311
Ntp2141
Rp2142
(dp2143
g1537
g1545
sg1538
g1546
sg335
S'c:/marmalade/7.4/s3e/h/std/c++/typeinfo'
p2144
sbsS'iwsound.config.txt'
p2145
g309
(g1533
g311
Ntp2146
Rp2147
(dp2148
g1537
g1092
sg1538
(lp2149
g1088
ag1101
asg335
g1103
sbsS'fstream.h'
p2150
g309
(g1533
g311
Ntp2151
Rp2152
(dp2153
g1537
g1545
sg1538
g1546
sg335
S'c:/marmalade/7.4/s3e/h/std/c++/fstream.h'
p2154
sbsS'IwGeomMat.h'
p2155
g309
(g1533
g311
Ntp2156
Rp2157
(dp2158
g1537
g1239
sg1538
g1604
sg335
g1274
sbsS's3ePointer.h'
p2159
g309
(g1533
g311
Ntp2160
Rp2161
(dp2162
g1537
g1545
sg1538
g1561
sg335
S'c:/marmalade/7.4/s3e/h/s3ePointer.h'
p2163
sbsS'iw2d.mkf'
p2164
g309
(g1533
g311
Ntp2165
Rp2166
(dp2167
g1537
g1208
sg1538
g1643
sg335
g1206
sbsS'PVRTexTool.h'
p2168
g309
(g1533
g311
Ntp2169
Rp2170
(dp2171
g1537
g1167
sg1538
(lp2172
g1159
ag1161
asg335
g1173
sbsS's3eGL.h'
p2173
g309
(g1533
g311
Ntp2174
Rp2175
(dp2176
g1537
g1545
sg1538
g1561
sg335
S'c:/marmalade/7.4/s3e/h/s3eGL.h'
p2177
sbsS'IwGeomFVec2.h'
p2178
g309
(g1533
g311
Ntp2179
Rp2180
(dp2181
g1537
g1239
sg1538
g1604
sg335
g1264
sbsS'IwGeomSVec4.h'
p2182
g309
(g1533
g311
Ntp2183
Rp2184
(dp2185
g1537
g1239
sg1538
g1604
sg335
g1262
sbsS'poll.h'
p2186
g309
(g1533
g311
Ntp2187
Rp2188
(dp2189
g1537
g1545
sg1538
g1567
sg335
S'c:/marmalade/7.4/s3e/h/std/poll.h'
p2190
sbsS'IwMatAnim.h'
p2191
g309
(g1533
g311
Ntp2192
Rp2193
(dp2194
g1537
g1339
sg1538
g1684
sg335
g1364
sbsS'IwGeomFVec4.h'
p2195
g309
(g1533
g311
Ntp2196
Rp2197
(dp2198
g1537
g1239
sg1538
g1604
sg335
g1256
sbsS'IwGx.h'
p2199
g309
(g1533
g311
Ntp2200
Rp2201
(dp2202
g1537
g1339
sg1538
g1684
sg335
g1346
sbsS'valarray'
p2203
g309
(g1533
g311
Ntp2204
Rp2205
(dp2206
g1537
g1545
sg1538
g1546
sg335
S'c:/marmalade/7.4/s3e/h/std/c++/valarray'
p2207
sbsS'iosfwd'
p2208
g309
(g1533
g311
Ntp2209
Rp2210
(dp2211
g1537
g1545
sg1538
g1546
sg335
S'c:/marmalade/7.4/s3e/h/std/c++/iosfwd'
p2212
sbsS'gl2.h'
p2213
g309
(g1533
g311
Ntp2214
Rp2215
(dp2216
g1537
g1545
sg1538
g1808
sg335
S'c:/marmalade/7.4/s3e/h/GLES2/gl2.h'
p2217
sbsS'jpegint.h'
p2218
g309
(g1533
g311
Ntp2219
Rp2220
(dp2221
g1537
g1048
sg1538
g1638
sg335
g1071
sbsS'stdiostream.h'
p2222
g309
(g1533
g311
Ntp2223
Rp2224
(dp2225
g1537
g1545
sg1538
g1546
sg335
S'c:/marmalade/7.4/s3e/h/std/c++/stdiostream.h'
p2226
sbsS'mem.h'
p2227
g309
(g1533
g311
Ntp2228
Rp2229
(dp2230
g1537
g1545
sg1538
g1546
sg335
S'c:/marmalade/7.4/s3e/h/std/c++/mem.h'
p2231
sbsS'jerror.h'
p2232
g309
(g1533
g311
Ntp2233
Rp2234
(dp2235
g1537
g1048
sg1538
g1638
sg335
g1046
sbsS'zconf.h'
p2236
g309
(g1533
g311
Ntp2237
Rp2238
(dp2239
g1537
g1508
sg1538
(lp2240
g1503
ag1033
asg335
g1506
sbsS's3e.config.txt'
p2241
g309
(g1533
g311
Ntp2242
Rp2243
(dp2244
g1537
g1545
sg1538
g1561
sg335
S'c:/marmalade/7.4/s3e/s3e.config.txt'
p2245
sbsS'numeric'
p2246
g309
(g1533
g311
Ntp2247
Rp2248
(dp2249
g1537
g1545
sg1538
g1546
sg335
S'c:/marmalade/7.4/s3e/h/std/c++/numeric'
p2250
sbsS'utime.h'
p2251
g309
(g1533
g311
Ntp2252
Rp2253
(dp2254
g1537
g1545
sg1538
g1567
sg335
S'c:/marmalade/7.4/s3e/h/std/utime.h'
p2255
sbsS'jdhuff.h'
p2256
g309
(g1533
g311
Ntp2257
Rp2258
(dp2259
g1537
g1048
sg1538
g1638
sg335
g1069
sbsS'IwResHandlerWAV.cpp'
p2260
g309
(g1533
g311
Ntp2261
Rp2262
(dp2263
g1537
g1092
sg1538
g1590
sg335
g1122
sbsS'un.h'
p2264
g309
(g1533
g311
Ntp2265
Rp2266
(dp2267
g1537
g1545
sg1538
g1702
sg335
S'c:/marmalade/7.4/s3e/h/std/sys/un.h'
p2268
sbsS'IwImage.h'
p2269
g309
(g1533
g311
Ntp2270
Rp2271
(dp2272
g1537
g1403
sg1538
g1574
sg335
g1460
sbsS's3eImagePicker.h'
p2273
g309
(g1533
g311
Ntp2274
Rp2275
(dp2276
g1537
g1545
sg1538
g1771
sg335
S'c:/marmalade/7.4/s3e/h/ext/s3eImagePicker.h'
p2277
sbsS'stdlib.h'
p2278
g309
(g1533
g311
Ntp2279
Rp2280
(dp2281
g1537
g1545
sg1538
g1567
sg335
S'c:/marmalade/7.4/s3e/h/std/stdlib.h'
p2282
sbsS'IwCopyingPtr.h'
p2283
g309
(g1533
g311
Ntp2284
Rp2285
(dp2286
g1537
g1403
sg1538
g1574
sg335
g1408
sbsS'iostream'
p2287
g309
(g1533
g311
Ntp2288
Rp2289
(dp2290
g1537
g1545
sg1538
g1546
sg335
S'c:/marmalade/7.4/s3e/h/std/c++/iostream'
p2291
sbsS'png.h'
p2292
g309
(g1533
g311
Ntp2293
Rp2294
(dp2295
g1537
g1037
sg1538
(lp2296
g1031
ag1033
asg335
g1035
sbsS'stddef.h'
p2297
g309
(g1533
g311
Ntp2298
Rp2299
(dp2300
g1537
g1545
sg1538
g1567
sg335
S'c:/marmalade/7.4/s3e/h/std/stddef.h'
p2301
sbsS'setjmp_win32.h'
p2302
g309
(g1533
g311
Ntp2303
Rp2304
(dp2305
g1537
g1545
sg1538
g1567
sg335
S'c:/marmalade/7.4/s3e/h/std/setjmp_win32.h'
p2306
sbsS'pauseMenu.h'
p2307
g309
(g1533
g311
Ntp2308
Rp2309
(dp2310
g1537
g1144
sg1538
g1972
sg335
g1516
sbsS'IwGxPrint.h'
p2311
g309
(g1533
g311
Ntp2312
Rp2313
(dp2314
g1537
g1339
sg1538
g1684
sg335
g1344
sbsS'iwgx_public.defines.txt'
p2315
g309
(g1533
g311
Ntp2316
Rp2317
(dp2318
g1537
g1339
sg1538
g1684
sg335
g1381
sbsS'streambuf.h'
p2319
g309
(g1533
g311
Ntp2320
Rp2321
(dp2322
g1537
g1545
sg1538
g1546
sg335
S'c:/marmalade/7.4/s3e/h/std/c++/streambuf.h'
p2323
sbsS'resources.cpp'
p2324
g309
(g1533
g311
Ntp2325
Rp2326
(dp2327
g1537
g1144
sg1538
g1585
sg335
g1145
sbsS'IwGeomFPlane.h'
p2328
g309
(g1533
g311
Ntp2329
Rp2330
(dp2331
g1537
g1239
sg1538
g1604
sg335
g1305
sbsS'wchar.h'
p2332
g309
(g1533
g311
Ntp2333
Rp2334
(dp2335
g1537
g1545
sg1538
g1567
sg335
S'c:/marmalade/7.4/s3e/h/std/wchar.h'
p2336
sbsS's3eCameraCapture.h'
p2337
g309
(g1533
g311
Ntp2338
Rp2339
(dp2340
g1537
g1545
sg1538
g1771
sg335
S'c:/marmalade/7.4/s3e/h/ext/s3eCameraCapture.h'
p2341
sbsS'eglext.h'
p2342
g309
(g1533
g311
Ntp2343
Rp2344
(dp2345
g1537
g1545
sg1538
g1901
sg335
S'c:/marmalade/7.4/s3e/h/EGL/eglext.h'
p2346
sbsS'IwResHandlerImage.h'
p2347
g309
(g1533
g311
Ntp2348
Rp2349
(dp2350
g1537
g1315
sg1538
g1816
sg335
g1329
sbsS'strstream.h'
p2351
g309
(g1533
g311
Ntp2352
Rp2353
(dp2354
g1537
g1545
sg1538
g1546
sg335
S'c:/marmalade/7.4/s3e/h/std/c++/strstream.h'
p2355
sbsS'tiniconv.h'
p2356
g309
(g1533
g311
Ntp2357
Rp2358
(dp2359
g1537
g1082
sg1538
g2025
sg335
g1086
sbsS'IwGLExt.h'
p2360
g309
(g1533
g311
Ntp2361
Rp2362
(dp2363
g1537
g1196
sg1538
g1555
sg335
g1199
sbsS'app.icf'
p2364
g309
(g1533
g311
Ntp2365
Rp2366
(dp2367
g1537
(dp2368
sg1538
g4
sg335
S'e:/Documents/Michiel/Programmeren/Marmalade/MVSStage3/data/app.icf'
p2369
sbsS'IwClassFactory.h'
p2370
g309
(g1533
g311
Ntp2371
Rp2372
(dp2373
g1537
g1403
sg1538
g1574
sg335
g1438
sbsS'file.h'
p2374
g309
(g1533
g311
Ntp2375
Rp2376
(dp2377
g1537
g1545
sg1538
g1702
sg335
S'c:/marmalade/7.4/s3e/h/std/sys/file.h'
p2378
sbsS'cstring'
p2379
g309
(g1533
g311
Ntp2380
Rp2381
(dp2382
g1537
g1545
sg1538
g1546
sg335
S'c:/marmalade/7.4/s3e/h/std/c++/cstring'
p2383
sbsS'IwSoundInst.cpp'
p2384
g309
(g1533
g311
Ntp2385
Rp2386
(dp2387
g1537
g1092
sg1538
g1590
sg335
g1134
sbsS'iwutil.config.txt'
p2388
g309
(g1533
g311
Ntp2389
Rp2390
(dp2391
g1537
g1403
sg1538
g1574
sg335
g1472
sbsS's3eSMS.h'
p2392
g309
(g1533
g311
Ntp2393
Rp2394
(dp2395
g1537
g1545
sg1538
g1771
sg335
S'c:/marmalade/7.4/s3e/h/ext/s3eSMS.h'
p2396
sbsS'limits.h'
p2397
g309
(g1533
g311
Ntp2398
Rp2399
(dp2400
g1537
g1545
sg1538
g1567
sg335
S'c:/marmalade/7.4/s3e/h/std/limits.h'
p2401
sbsS'scene.h'
p2402
g309
(g1533
g311
Ntp2403
Rp2404
(dp2405
g1537
g1144
sg1538
g1972
sg335
g1522
sbsS'IwMaterial.h'
p2406
g309
(g1533
g311
Ntp2407
Rp2408
(dp2409
g1537
g1339
sg1538
g1684
sg335
g1360
sbsS'PVRTexTool_interface.cpp'
p2410
g309
(g1533
g311
Ntp2411
Rp2412
(dp2413
g1537
g1167
sg1538
(lp2414
g1159
ag1161
ag1163
asg335
g1165
sbsS'IwGxSurface.h'
p2415
g309
(g1533
g311
Ntp2416
Rp2417
(dp2418
g1537
g1339
sg1538
g1684
sg335
g1387
sbsS's3eSocket.h'
p2419
g309
(g1533
g311
Ntp2420
Rp2421
(dp2422
g1537
g1545
sg1538
g1561
sg335
S'c:/marmalade/7.4/s3e/h/s3eSocket.h'
p2423
sbsS'IwAutoFile.h'
p2424
g309
(g1533
g311
Ntp2425
Rp2426
(dp2427
g1537
g1403
sg1538
g1574
sg335
g1489
sbsS's3eVibra.h'
p2428
g309
(g1533
g311
Ntp2429
Rp2430
(dp2431
g1537
g1545
sg1538
g1561
sg335
S'c:/marmalade/7.4/s3e/h/s3eVibra.h'
p2432
sbsS'poll_1.h'
p2433
g309
(g1533
g311
Ntp2434
Rp2435
(dp2436
g1537
g1545
sg1538
g1702
sg335
S'c:/marmalade/7.4/s3e/h/std/sys/poll.h'
p2437
sbsS's3eThread.h'
p2438
g309
(g1533
g311
Ntp2439
Rp2440
(dp2441
g1537
g1545
sg1538
g1561
sg335
S'c:/marmalade/7.4/s3e/h/s3eThread.h'
p2442
sbsS'ucontext.h'
p2443
g309
(g1533
g311
Ntp2444
Rp2445
(dp2446
g1537
g1545
sg1538
g1567
sg335
S'c:/marmalade/7.4/s3e/h/std/ucontext.h'
p2447
sbsS'time.h'
p2448
g309
(g1533
g311
Ntp2449
Rp2450
(dp2451
g1537
g1545
sg1538
g1567
sg335
S'c:/marmalade/7.4/s3e/h/std/time.h'
p2452
sbsS'jchuff.h'
p2453
g309
(g1533
g311
Ntp2454
Rp2455
(dp2456
g1537
g1048
sg1538
g1638
sg335
g1051
sbsS'IwSoundPCM.cpp'
p2457
g309
(g1533
g311
Ntp2458
Rp2459
(dp2460
g1537
g1092
sg1538
g1590
sg335
g1116
sbsS's3eSoundRecord.h'
p2461
g309
(g1533
g311
Ntp2462
Rp2463
(dp2464
g1537
g1545
sg1538
g1561
sg335
S'c:/marmalade/7.4/s3e/h/s3eSoundRecord.h'
p2465
sbsS'IwFibre.h'
p2466
g309
(g1533
g311
Ntp2467
Rp2468
(dp2469
g1537
g1403
sg1538
g1574
sg335
g1480
sbsS's3eVersion.h'
p2470
g309
(g1533
g311
Ntp2471
Rp2472
(dp2473
g1537
g1545
sg1538
g1561
sg335
S'c:/marmalade/7.4/s3e/h/s3eVersion.h'
p2474
sbsS'input.cpp'
p2475
g309
(g1533
g311
Ntp2476
Rp2477
(dp2478
g1537
g1144
sg1538
g1585
sg335
g1147
sbsS'IwSoundGroup.h'
p2479
g309
(g1533
g311
Ntp2480
Rp2481
(dp2482
g1537
g1092
sg1538
g1590
sg335
g1105
sbsS'IwSoundWAV.h'
p2483
g309
(g1533
g311
Ntp2484
Rp2485
(dp2486
g1537
g1092
sg1538
g1590
sg335
g1093
sbsS'IwGxFontGlyph.h'
p2487
g309
(g1533
g311
Ntp2488
Rp2489
(dp2490
g1537
g1217
sg1538
g1539
sg335
g1218
sbsS's3eTypes.h'
p2491
g309
(g1533
g311
Ntp2492
Rp2493
(dp2494
g1537
g1545
sg1538
g1561
sg335
S'c:/marmalade/7.4/s3e/h/s3eTypes.h'
p2495
sbsS'IwSoundSpec.h'
p2496
g309
(g1533
g311
Ntp2497
Rp2498
(dp2499
g1537
g1092
sg1538
g1590
sg335
g1118
sbsS'signal_2.h'
p2500
g309
(g1533
g311
Ntp2501
Rp2502
(dp2503
g1537
g1545
sg1538
g1546
sg335
S'c:/marmalade/7.4/s3e/h/std/c++/signal.h'
p2504
sbsS'termios.h'
p2505
g309
(g1533
g311
Ntp2506
Rp2507
(dp2508
g1537
g1545
sg1538
g1567
sg335
S'c:/marmalade/7.4/s3e/h/std/termios.h'
p2509
sbsS'iw2dscenegraph.mkf'
p2510
g309
(g1533
g311
Ntp2511
Rp2512
(dp2513
g1537
g1186
sg1538
g1858
sg335
g1184
sbsS'slist'
p2514
g309
(g1533
g311
Ntp2515
Rp2516
(dp2517
g1537
g1545
sg1538
g1546
sg335
S'c:/marmalade/7.4/s3e/h/std/c++/slist'
p2518
sbsS'cstdlib'
p2519
g309
(g1533
g311
Ntp2520
Rp2521
(dp2522
g1537
g1545
sg1538
g1546
sg335
S'c:/marmalade/7.4/s3e/h/std/c++/cstdlib'
p2523
sbsS's3eLocation.h'
p2524
g309
(g1533
g311
Ntp2525
Rp2526
(dp2527
g1537
g1545
sg1538
g1561
sg335
S'c:/marmalade/7.4/s3e/h/s3eLocation.h'
p2528
sbsS'IwMemBucketHelpers.h'
p2529
g309
(g1533
g311
Ntp2530
Rp2531
(dp2532
g1537
g1403
sg1538
g1574
sg335
g1452
sbsS's3eHash.h'
p2533
g309
(g1533
g311
Ntp2534
Rp2535
(dp2536
g1537
g1545
sg1538
g1561
sg335
S'c:/marmalade/7.4/s3e/h/s3eHash.h'
p2537
sbsS'IwSoundGroup.cpp'
p2538
g309
(g1533
g311
Ntp2539
Rp2540
(dp2541
g1537
g1092
sg1538
g1590
sg335
g1112
sbsS'IwGeomFMat.h'
p2542
g309
(g1533
g311
Ntp2543
Rp2544
(dp2545
g1537
g1239
sg1538
g1604
sg335
g1307
sbsS'type_traits.h'
p2546
g309
(g1533
g311
Ntp2547
Rp2548
(dp2549
g1537
g1545
sg1538
g1546
sg335
S'c:/marmalade/7.4/s3e/h/std/c++/type_traits.h'
p2550
sbsS'IwMenu.h'
p2551
g309
(g1533
g311
Ntp2552
Rp2553
(dp2554
g1537
g1403
sg1538
g1574
sg335
g1404
sbsS'IwResHandlerITX.h'
p2555
g309
(g1533
g311
Ntp2556
Rp2557
(dp2558
g1537
g1315
sg1538
g1816
sg335
g1313
sbsS'IwSoundData.h'
p2559
g309
(g1533
g311
Ntp2560
Rp2561
(dp2562
g1537
g1092
sg1538
g1590
sg335
g1132
sbsS'IwArray.h'
p2563
g309
(g1533
g311
Ntp2564
Rp2565
(dp2566
g1537
g1403
sg1538
g1574
sg335
g1470
sbsS'IwUTF8.h'
p2567
g309
(g1533
g311
Ntp2568
Rp2569
(dp2570
g1537
g1403
sg1538
g1574
sg335
g1474
sbsS'math_rvct.h'
p2571
g309
(g1533
g311
Ntp2572
Rp2573
(dp2574
g1537
g1545
sg1538
g1567
sg335
S'c:/marmalade/7.4/s3e/h/std/math_rvct.h'
p2575
sbsS'IwUtil.h'
p2576
g309
(g1533
g311
Ntp2577
Rp2578
(dp2579
g1537
g1403
sg1538
g1574
sg335
g1493
sbsS'IwFColour.h'
p2580
g309
(g1533
g311
Ntp2581
Rp2582
(dp2583
g1537
g1339
sg1538
g1684
sg335
g1350
sbsS'wctype.h'
p2584
g309
(g1533
g311
Ntp2585
Rp2586
(dp2587
g1537
g1545
sg1538
g1567
sg335
S'c:/marmalade/7.4/s3e/h/std/wctype.h'
p2588
sbsS'mainMenu.h'
p2589
g309
(g1533
g311
Ntp2590
Rp2591
(dp2592
g1537
g1144
sg1538
g1972
sg335
g1524
sbsS'cstddef'
p2593
g309
(g1533
g311
Ntp2594
Rp2595
(dp2596
g1537
g1545
sg1538
g1546
sg335
S'c:/marmalade/7.4/s3e/h/std/c++/cstddef'
p2597
sbsS'assert.h'
p2598
g309
(g1533
g311
Ntp2599
Rp2600
(dp2601
g1537
g1545
sg1538
g1567
sg335
S'c:/marmalade/7.4/s3e/h/std/assert.h'
p2602
sbsS'mman.h'
p2603
g309
(g1533
g311
Ntp2604
Rp2605
(dp2606
g1537
g1545
sg1538
g1702
sg335
S'c:/marmalade/7.4/s3e/h/std/sys/mman.h'
p2607
sbsS'IwRandom.h'
p2608
g309
(g1533
g311
Ntp2609
Rp2610
(dp2611
g1537
g1403
sg1538
g1574
sg335
g1416
sbsS'libgen.h'
p2612
g309
(g1533
g311
Ntp2613
Rp2614
(dp2615
g1537
g1545
sg1538
g1567
sg335
S'c:/marmalade/7.4/s3e/h/std/libgen.h'
p2616
sbsS'utsname.h'
p2617
g309
(g1533
g311
Ntp2618
Rp2619
(dp2620
g1537
g1545
sg1538
g1702
sg335
S'c:/marmalade/7.4/s3e/h/std/sys/utsname.h'
p2621
sbsS'wait.h'
p2622
g309
(g1533
g311
Ntp2623
Rp2624
(dp2625
g1537
g1545
sg1538
g1702
sg335
S'c:/marmalade/7.4/s3e/h/std/sys/wait.h'
p2626
sbsS'param.h'
p2627
g309
(g1533
g311
Ntp2628
Rp2629
(dp2630
g1537
g1545
sg1538
g1702
sg335
S'c:/marmalade/7.4/s3e/h/std/sys/param.h'
p2631
sbsS'IwDivide.h'
p2632
g309
(g1533
g311
Ntp2633
Rp2634
(dp2635
g1537
g1403
sg1538
g1574
sg335
g1466
sbsS'Iw2DSceneGraphCore.cpp'
p2636
g309
(g1533
g311
Ntp2637
Rp2638
(dp2639
g1537
g1396
sg1538
(lp2640
S"'Marmalade Studio'"
p2641
ag1389
asg335
g1394
sbsS'resources.h'
p2642
g309
(g1533
g311
Ntp2643
Rp2644
(dp2645
g1537
g1144
sg1538
g1972
sg335
g1518
sbsS'IwResManager.h'
p2646
g309
(g1533
g311
Ntp2647
Rp2648
(dp2649
g1537
g1315
sg1538
g1816
sg335
g1318
sbsS'IwSoundManager.h'
p2650
g309
(g1533
g311
Ntp2651
Rp2652
(dp2653
g1537
g1092
sg1538
g1590
sg335
g1110
sbsS'cwctype'
p2654
g309
(g1533
g311
Ntp2655
Rp2656
(dp2657
g1537
g1545
sg1538
g1546
sg335
S'c:/marmalade/7.4/s3e/h/std/c++/cwctype'
p2658
sbsS'set'
p2659
g309
(g1533
g311
Ntp2660
Rp2661
(dp2662
g1537
g1545
sg1538
g1546
sg335
S'c:/marmalade/7.4/s3e/h/std/c++/set'
p2663
sbsS'IwGeomSQuat.h'
p2664
g309
(g1533
g311
Ntp2665
Rp2666
(dp2667
g1537
g1239
sg1538
g1604
sg335
g1282
sbsS'locale'
p2668
g309
(g1533
g311
Ntp2669
Rp2670
(dp2671
g1537
g1545
sg1538
g1546
sg335
S'c:/marmalade/7.4/s3e/h/std/c++/locale'
p2672
sbsS'cstdio'
p2673
g309
(g1533
g311
Ntp2674
Rp2675
(dp2676
g1537
g1545
sg1538
g1546
sg335
S'c:/marmalade/7.4/s3e/h/std/c++/cstdio'
p2677
sbsS'cdjpeg.h'
p2678
g309
(g1533
g311
Ntp2679
Rp2680
(dp2681
g1537
g1048
sg1538
g1638
sg335
g1055
sbsS'audio.h'
p2682
g309
(g1533
g311
Ntp2683
Rp2684
(dp2685
g1537
g1144
sg1538
g1972
sg335
g1520
sbsS'IwList.h'
p2686
g309
(g1533
g311
Ntp2687
Rp2688
(dp2689
g1537
g1403
sg1538
g1574
sg335
g1434
sbsS'pauseMenu.cpp'
p2690
g309
(g1533
g311
Ntp2691
Rp2692
(dp2693
g1537
g1144
sg1538
g1585
sg335
g1149
sbsS'inttypes.h'
p2694
g309
(g1533
g311
Ntp2695
Rp2696
(dp2697
g1537
g1545
sg1538
g1567
sg335
S'c:/marmalade/7.4/s3e/h/std/inttypes.h'
p2698
sbsS'dirent.h'
p2699
g309
(g1533
g311
Ntp2700
Rp2701
(dp2702
g1537
g1545
sg1538
g1567
sg335
S'c:/marmalade/7.4/s3e/h/std/dirent.h'
p2703
sbsS'IwGeomVec3.h'
p2704
g309
(g1533
g311
Ntp2705
Rp2706
(dp2707
g1537
g1239
sg1538
g1604
sg335
g1276
sbsS'transupp.h'
p2708
g309
(g1533
g311
Ntp2709
Rp2710
(dp2711
g1537
g1048
sg1538
g1638
sg335
g1067
sbsS'IwMath.h'
p2712
g309
(g1533
g311
Ntp2713
Rp2714
(dp2715
g1537
g1403
sg1538
g1574
sg335
g1478
sbsS'IwGeomQuat.h'
p2716
g309
(g1533
g311
Ntp2717
Rp2718
(dp2719
g1537
g1239
sg1538
g1604
sg335
g1258
sbsS'glplatform.h'
p2720
g309
(g1533
g311
Ntp2721
Rp2722
(dp2723
g1537
g1545
sg1538
g1909
sg335
S'c:/marmalade/7.4/s3e/h/GLES/glplatform.h'
p2724
sbsS'iwgl.config.txt'
p2725
g309
(g1533
g311
Ntp2726
Rp2727
(dp2728
g1537
g1196
sg1538
g1555
sg335
g1194
sbsS'bitset'
p2729
g309
(g1533
g311
Ntp2730
Rp2731
(dp2732
g1537
g1545
sg1538
g1546
sg335
S'c:/marmalade/7.4/s3e/h/std/c++/bitset'
p2733
sbsS'alloca.h'
p2734
g309
(g1533
g311
Ntp2735
Rp2736
(dp2737
g1537
g1545
sg1538
g1567
sg335
S'c:/marmalade/7.4/s3e/h/std/alloca.h'
p2738
sbsS'IwResHandler.h'
p2739
g309
(g1533
g311
Ntp2740
Rp2741
(dp2742
g1537
g1315
sg1538
g1816
sg335
g1331
sbsS'IwResHandlerMTL.h'
p2743
g309
(g1533
g311
Ntp2744
Rp2745
(dp2746
g1537
g1339
sg1538
g1684
sg335
g1368
sbsS'IwRuntime.h'
p2747
g309
(g1533
g311
Ntp2748
Rp2749
(dp2750
g1537
g1403
sg1538
g1574
sg335
g1450
sbsS'limits'
p2751
g309
(g1533
g311
Ntp2752
Rp2753
(dp2754
g1537
g1545
sg1538
g1546
sg335
S'c:/marmalade/7.4/s3e/h/std/c++/limits'
p2755
sbsS'IwGeomBBox.h'
p2756
g309
(g1533
g311
Ntp2757
Rp2758
(dp2759
g1537
g1239
sg1538
g1604
sg335
g1289
sbsS's3eContacts.h'
p2760
g309
(g1533
g311
Ntp2761
Rp2762
(dp2763
g1537
g1545
sg1538
g1561
sg335
S'c:/marmalade/7.4/s3e/h/s3eContacts.h'
p2764
sbsS's3eLicense.h'
p2765
g309
(g1533
g311
Ntp2766
Rp2767
(dp2768
g1537
g1545
sg1538
g1561
sg335
S'c:/marmalade/7.4/s3e/h/s3eLicense.h'
p2769
sbsS'iwgx.config.txt'
p2770
g309
(g1533
g311
Ntp2771
Rp2772
(dp2773
g1537
g1339
sg1538
g1684
sg335
g1374
sbsS'IwTextParser.h'
p2774
g309
(g1533
g311
Ntp2775
Rp2776
(dp2777
g1537
g1403
sg1538
g1574
sg335
g1401
sbsS's3eTimer.h'
p2778
g309
(g1533
g311
Ntp2779
Rp2780
(dp2781
g1537
g1545
sg1538
g1561
sg335
S'c:/marmalade/7.4/s3e/h/s3eTimer.h'
p2782
sbsS'IwGeomVec.h'
p2783
g309
(g1533
g311
Ntp2784
Rp2785
(dp2786
g1537
g1239
sg1538
g1604
sg335
g1266
sbsS'IwSerialise.h'
p2787
g309
(g1533
g311
Ntp2788
Rp2789
(dp2790
g1537
g1403
sg1538
g1574
sg335
g1436
sbsS'cstdarg'
p2791
g309
(g1533
g311
Ntp2792
Rp2793
(dp2794
g1537
g1545
sg1538
g1546
sg335
S'c:/marmalade/7.4/s3e/h/std/c++/cstdarg'
p2795
sbsS'gl2ext.h'
p2796
g309
(g1533
g311
Ntp2797
Rp2798
(dp2799
g1537
g1545
sg1538
g1808
sg335
S'c:/marmalade/7.4/s3e/h/GLES2/gl2ext.h'
p2800
sbsS'IwChar.h'
p2801
g309
(g1533
g311
Ntp2802
Rp2803
(dp2804
g1537
g1403
sg1538
g1574
sg335
g1456
sbsS's3eSound.h'
p2805
g309
(g1533
g311
Ntp2806
Rp2807
(dp2808
g1537
g1545
sg1538
g1561
sg335
S'c:/marmalade/7.4/s3e/h/s3eSound.h'
p2809
sbsS's3eIOSBackgroundAudio.h'
p2810
g309
(g1533
g311
Ntp2811
Rp2812
(dp2813
g1537
g1545
sg1538
g1771
sg335
S'c:/marmalade/7.4/s3e/h/ext/s3eIOSBackgroundAudio.h'
p2814
sbsS'exception.h'
p2815
g309
(g1533
g311
Ntp2816
Rp2817
(dp2818
g1537
g1545
sg1538
g1546
sg335
S'c:/marmalade/7.4/s3e/h/std/c++/exception.h'
p2819
sbsS'iwgeom.config.txt'
p2820
g309
(g1533
g311
Ntp2821
Rp2822
(dp2823
g1537
g1239
sg1538
g1604
sg335
g1237
sbsS'iwgx.mkf'
p2824
g309
(g1533
g311
Ntp2825
Rp2826
(dp2827
g1537
g1380
sg1538
g1684
sg335
g1378
sbsS'gl.h'
p2828
g309
(g1533
g311
Ntp2829
Rp2830
(dp2831
g1537
g1545
sg1538
g1909
sg335
S'c:/marmalade/7.4/s3e/h/GLES/gl.h'
p2832
sbsS'zlib.h'
p2833
g309
(g1533
g311
Ntp2834
Rp2835
(dp2836
g1537
g1508
sg1538
g2240
sg335
g1509
sbsS'temp_defines_release.h'
p2837
g309
(g1533
g311
Ntp2838
Rp2839
(dp2840
g1537
(lp2841
sg1538
(lp2842
S"'generated files'"
p2843
asg335
S'e:/Documents/Michiel/Programmeren/Marmalade/MVSStage3/build_mvsstage3_vc12x/temp_defines_release.h'
p2844
sbsS'iwgl.mkf'
p2845
g309
(g1533
g311
Ntp2846
Rp2847
(dp2848
g1537
g1193
sg1538
g1555
sg335
g1191
sbsS'IwColour.h'
p2849
g309
(g1533
g311
Ntp2850
Rp2851
(dp2852
g1537
g1339
sg1538
g1684
sg335
g1352
sbsS's3eLibrary.h'
p2853
g309
(g1533
g311
Ntp2854
Rp2855
(dp2856
g1537
g1545
sg1538
g1771
sg335
S'c:/marmalade/7.4/s3e/h/ext/s3eLibrary.h'
p2857
sbsS'types.h'
p2858
g309
(g1533
g311
Ntp2859
Rp2860
(dp2861
g1537
g1545
sg1538
g1702
sg335
S'c:/marmalade/7.4/s3e/h/std/sys/types.h'
p2862
sbsS'ifaddrs.h'
p2863
g309
(g1533
g311
Ntp2864
Rp2865
(dp2866
g1537
g1545
sg1538
g1567
sg335
S'c:/marmalade/7.4/s3e/h/std/ifaddrs.h'
p2867
sbsS'strstream'
p2868
g309
(g1533
g311
Ntp2869
Rp2870
(dp2871
g1537
g1545
sg1538
g1546
sg335
S'c:/marmalade/7.4/s3e/h/std/c++/strstream'
p2872
sbsS'exception'
p2873
g309
(g1533
g311
Ntp2874
Rp2875
(dp2876
g1537
g1545
sg1538
g1546
sg335
S'c:/marmalade/7.4/s3e/h/std/c++/exception'
p2877
sbsS'rlocks.h'
p2878
g309
(g1533
g311
Ntp2879
Rp2880
(dp2881
g1537
g1545
sg1538
g1546
sg335
S'c:/marmalade/7.4/s3e/h/std/c++/rlocks.h'
p2882
sbsS'ioctl.h'
p2883
g309
(g1533
g311
Ntp2884
Rp2885
(dp2886
g1537
g1545
sg1538
g1702
sg335
S'c:/marmalade/7.4/s3e/h/std/sys/ioctl.h'
p2887
sbsS'rope'
p2888
g309
(g1533
g311
Ntp2889
Rp2890
(dp2891
g1537
g1545
sg1538
g1546
sg335
S'c:/marmalade/7.4/s3e/h/std/c++/rope'
p2892
sbsS'jinclude.h'
p2893
g309
(g1533
g311
Ntp2894
Rp2895
(dp2896
g1537
g1048
sg1538
g1638
sg335
g1057
sbsS'IwEvent.h'
p2897
g309
(g1533
g311
Ntp2898
Rp2899
(dp2900
g1537
g1403
sg1538
g1574
sg335
g1476
sbsS'IwOptimiseSize.h'
p2901
g309
(g1533
g311
Ntp2902
Rp2903
(dp2904
g1537
g1403
sg1538
g1574
sg335
g1501
sbsS'iwgxfont_public.defines.txt'
p2905
g309
(g1533
g311
Ntp2906
Rp2907
(dp2908
g1537
g1217
sg1538
g1539
sg335
g1215
sbsS'iconv.h'
p2909
g309
(g1533
g311
Ntp2910
Rp2911
(dp2912
g1537
g1545
sg1538
g1567
sg335
S'c:/marmalade/7.4/s3e/h/std/iconv.h'
p2913
sbsS'sendfile.h'
p2914
g309
(g1533
g311
Ntp2915
Rp2916
(dp2917
g1537
g1545
sg1538
g1702
sg335
S'c:/marmalade/7.4/s3e/h/std/sys/sendfile.h'
p2918
sbsS'IwGeomSphere.h'
p2919
g309
(g1533
g311
Ntp2920
Rp2921
(dp2922
g1537
g1239
sg1538
g1604
sg335
g1297
sbsS'tiniconv.mkf'
p2923
g309
(g1533
g311
Ntp2924
Rp2925
(dp2926
g1537
g1085
sg1538
g2025
sg335
g1083
sbsS'iw2dscenegraph.defines.txt'
p2927
g309
(g1533
g311
Ntp2928
Rp2929
(dp2930
g1537
g1181
sg1538
g1858
sg335
g1187
sbsS'jdct.h'
p2931
g309
(g1533
g311
Ntp2932
Rp2933
(dp2934
g1537
g1048
sg1538
g1638
sg335
g1063
sbsS'cctype'
p2935
g309
(g1533
g311
Ntp2936
Rp2937
(dp2938
g1537
g1545
sg1538
g1546
sg335
S'c:/marmalade/7.4/s3e/h/std/c++/cctype'
p2939
sbsS'IwSoundADPCM.cpp'
p2940
g309
(g1533
g311
Ntp2941
Rp2942
(dp2943
g1537
g1092
sg1538
g1590
sg335
g1114
sbsS's3eConfig.h'
p2944
g309
(g1533
g311
Ntp2945
Rp2946
(dp2947
g1537
g1545
sg1538
g1561
sg335
S'c:/marmalade/7.4/s3e/h/s3eConfig.h'
p2948
sbsS'IwHashString.h'
p2949
g309
(g1533
g311
Ntp2950
Rp2951
(dp2952
g1537
g1403
sg1538
g1574
sg335
g1428
sbsS'stat.h'
p2953
g309
(g1533
g311
Ntp2954
Rp2955
(dp2956
g1537
g1545
sg1538
g1702
sg335
S'c:/marmalade/7.4/s3e/h/std/sys/stat.h'
p2957
sbsS'byteswap.h'
p2958
g309
(g1533
g311
Ntp2959
Rp2960
(dp2961
g1537
g1545
sg1538
g1567
sg335
S'c:/marmalade/7.4/s3e/h/std/byteswap.h'
p2962
sbsS'iwresmanager.mkf'
p2963
g309
(g1533
g311
Ntp2964
Rp2965
(dp2966
g1537
g1328
sg1538
g1816
sg335
g1326
sbsS'IwUtilInitTerm.h'
p2967
g309
(g1533
g311
Ntp2968
Rp2969
(dp2970
g1537
g1403
sg1538
g1574
sg335
g1406
sbsS'pthread_1.h'
p2971
g309
(g1533
g311
Ntp2972
Rp2973
(dp2974
g1537
g1545
sg1538
g1546
sg335
S'c:/marmalade/7.4/s3e/h/std/c++/pthread.h'
p2975
sbsS'IwMemBucket.h'
p2976
g309
(g1533
g311
Ntp2977
Rp2978
(dp2979
g1537
g1403
sg1538
g1574
sg335
g1464
sbsS'complex'
p2980
g309
(g1533
g311
Ntp2981
Rp2982
(dp2983
g1537
g1545
sg1538
g1546
sg335
S'c:/marmalade/7.4/s3e/h/std/c++/complex'
p2984
sbsS'game.cpp'
p2985
g309
(g1533
g311
Ntp2986
Rp2987
(dp2988
g1537
g1144
sg1538
g1585
sg335
g1153
sbsS'algorithm'
p2989
g309
(g1533
g311
Ntp2990
Rp2991
(dp2992
g1537
g1545
sg1538
g1546
sg335
S'c:/marmalade/7.4/s3e/h/std/c++/algorithm'
p2993
sbsS's3e.icf'
p2994
g309
(g1533
g311
Ntp2995
Rp2996
(dp2997
g1537
g1545
sg1538
g1561
sg335
S'c:/marmalade/7.4/s3e/s3e.icf'
p2998
sbsS'IwVariableBitField.h'
p2999
g309
(g1533
g311
Ntp3000
Rp3001
(dp3002
g1537
g1403
sg1538
g1574
sg335
g1499
sbsS'sem.h'
p3003
g309
(g1533
g311
Ntp3004
Rp3005
(dp3006
g1537
g1545
sg1538
g1702
sg335
S'c:/marmalade/7.4/s3e/h/std/sys/sem.h'
p3007
sbsS'IwGxFontState.h'
p3008
g309
(g1533
g311
Ntp3009
Rp3010
(dp3011
g1537
g1217
sg1538
g1539
sg335
g1228
sbsS'stdio.h'
p3012
g309
(g1533
g311
Ntp3013
Rp3014
(dp3015
g1537
g1545
sg1538
g1567
sg335
S'c:/marmalade/7.4/s3e/h/std/stdio.h'
p3016
sbsS'jmemsys.h'
p3017
g309
(g1533
g311
Ntp3018
Rp3019
(dp3020
g1537
g1048
sg1538
g1638
sg335
g1049
sbsS'ios'
p3021
g309
(g1533
g311
Ntp3022
Rp3023
(dp3024
g1537
g1545
sg1538
g1546
sg335
S'c:/marmalade/7.4/s3e/h/std/c++/ios'
p3025
sbsS'PVRTexTool.defines.txt'
p3026
g309
(g1533
g311
Ntp3027
Rp3028
(dp3029
g1537
g1167
sg1538
g2414
sg335
g1168
sbsS'stack'
p3030
g309
(g1533
g311
Ntp3031
Rp3032
(dp3033
g1537
g1545
sg1538
g1546
sg335
S'c:/marmalade/7.4/s3e/h/std/c++/stack'
p3034
sbsS'IwSoundParams.h'
p3035
g309
(g1533
g311
Ntp3036
Rp3037
(dp3038
g1537
g1092
sg1538
g1590
sg335
g1126
sbsS'new.h'
p3039
g309
(g1533
g311
Ntp3040
Rp3041
(dp3042
g1537
g1545
sg1538
g1546
sg335
S'c:/marmalade/7.4/s3e/h/std/c++/new.h'
p3043
sbsS's3eEMail.h'
p3044
g309
(g1533
g311
Ntp3045
Rp3046
(dp3047
g1537
g1545
sg1538
g1771
sg335
S'c:/marmalade/7.4/s3e/h/ext/s3eEMail.h'
p3048
sbsS's3eVideo.h'
p3049
g309
(g1533
g311
Ntp3050
Rp3051
(dp3052
g1537
g1545
sg1538
g1561
sg335
S'c:/marmalade/7.4/s3e/h/s3eVideo.h'
p3053
sbsS'pngconf.h'
p3054
g309
(g1533
g311
Ntp3055
Rp3056
(dp3057
g1537
g1037
sg1538
g2296
sg335
g1038
sbsS'pwd.h'
p3058
g309
(g1533
g311
Ntp3059
Rp3060
(dp3061
g1537
g1545
sg1538
g1567
sg335
S'c:/marmalade/7.4/s3e/h/std/pwd.h'
p3062
sbsS'gl3.h'
p3063
g309
(g1533
g311
Ntp3064
Rp3065
(dp3066
g1537
g1545
sg1538
g1869
sg335
S'c:/marmalade/7.4/s3e/h/GLES3/gl3.h'
p3067
sbsS'IwClip.h'
p3068
g309
(g1533
g311
Ntp3069
Rp3070
(dp3071
g1537
g1339
sg1538
g1684
sg335
g1356
sbsS'IwSoundInst.h'
p3072
g309
(g1533
g311
Ntp3073
Rp3074
(dp3075
g1537
g1092
sg1538
g1590
sg335
g1090
sbsS'iwresmanager.config.txt'
p3076
g309
(g1533
g311
Ntp3077
Rp3078
(dp3079
g1537
g1315
sg1538
g1816
sg335
g1333
sbsS'IwGxShaderTechnique.h'
p3080
g309
(g1533
g311
Ntp3081
Rp3082
(dp3083
g1537
g1339
sg1538
g1684
sg335
g1383
sbsS'IwCore.h'
p3084
g309
(g1533
g311
Ntp3085
Rp3086
(dp3087
g1537
g1403
sg1538
g1574
sg335
g1422
sbsS'cfloat'
p3088
g309
(g1533
g311
Ntp3089
Rp3090
(dp3091
g1537
g1545
sg1538
g1546
sg335
S'c:/marmalade/7.4/s3e/h/std/c++/cfloat'
p3092
sbsS'IwGeomMat2D.h'
p3093
g309
(g1533
g311
Ntp3094
Rp3095
(dp3096
g1537
g1239
sg1538
g1604
sg335
g1295
sbsS'IwAllocator.h'
p3097
g309
(g1533
g311
Ntp3098
Rp3099
(dp3100
g1537
g1403
sg1538
g1574
sg335
g1442
sbsS'IwPath.h'
p3101
g309
(g1533
g311
Ntp3102
Rp3103
(dp3104
g1537
g1403
sg1538
g1574
sg335
g1495
sbsS'iwgxfont.mkf'
p3105
g309
(g1533
g311
Ntp3106
Rp3107
(dp3108
g1537
g1234
sg1538
g1539
sg335
g1232
sbsS'IwTexture.h'
p3109
g309
(g1533
g311
Ntp3110
Rp3111
(dp3112
g1537
g1339
sg1538
g1684
sg335
g1348
sbsS'IwGeomVec.h.tpl'
p3113
g309
(g1533
g311
Ntp3114
Rp3115
(dp3116
g1537
g1239
sg1538
g1604
sg335
g1246
sbsS's3eAccelerometer.h'
p3117
g309
(g1533
g311
Ntp3118
Rp3119
(dp3120
g1537
g1545
sg1538
g1561
sg335
S'c:/marmalade/7.4/s3e/h/s3eAccelerometer.h'
p3121
sbsS'setjmp.h'
p3122
g309
(g1533
g311
Ntp3123
Rp3124
(dp3125
g1537
g1545
sg1538
g1567
sg335
S'c:/marmalade/7.4/s3e/h/std/setjmp.h'
p3126
sbsS'IwSoundParams.cpp'
p3127
g309
(g1533
g311
Ntp3128
Rp3129
(dp3130
g1537
g1092
sg1538
g1590
sg335
g1095
sbsS'IwFile.h'
p3131
g309
(g1533
g311
Ntp3132
Rp3133
(dp3134
g1537
g1403
sg1538
g1574
sg335
g1448
sbsS'IwTextParseable.h'
p3135
g309
(g1533
g311
Ntp3136
Rp3137
(dp3138
g1537
g1403
sg1538
g1574
sg335
g1446
sbsS'istream.h'
p3139
g309
(g1533
g311
Ntp3140
Rp3141
(dp3142
g1537
g1545
sg1538
g1546
sg335
S'c:/marmalade/7.4/s3e/h/std/c++/istream.h'
p3143
sbsS'stdint.h'
p3144
g309
(g1533
g311
Ntp3145
Rp3146
(dp3147
g1537
g1545
sg1538
g1567
sg335
S'c:/marmalade/7.4/s3e/h/std/stdint.h'
p3148
sbsS'semaphore.h'
p3149
g309
(g1533
g311
Ntp3150
Rp3151
(dp3152
g1537
g1545
sg1538
g1567
sg335
S'c:/marmalade/7.4/s3e/h/std/semaphore.h'
p3153
sbsS'ctime'
p3154
g309
(g1533
g311
Ntp3155
Rp3156
(dp3157
g1537
g1545
sg1538
g1546
sg335
S'c:/marmalade/7.4/s3e/h/std/c++/ctime'
p3158
sbsS'sstream'
p3159
g309
(g1533
g311
Ntp3160
Rp3161
(dp3162
g1537
g1545
sg1538
g1546
sg335
S'c:/marmalade/7.4/s3e/h/std/c++/sstream'
p3163
sbsS'IwGeomFBBox.h'
p3164
g309
(g1533
g311
Ntp3165
Rp3166
(dp3167
g1537
g1239
sg1538
g1604
sg335
g1260
sbsS'IwDebugPrim.h'
p3168
g309
(g1533
g311
Ntp3169
Rp3170
(dp3171
g1537
g1339
sg1538
g1684
sg335
g1337
sbsS'IwGxFontContainer.h'
p3172
g309
(g1533
g311
Ntp3173
Rp3174
(dp3175
g1537
g1217
sg1538
g1539
sg335
g1230
sbsS'IwGeomSVec3.h'
p3176
g309
(g1533
g311
Ntp3177
Rp3178
(dp3179
g1537
g1239
sg1538
g1604
sg335
g1272
sbsS'iw2dscenegraphcore.mkf'
p3180
g309
(g1533
g311
Ntp3181
Rp3182
(dp3183
g1537
g1393
sg1538
g2640
sg335
g1391
sbsS's3eExt.h'
p3184
g309
(g1533
g311
Ntp3185
Rp3186
(dp3187
g1537
g1545
sg1538
g1561
sg335
S'c:/marmalade/7.4/s3e/h/s3eExt.h'
p3188
sbsS'IwGeomFVec3.h'
p3189
g309
(g1533
g311
Ntp3190
Rp3191
(dp3192
g1537
g1239
sg1538
g1604
sg335
g1299
sbsS'streambuf'
p3193
g309
(g1533
g311
Ntp3194
Rp3195
(dp3196
g1537
g1545
sg1538
g1546
sg335
S'c:/marmalade/7.4/s3e/h/std/c++/streambuf'
p3197
sbsS's3eMetrics.h'
p3198
g309
(g1533
g311
Ntp3199
Rp3200
(dp3201
g1537
g1545
sg1538
g1771
sg335
S'c:/marmalade/7.4/s3e/h/ext/s3eMetrics.h'
p3202
sbsS'IwGxFont.h'
p3203
g309
(g1533
g311
Ntp3204
Rp3205
(dp3206
g1537
g1217
sg1538
g1539
sg335
g1222
sbsS's3eSecureStorage.h'
p3207
g309
(g1533
g311
Ntp3208
Rp3209
(dp3210
g1537
g1545
sg1538
g1561
sg335
S'c:/marmalade/7.4/s3e/h/s3eSecureStorage.h'
p3211
sbsS'string.h'
p3212
g309
(g1533
g311
Ntp3213
Rp3214
(dp3215
g1537
g1545
sg1538
g1567
sg335
S'c:/marmalade/7.4/s3e/h/std/string.h'
p3216
sbsS'IwResource.h'
p3217
g309
(g1533
g311
Ntp3218
Rp3219
(dp3220
g1537
g1403
sg1538
g1574
sg335
g1420
sbsS'IwGeomSVec2.h'
p3221
g309
(g1533
g311
Ntp3222
Rp3223
(dp3224
g1537
g1239
sg1538
g1604
sg335
g1293
sbsS'libjpeg.mkf'
p3225
g309
(g1533
g311
Ntp3226
Rp3227
(dp3228
g1537
g1077
sg1538
(lp3229
g1043
asg335
g1075
sbsS'IwGxDebug.h'
p3230
g309
(g1533
g311
Ntp3231
Rp3232
(dp3233
g1537
g1339
sg1538
g1684
sg335
g1362
sbsS'pthread_types.h'
p3234
g309
(g1533
g311
Ntp3235
Rp3236
(dp3237
g1537
g1545
sg1538
g1567
sg335
S'c:/marmalade/7.4/s3e/h/std/pthread_types.h'
p3238
sbsS'iomanip.h'
p3239
g309
(g1533
g311
Ntp3240
Rp3241
(dp3242
g1537
g1545
sg1538
g1546
sg335
S'c:/marmalade/7.4/s3e/h/std/c++/iomanip.h'
p3243
sbsS'IwKeymap.h'
p3244
g309
(g1533
g311
Ntp3245
Rp3246
(dp3247
g1537
g1403
sg1538
g1574
sg335
g1418
sbsS'IwDebug.h'
p3248
g309
(g1533
g311
Ntp3249
Rp3250
(dp3251
g1537
g1403
sg1538
g1574
sg335
g1410
sbsS'IwOptimiseThumb.h'
p3252
g309
(g1533
g311
Ntp3253
Rp3254
(dp3255
g1537
g1403
sg1538
g1574
sg335
g1491
sbsS'IwGeomMenu.h'
p3256
g309
(g1533
g311
Ntp3257
Rp3258
(dp3259
g1537
g1239
sg1538
g1604
sg335
g1252
sbsS'IwDivTable.h'
p3260
g309
(g1533
g311
Ntp3261
Rp3262
(dp3263
g1537
g1403
sg1538
g1574
sg335
g1412
sbsS'ctype.h'
p3264
g309
(g1533
g311
Ntp3265
Rp3266
(dp3267
g1537
g1545
sg1538
g1567
sg335
S'c:/marmalade/7.4/s3e/h/std/ctype.h'
p3268
sbsS'mainMenu.cpp'
p3269
g309
(g1533
g311
Ntp3270
Rp3271
(dp3272
g1537
g1144
sg1538
g1585
sg335
g1155
sbsS'IwResGroup.h'
p3273
g309
(g1533
g311
Ntp3274
Rp3275
(dp3276
g1537
g1315
sg1538
g1816
sg335
g1316
sbsS'signal_1.h'
p3277
g309
(g1533
g311
Ntp3278
Rp3279
(dp3280
g1537
g1545
sg1538
g1702
sg335
S'c:/marmalade/7.4/s3e/h/std/sys/signal.h'
p3281
sbsS'IwSoundData.cpp'
p3282
g309
(g1533
g311
Ntp3283
Rp3284
(dp3285
g1537
g1092
sg1538
g1590
sg335
g1120
sbsS'functional'
p3286
g309
(g1533
g311
Ntp3287
Rp3288
(dp3289
g1537
g1545
sg1538
g1546
sg335
S'c:/marmalade/7.4/s3e/h/std/c++/functional'
p3290
sbsS'shm.h'
p3291
g309
(g1533
g311
Ntp3292
Rp3293
(dp3294
g1537
g1545
sg1538
g1702
sg335
S'c:/marmalade/7.4/s3e/h/std/sys/shm.h'
p3295
sbsS'IwManagedList.h'
p3296
g309
(g1533
g311
Ntp3297
Rp3298
(dp3299
g1537
g1403
sg1538
g1574
sg335
g1432
sbsS'prctl.h'
p3300
g309
(g1533
g311
Ntp3301
Rp3302
(dp3303
g1537
g1545
sg1538
g1702
sg335
S'c:/marmalade/7.4/s3e/h/std/sys/prctl.h'
p3304
sbsS'IwGxStream.h'
p3305
g309
(g1533
g311
Ntp3306
Rp3307
(dp3308
g1537
g1339
sg1538
g1684
sg335
g1366
sbsS'temp_defines_debug.h'
p3309
g309
(g1533
g311
Ntp3310
Rp3311
(dp3312
g1537
(lp3313
sg1538
(lp3314
g2843
asg335
S'e:/Documents/Michiel/Programmeren/Marmalade/MVSStage3/build_mvsstage3_vc12x/temp_defines_debug.h'
p3315
sbsS'utility'
p3316
g309
(g1533
g311
Ntp3317
Rp3318
(dp3319
g1537
g1545
sg1538
g1546
sg335
S'c:/marmalade/7.4/s3e/h/std/c++/utility'
p3320
sbsS'input.h'
p3321
g309
(g1533
g311
Ntp3322
Rp3323
(dp3324
g1537
g1144
sg1538
g1972
sg335
g1528
sbsS'IwGeomLegacy.h'
p3325
g309
(g1533
g311
Ntp3326
Rp3327
(dp3328
g1537
g1239
sg1538
g1604
sg335
g1280
sbsS'IwTPage.h'
p3329
g309
(g1533
g311
Ntp3330
Rp3331
(dp3332
g1537
g1339
sg1538
g1684
sg335
g1358
sbsS'IwResSerialise.h'
p3333
g309
(g1533
g311
Ntp3334
Rp3335
(dp3336
g1537
g1315
sg1538
g1816
sg335
g1322
sbsS's3eCrypto.h'
p3337
g309
(g1533
g311
Ntp3338
Rp3339
(dp3340
g1537
g1545
sg1538
g1561
sg335
S'c:/marmalade/7.4/s3e/h/s3eCrypto.h'
p3341
sbsS's3eKeyboard.h'
p3342
g309
(g1533
g311
Ntp3343
Rp3344
(dp3345
g1537
g1545
sg1538
g1561
sg335
S'c:/marmalade/7.4/s3e/h/s3eKeyboard.h'
p3346
sbsS'fcntl.h'
p3347
g309
(g1533
g311
Ntp3348
Rp3349
(dp3350
g1537
g1545
sg1538
g1567
sg335
S'c:/marmalade/7.4/s3e/h/std/fcntl.h'
p3351
sbsS'Iw2DSceneGraphCore.h'
p3352
g309
(g1533
g311
Ntp3353
Rp3354
(dp3355
g1537
g1396
sg1538
g2640
sg335
g1397
sbsS'memory.h'
p3356
g309
(g1533
g311
Ntp3357
Rp3358
(dp3359
g1537
g1545
sg1538
g1567
sg335
S'c:/marmalade/7.4/s3e/h/std/memory.h'
p3360
sbsS'pthread.h'
p3361
g309
(g1533
g311
Ntp3362
Rp3363
(dp3364
g1537
g1545
sg1538
g1567
sg335
S'c:/marmalade/7.4/s3e/h/std/pthread.h'
p3365
sbsS'IwGeomIntersect.h'
p3366
g309
(g1533
g311
Ntp3367
Rp3368
(dp3369
g1537
g1239
sg1538
g1604
sg335
g1291
sbsS'IwTextParserITX.h'
p3370
g309
(g1533
g311
Ntp3371
Rp3372
(dp3373
g1537
g1403
sg1538
g1574
sg335
g1424
sbsS'IwClip.inl'
p3374
g309
(g1533
g311
Ntp3375
Rp3376
(dp3377
g1537
g1339
sg1538
g1684
sg335
g1342
sbsS'Iw2DSceneGraph.cpp'
p3378
g309
(g1533
g311
Ntp3379
Rp3380
(dp3381
g1537
g1181
sg1538
g1858
sg335
g1182
sbsS'ostream.h'
p3382
g309
(g1533
g311
Ntp3383
Rp3384
(dp3385
g1537
g1545
sg1538
g1546
sg335
S'c:/marmalade/7.4/s3e/h/std/c++/ostream.h'
p3386
sbsS'stl_user_config.h'
p3387
g309
(g1533
g311
Ntp3388
Rp3389
(dp3390
g1537
g1545
sg1538
g1546
sg335
S'c:/marmalade/7.4/s3e/h/std/c++/stl_user_config.h'
p3391
sbsS'IwProfileMenu.h'
p3392
g309
(g1533
g311
Ntp3393
Rp3394
(dp3395
g1537
g1403
sg1538
g1574
sg335
g1430
sbsS'MarmaladeVersion.h'
p3396
g309
(g1533
g311
Ntp3397
Rp3398
(dp3399
g1537
g1545
sg1538
g1561
sg335
S'c:/marmalade/7.4/s3e/h/MarmaladeVersion.h'
p3400
sbsS'IwResHandlerWAV.h'
p3401
g309
(g1533
g311
Ntp3402
Rp3403
(dp3404
g1537
g1092
sg1538
g1590
sg335
g1136
sbsS'gl3platform.h'
p3405
g309
(g1533
g311
Ntp3406
Rp3407
(dp3408
g1537
g1545
sg1538
g1869
sg335
S'c:/marmalade/7.4/s3e/h/GLES3/gl3platform.h'
p3409
sbsS'ios.h'
p3410
g309
(g1533
g311
Ntp3411
Rp3412
(dp3413
g1537
g1545
sg1538
g1546
sg335
S'c:/marmalade/7.4/s3e/h/std/c++/ios.h'
p3414
sbsS'IwImageHelper.h'
p3415
g309
(g1533
g311
Ntp3416
Rp3417
(dp3418
g1537
g1403
sg1538
g1574
sg335
g1462
sbsS'hash_set'
p3419
g309
(g1533
g311
Ntp3420
Rp3421
(dp3422
g1537
g1545
sg1538
g1546
sg335
S'c:/marmalade/7.4/s3e/h/std/c++/hash_set'
p3423
sbsS'IwGeomFQuat.h'
p3424
g309
(g1533
g311
Ntp3425
Rp3426
(dp3427
g1537
g1239
sg1538
g1604
sg335
g1250
sbsS'jmorecfg.h'
p3428
g309
(g1533
g311
Ntp3429
Rp3430
(dp3431
g1537
g1048
sg1538
g1638
sg335
g1073
sbsS'eglplatform.h'
p3432
g309
(g1533
g311
Ntp3433
Rp3434
(dp3435
g1537
g1545
sg1538
g1901
sg335
S'c:/marmalade/7.4/s3e/h/EGL/eglplatform.h'
p3436
sbsS'cmath'
p3437
g309
(g1533
g311
Ntp3438
Rp3439
(dp3440
g1537
g1545
sg1538
g1546
sg335
S'c:/marmalade/7.4/s3e/h/std/c++/cmath'
p3441
sbsS'math_gcc.h'
p3442
g309
(g1533
g311
Ntp3443
Rp3444
(dp3445
g1537
g1545
sg1538
g1567
sg335
S'c:/marmalade/7.4/s3e/h/std/math_gcc.h'
p3446
sbsS's3eMemory.h'
p3447
g309
(g1533
g311
Ntp3448
Rp3449
(dp3450
g1537
g1545
sg1538
g1561
sg335
S'c:/marmalade/7.4/s3e/h/s3eMemory.h'
p3451
sbsS'strings.h'
p3452
g309
(g1533
g311
Ntp3453
Rp3454
(dp3455
g1537
g1545
sg1538
g1567
sg335
S'c:/marmalade/7.4/s3e/h/std/strings.h'
p3456
sbsS's3eFile.h'
p3457
g309
(g1533
g311
Ntp3458
Rp3459
(dp3460
g1537
g1545
sg1538
g1561
sg335
S'c:/marmalade/7.4/s3e/h/s3eFile.h'
p3461
sbsS'IwGxTypes.h'
p3462
g309
(g1533
g311
Ntp3463
Rp3464
(dp3465
g1537
g1339
sg1538
g1684
sg335
g1385
sbsS'cerrno'
p3466
g309
(g1533
g311
Ntp3467
Rp3468
(dp3469
g1537
g1545
sg1538
g1546
sg335
S'c:/marmalade/7.4/s3e/h/std/c++/cerrno'
p3470
sbsS'IwSoundManager.cpp'
p3471
g309
(g1533
g311
Ntp3472
Rp3473
(dp3474
g1537
g1092
sg1538
g1590
sg335
g1097
sbsS'soundengine.mkf'
p3475
g309
(g1533
g311
Ntp3476
Rp3477
(dp3478
g1537
g1109
sg1538
g1590
sg335
g1107
sbsS'resource.h'
p3479
g309
(g1533
g311
Ntp3480
Rp3481
(dp3482
g1537
g1545
sg1538
g1702
sg335
S'c:/marmalade/7.4/s3e/h/std/sys/resource.h'
p3483
sbsS'clocale'
p3484
g309
(g1533
g311
Ntp3485
Rp3486
(dp3487
g1537
g1545
sg1538
g1546
sg335
S'c:/marmalade/7.4/s3e/h/std/c++/clocale'
p3488
sbsS'pvrtextool.mkf'
p3489
g309
(g1533
g311
Ntp3490
Rp3491
(dp3492
g1537
g1172
sg1538
g2172
sg335
g1170
sbsS'csetjmp'
p3493
g309
(g1533
g311
Ntp3494
Rp3495
(dp3496
g1537
g1545
sg1538
g1546
sg335
S'c:/marmalade/7.4/s3e/h/std/c++/csetjmp'
p3497
sbsS'netdb.h'
p3498
g309
(g1533
g311
Ntp3499
Rp3500
(dp3501
g1537
g1545
sg1538
g1567
sg335
S'c:/marmalade/7.4/s3e/h/std/netdb.h'
p3502
sbsS's3eAndroidJNI.h'
p3503
g309
(g1533
g311
Ntp3504
Rp3505
(dp3506
g1537
g1545
sg1538
g1771
sg335
S'c:/marmalade/7.4/s3e/h/ext/s3eAndroidJNI.h'
p3507
sbsS'stdexcept'
p3508
g309
(g1533
g311
Ntp3509
Rp3510
(dp3511
g1537
g1545
sg1538
g1546
sg335
S'c:/marmalade/7.4/s3e/h/std/c++/stdexcept'
p3512
sbsS'math.h'
p3513
g309
(g1533
g311
Ntp3514
Rp3515
(dp3516
g1537
g1545
sg1538
g1567
sg335
S'c:/marmalade/7.4/s3e/h/std/math.h'
p3517
sbsS'stdbool.h'
p3518
g309
(g1533
g311
Ntp3519
Rp3520
(dp3521
g1537
g1545
sg1538
g1567
sg335
S'c:/marmalade/7.4/s3e/h/std/stdbool.h'
p3522
sbsS'uio.h'
p3523
g309
(g1533
g311
Ntp3524
Rp3525
(dp3526
g1537
g1545
sg1538
g1702
sg335
S'c:/marmalade/7.4/s3e/h/std/sys/uio.h'
p3527
sbsS'IwUncopyable.h'
p3528
g309
(g1533
g311
Ntp3529
Rp3530
(dp3531
g1537
g1403
sg1538
g1574
sg335
g1454
sbssS'juice_build_type'
p3532
g4
sS'tests'
p3533
(lp3534
sS'project_name'
p3535
g317
sS'root_file'
p3536
g122
sS'current_root'
p3537
S'e:/Documents/Michiel/Programmeren/Marmalade/MVSStage3'
p3538
sS'dependencies'
p3539
(lp3540
sS'include_paths'
p3541
(lp3542
S'e:/Documents/Michiel/Programmeren/Marmalade/MVSStage3/include'
p3543
aS'c:/marmalade/7.4/modules/iw2d/h'
p3544
aS'c:/marmalade/7.4/modules/iwgx/h'
p3545
aS'c:/marmalade/7.4/modules/iwgl/h'
p3546
aS'c:/marmalade/7.4/modules/iwutil/h'
p3547
aS'c:/marmalade/7.4/modules/third_party/libjpeg/h'
p3548
aS'c:/marmalade/7.4/modules/third_party/zlib/h'
p3549
aS'c:/marmalade/7.4/modules/third_party/libpng/h'
p3550
aS'c:/marmalade/7.4/modules/iwgeom/h'
p3551
aS'c:/marmalade/7.4/modules/iwresmanager/h'
p3552
aS'c:/marmalade/7.4/extensions/pvrtextool/h'
p3553
aS'c:/marmalade/7.4/modules/iwgxfont/h'
p3554
aS'c:/marmalade/7.4/modules/third_party/tiniconv/source'
p3555
aS'c:/marmalade/7.4/modules/iw2dscenegraph/h'
p3556
aS'c:/marmalade/7.4/modules/iw2dscenegraphcore/h'
p3557
aS'c:/marmalade/7.4/examples/gametutorial/cpp/modules/soundengine/h'
p3558
aS'c:/marmalade/7.4/examples/gametutorial/cpp/modules/soundengine/source'
p3559
aS'c:/marmalade/7.4/s3e/h'
p3560
aS'c:/marmalade/7.4/s3e/h/ext'
p3561
aS'c:/marmalade/7.4/s3e/h/std'
p3562
aS'c:/marmalade/7.4/s3e/h/std/c++'
p3563
aS'c:/marmalade/7.4/s3e/h/ext_legacy'
p3564
aS'c:/marmalade/7.4/s3e/h/legacy'
p3565
asS'weak_frameworks'
p3566
(lp3567
sS'extprojects'
p3568
(dp3569
sg573
(dp3570
g567
(lp3571
(S'e:/Documents/Michiel/Programmeren/Marmalade/MVSStage3/data/audio'
p3572
S'audio'
p3573
I0
tp3574
a(S'e:/Documents/Michiel/Programmeren/Marmalade/MVSStage3/data/textures'
p3575
S'textures'
p3576
I0
tp3577
a(S'e:/Documents/Michiel/Programmeren/Marmalade/MVSStage3/data-ram/data-gles1,e:/Documents/Michiel/Programmeren/Marmalade/MVSStage3/data'
p3578
S'.'
p3579
I0
tp3580
assS'macro_types'
p3581
(dp3582
g508
I1
sg509
I0
sg510
I0
sg511
I0
sg513
I0
sg514
I0
sg515
I0
sg516
I0
sg517
I0
sg519
I0
sg520
I0
sg521
I0
sg522
I0
sg523
I0
sg525
I0
sg527
I0
sg528
I0
sg529
I0
sg530
I0
sg531
I0
sg532
I1
sg533
I0
sg534
I0
sg535
I0
sg536
I0
sg537
I01
sg538
I1
sg539
I0
sg540
I0
sg541
I0
sg542
I0
sg543
I0
sg544
I0
sg545
I0
ssS'commands'
p3583
(lp3584
sg575
(g1024
S'VC12X'
p3585
S'X86ARM'
p3586
tp3587
sS'build_libs'
p3588
(dp3589
sg577
g0
sS'frameworks'
p3590
(lp3591
sS'environ'
p3592
(dp3593
sS'target_name_debug'
p3594
g317
sS'builders'
p3595
(dp3596
g567
(dp3597
S'.S'
p3598
(dp3599
S'rvct'
p3600
(lp3601
S'.obj'
p3602
aS'echo ARM Assembling(RVCT) ${SOURCE}...'
p3603
aS'c:/marmalade/7.4/s3e\\rvct\\bin\\armasm -o ${TARGET} ${SOURCE}'
p3604
asg431
(lp3605
g3602
aS'echo ARM Assembling(GCC) ${SOURCE}...'
p3606
aS'c:/marmalade/7.4/s3e\\gcc\\bin\\arm-none-eabi-gcc -c -o ${TARGET} ${SOURCE}'
p3607
asS'ppu'
p3608
(lp3609
S'.a'
p3610
aS'echo PPU Assembling(SNC) ${SOURCE}...'
p3611
aS'c:/marmalade/7.4/s3e\\rvct\\bin\\armasm -o ${TARGET} ${SOURCE}'
p3612
assS'.s'
p3613
g3599
sS'.vp'
p3614
(lp3615
NaS'"C:/Marmalade/7.4/s3e/python/python.exe" "c:/marmalade/7.4/modules/iwgx/tools/compile_shaders.py" ${SOURCE}'
p3616
asssS'extproject_names'
p3617
(lp3618
sbtp3619
.